
Balancin_Mendelevich.elf:     file format elf32-littlearm

Sections:
Idx Name          Size      VMA       LMA       File off  Algn
  0 .isr_vector   00000198  08000000  08000000  00001000  2**0
                  CONTENTS, ALLOC, LOAD, READONLY, DATA
  1 .text         0000b540  080001a0  080001a0  000011a0  2**4
                  CONTENTS, ALLOC, LOAD, READONLY, CODE
  2 .rodata       00001418  0800b6e0  0800b6e0  0000c6e0  2**2
                  CONTENTS, ALLOC, LOAD, READONLY, DATA
  3 .ARM.extab    00000000  0800caf8  0800caf8  0000e1b0  2**0
                  CONTENTS, READONLY
  4 .ARM          00000008  0800caf8  0800caf8  0000daf8  2**2
                  CONTENTS, ALLOC, LOAD, READONLY, DATA
  5 .preinit_array 00000000  0800cb00  0800cb00  0000e1b0  2**0
                  CONTENTS, ALLOC, LOAD, DATA
  6 .init_array   00000004  0800cb00  0800cb00  0000db00  2**2
                  CONTENTS, ALLOC, LOAD, READONLY, DATA
  7 .fini_array   00000004  0800cb04  0800cb04  0000db04  2**2
                  CONTENTS, ALLOC, LOAD, READONLY, DATA
  8 .data         000001b0  20000000  0800cb08  0000e000  2**2
                  CONTENTS, ALLOC, LOAD, DATA
  9 .bss          00002e58  200001b0  0800ccb8  0000e1b0  2**2
                  ALLOC
 10 ._user_heap_stack 00000600  20003008  0800ccb8  0000f008  2**0
                  ALLOC
 11 .ARM.attributes 00000030  00000000  00000000  0000e1b0  2**0
                  CONTENTS, READONLY
 12 .comment      00000043  00000000  00000000  0000e1e0  2**0
                  CONTENTS, READONLY
 13 .debug_frame  000008c4  00000000  00000000  0000e224  2**2
                  CONTENTS, READONLY, DEBUGGING, OCTETS

Disassembly of section .text:

080001a0 <__do_global_dtors_aux>:
 80001a0:	b510      	push	{r4, lr}
 80001a2:	4c05      	ldr	r4, [pc, #20]	@ (80001b8 <__do_global_dtors_aux+0x18>)
 80001a4:	7823      	ldrb	r3, [r4, #0]
 80001a6:	b933      	cbnz	r3, 80001b6 <__do_global_dtors_aux+0x16>
 80001a8:	4b04      	ldr	r3, [pc, #16]	@ (80001bc <__do_global_dtors_aux+0x1c>)
 80001aa:	b113      	cbz	r3, 80001b2 <__do_global_dtors_aux+0x12>
 80001ac:	4804      	ldr	r0, [pc, #16]	@ (80001c0 <__do_global_dtors_aux+0x20>)
 80001ae:	f3af 8000 	nop.w
 80001b2:	2301      	movs	r3, #1
 80001b4:	7023      	strb	r3, [r4, #0]
 80001b6:	bd10      	pop	{r4, pc}
 80001b8:	200001b0 	.word	0x200001b0
 80001bc:	00000000 	.word	0x00000000
 80001c0:	0800b6c8 	.word	0x0800b6c8

080001c4 <frame_dummy>:
 80001c4:	b508      	push	{r3, lr}
 80001c6:	4b03      	ldr	r3, [pc, #12]	@ (80001d4 <frame_dummy+0x10>)
 80001c8:	b11b      	cbz	r3, 80001d2 <frame_dummy+0xe>
 80001ca:	4903      	ldr	r1, [pc, #12]	@ (80001d8 <frame_dummy+0x14>)
 80001cc:	4803      	ldr	r0, [pc, #12]	@ (80001dc <frame_dummy+0x18>)
 80001ce:	f3af 8000 	nop.w
 80001d2:	bd08      	pop	{r3, pc}
 80001d4:	00000000 	.word	0x00000000
 80001d8:	200001b4 	.word	0x200001b4
 80001dc:	0800b6c8 	.word	0x0800b6c8

080001e0 <strcmp>:
 80001e0:	f810 2b01 	ldrb.w	r2, [r0], #1
 80001e4:	f811 3b01 	ldrb.w	r3, [r1], #1
 80001e8:	2a01      	cmp	r2, #1
 80001ea:	bf28      	it	cs
 80001ec:	429a      	cmpcs	r2, r3
 80001ee:	d0f7      	beq.n	80001e0 <strcmp>
 80001f0:	1ad0      	subs	r0, r2, r3
 80001f2:	4770      	bx	lr

080001f4 <strlen>:
 80001f4:	4603      	mov	r3, r0
 80001f6:	f813 2b01 	ldrb.w	r2, [r3], #1
 80001fa:	2a00      	cmp	r2, #0
 80001fc:	d1fb      	bne.n	80001f6 <strlen+0x2>
 80001fe:	1a18      	subs	r0, r3, r0
 8000200:	3801      	subs	r0, #1
 8000202:	4770      	bx	lr
	...

08000210 <memchr>:
 8000210:	f001 01ff 	and.w	r1, r1, #255	@ 0xff
 8000214:	2a10      	cmp	r2, #16
 8000216:	db2b      	blt.n	8000270 <memchr+0x60>
 8000218:	f010 0f07 	tst.w	r0, #7
 800021c:	d008      	beq.n	8000230 <memchr+0x20>
 800021e:	f810 3b01 	ldrb.w	r3, [r0], #1
 8000222:	3a01      	subs	r2, #1
 8000224:	428b      	cmp	r3, r1
 8000226:	d02d      	beq.n	8000284 <memchr+0x74>
 8000228:	f010 0f07 	tst.w	r0, #7
 800022c:	b342      	cbz	r2, 8000280 <memchr+0x70>
 800022e:	d1f6      	bne.n	800021e <memchr+0xe>
 8000230:	b4f0      	push	{r4, r5, r6, r7}
 8000232:	ea41 2101 	orr.w	r1, r1, r1, lsl #8
 8000236:	ea41 4101 	orr.w	r1, r1, r1, lsl #16
 800023a:	f022 0407 	bic.w	r4, r2, #7
 800023e:	f07f 0700 	mvns.w	r7, #0
 8000242:	2300      	movs	r3, #0
 8000244:	e8f0 5602 	ldrd	r5, r6, [r0], #8
 8000248:	3c08      	subs	r4, #8
 800024a:	ea85 0501 	eor.w	r5, r5, r1
 800024e:	ea86 0601 	eor.w	r6, r6, r1
 8000252:	fa85 f547 	uadd8	r5, r5, r7
 8000256:	faa3 f587 	sel	r5, r3, r7
 800025a:	fa86 f647 	uadd8	r6, r6, r7
 800025e:	faa5 f687 	sel	r6, r5, r7
 8000262:	b98e      	cbnz	r6, 8000288 <memchr+0x78>
 8000264:	d1ee      	bne.n	8000244 <memchr+0x34>
 8000266:	bcf0      	pop	{r4, r5, r6, r7}
 8000268:	f001 01ff 	and.w	r1, r1, #255	@ 0xff
 800026c:	f002 0207 	and.w	r2, r2, #7
 8000270:	b132      	cbz	r2, 8000280 <memchr+0x70>
 8000272:	f810 3b01 	ldrb.w	r3, [r0], #1
 8000276:	3a01      	subs	r2, #1
 8000278:	ea83 0301 	eor.w	r3, r3, r1
 800027c:	b113      	cbz	r3, 8000284 <memchr+0x74>
 800027e:	d1f8      	bne.n	8000272 <memchr+0x62>
 8000280:	2000      	movs	r0, #0
 8000282:	4770      	bx	lr
 8000284:	3801      	subs	r0, #1
 8000286:	4770      	bx	lr
 8000288:	2d00      	cmp	r5, #0
 800028a:	bf06      	itte	eq
 800028c:	4635      	moveq	r5, r6
 800028e:	3803      	subeq	r0, #3
 8000290:	3807      	subne	r0, #7
 8000292:	f015 0f01 	tst.w	r5, #1
 8000296:	d107      	bne.n	80002a8 <memchr+0x98>
 8000298:	3001      	adds	r0, #1
 800029a:	f415 7f80 	tst.w	r5, #256	@ 0x100
 800029e:	bf02      	ittt	eq
 80002a0:	3001      	addeq	r0, #1
 80002a2:	f415 3fc0 	tsteq.w	r5, #98304	@ 0x18000
 80002a6:	3001      	addeq	r0, #1
 80002a8:	bcf0      	pop	{r4, r5, r6, r7}
 80002aa:	3801      	subs	r0, #1
 80002ac:	4770      	bx	lr
 80002ae:	bf00      	nop

080002b0 <__aeabi_dmul>:
 80002b0:	b570      	push	{r4, r5, r6, lr}
 80002b2:	f04f 0cff 	mov.w	ip, #255	@ 0xff
 80002b6:	f44c 6ce0 	orr.w	ip, ip, #1792	@ 0x700
 80002ba:	ea1c 5411 	ands.w	r4, ip, r1, lsr #20
 80002be:	bf1d      	ittte	ne
 80002c0:	ea1c 5513 	andsne.w	r5, ip, r3, lsr #20
 80002c4:	ea94 0f0c 	teqne	r4, ip
 80002c8:	ea95 0f0c 	teqne	r5, ip
 80002cc:	f000 f8de 	bleq	800048c <__aeabi_dmul+0x1dc>
 80002d0:	442c      	add	r4, r5
 80002d2:	ea81 0603 	eor.w	r6, r1, r3
 80002d6:	ea21 514c 	bic.w	r1, r1, ip, lsl #21
 80002da:	ea23 534c 	bic.w	r3, r3, ip, lsl #21
 80002de:	ea50 3501 	orrs.w	r5, r0, r1, lsl #12
 80002e2:	bf18      	it	ne
 80002e4:	ea52 3503 	orrsne.w	r5, r2, r3, lsl #12
 80002e8:	f441 1180 	orr.w	r1, r1, #1048576	@ 0x100000
 80002ec:	f443 1380 	orr.w	r3, r3, #1048576	@ 0x100000
 80002f0:	d038      	beq.n	8000364 <__aeabi_dmul+0xb4>
 80002f2:	fba0 ce02 	umull	ip, lr, r0, r2
 80002f6:	f04f 0500 	mov.w	r5, #0
 80002fa:	fbe1 e502 	umlal	lr, r5, r1, r2
 80002fe:	f006 4200 	and.w	r2, r6, #2147483648	@ 0x80000000
 8000302:	fbe0 e503 	umlal	lr, r5, r0, r3
 8000306:	f04f 0600 	mov.w	r6, #0
 800030a:	fbe1 5603 	umlal	r5, r6, r1, r3
 800030e:	f09c 0f00 	teq	ip, #0
 8000312:	bf18      	it	ne
 8000314:	f04e 0e01 	orrne.w	lr, lr, #1
 8000318:	f1a4 04ff 	sub.w	r4, r4, #255	@ 0xff
 800031c:	f5b6 7f00 	cmp.w	r6, #512	@ 0x200
 8000320:	f564 7440 	sbc.w	r4, r4, #768	@ 0x300
 8000324:	d204      	bcs.n	8000330 <__aeabi_dmul+0x80>
 8000326:	ea5f 0e4e 	movs.w	lr, lr, lsl #1
 800032a:	416d      	adcs	r5, r5
 800032c:	eb46 0606 	adc.w	r6, r6, r6
 8000330:	ea42 21c6 	orr.w	r1, r2, r6, lsl #11
 8000334:	ea41 5155 	orr.w	r1, r1, r5, lsr #21
 8000338:	ea4f 20c5 	mov.w	r0, r5, lsl #11
 800033c:	ea40 505e 	orr.w	r0, r0, lr, lsr #21
 8000340:	ea4f 2ece 	mov.w	lr, lr, lsl #11
 8000344:	f1b4 0cfd 	subs.w	ip, r4, #253	@ 0xfd
 8000348:	bf88      	it	hi
 800034a:	f5bc 6fe0 	cmphi.w	ip, #1792	@ 0x700
 800034e:	d81e      	bhi.n	800038e <__aeabi_dmul+0xde>
 8000350:	f1be 4f00 	cmp.w	lr, #2147483648	@ 0x80000000
 8000354:	bf08      	it	eq
 8000356:	ea5f 0e50 	movseq.w	lr, r0, lsr #1
 800035a:	f150 0000 	adcs.w	r0, r0, #0
 800035e:	eb41 5104 	adc.w	r1, r1, r4, lsl #20
 8000362:	bd70      	pop	{r4, r5, r6, pc}
 8000364:	f006 4600 	and.w	r6, r6, #2147483648	@ 0x80000000
 8000368:	ea46 0101 	orr.w	r1, r6, r1
 800036c:	ea40 0002 	orr.w	r0, r0, r2
 8000370:	ea81 0103 	eor.w	r1, r1, r3
 8000374:	ebb4 045c 	subs.w	r4, r4, ip, lsr #1
 8000378:	bfc2      	ittt	gt
 800037a:	ebd4 050c 	rsbsgt	r5, r4, ip
 800037e:	ea41 5104 	orrgt.w	r1, r1, r4, lsl #20
 8000382:	bd70      	popgt	{r4, r5, r6, pc}
 8000384:	f441 1180 	orr.w	r1, r1, #1048576	@ 0x100000
 8000388:	f04f 0e00 	mov.w	lr, #0
 800038c:	3c01      	subs	r4, #1
 800038e:	f300 80ab 	bgt.w	80004e8 <__aeabi_dmul+0x238>
 8000392:	f114 0f36 	cmn.w	r4, #54	@ 0x36
 8000396:	bfde      	ittt	le
 8000398:	2000      	movle	r0, #0
 800039a:	f001 4100 	andle.w	r1, r1, #2147483648	@ 0x80000000
 800039e:	bd70      	pople	{r4, r5, r6, pc}
 80003a0:	f1c4 0400 	rsb	r4, r4, #0
 80003a4:	3c20      	subs	r4, #32
 80003a6:	da35      	bge.n	8000414 <__aeabi_dmul+0x164>
 80003a8:	340c      	adds	r4, #12
 80003aa:	dc1b      	bgt.n	80003e4 <__aeabi_dmul+0x134>
 80003ac:	f104 0414 	add.w	r4, r4, #20
 80003b0:	f1c4 0520 	rsb	r5, r4, #32
 80003b4:	fa00 f305 	lsl.w	r3, r0, r5
 80003b8:	fa20 f004 	lsr.w	r0, r0, r4
 80003bc:	fa01 f205 	lsl.w	r2, r1, r5
 80003c0:	ea40 0002 	orr.w	r0, r0, r2
 80003c4:	f001 4200 	and.w	r2, r1, #2147483648	@ 0x80000000
 80003c8:	f021 4100 	bic.w	r1, r1, #2147483648	@ 0x80000000
 80003cc:	eb10 70d3 	adds.w	r0, r0, r3, lsr #31
 80003d0:	fa21 f604 	lsr.w	r6, r1, r4
 80003d4:	eb42 0106 	adc.w	r1, r2, r6
 80003d8:	ea5e 0e43 	orrs.w	lr, lr, r3, lsl #1
 80003dc:	bf08      	it	eq
 80003de:	ea20 70d3 	biceq.w	r0, r0, r3, lsr #31
 80003e2:	bd70      	pop	{r4, r5, r6, pc}
 80003e4:	f1c4 040c 	rsb	r4, r4, #12
 80003e8:	f1c4 0520 	rsb	r5, r4, #32
 80003ec:	fa00 f304 	lsl.w	r3, r0, r4
 80003f0:	fa20 f005 	lsr.w	r0, r0, r5
 80003f4:	fa01 f204 	lsl.w	r2, r1, r4
 80003f8:	ea40 0002 	orr.w	r0, r0, r2
 80003fc:	f001 4100 	and.w	r1, r1, #2147483648	@ 0x80000000
 8000400:	eb10 70d3 	adds.w	r0, r0, r3, lsr #31
 8000404:	f141 0100 	adc.w	r1, r1, #0
 8000408:	ea5e 0e43 	orrs.w	lr, lr, r3, lsl #1
 800040c:	bf08      	it	eq
 800040e:	ea20 70d3 	biceq.w	r0, r0, r3, lsr #31
 8000412:	bd70      	pop	{r4, r5, r6, pc}
 8000414:	f1c4 0520 	rsb	r5, r4, #32
 8000418:	fa00 f205 	lsl.w	r2, r0, r5
 800041c:	ea4e 0e02 	orr.w	lr, lr, r2
 8000420:	fa20 f304 	lsr.w	r3, r0, r4
 8000424:	fa01 f205 	lsl.w	r2, r1, r5
 8000428:	ea43 0302 	orr.w	r3, r3, r2
 800042c:	fa21 f004 	lsr.w	r0, r1, r4
 8000430:	f001 4100 	and.w	r1, r1, #2147483648	@ 0x80000000
 8000434:	fa21 f204 	lsr.w	r2, r1, r4
 8000438:	ea20 0002 	bic.w	r0, r0, r2
 800043c:	eb00 70d3 	add.w	r0, r0, r3, lsr #31
 8000440:	ea5e 0e43 	orrs.w	lr, lr, r3, lsl #1
 8000444:	bf08      	it	eq
 8000446:	ea20 70d3 	biceq.w	r0, r0, r3, lsr #31
 800044a:	bd70      	pop	{r4, r5, r6, pc}
 800044c:	f094 0f00 	teq	r4, #0
 8000450:	d10f      	bne.n	8000472 <__aeabi_dmul+0x1c2>
 8000452:	f001 4600 	and.w	r6, r1, #2147483648	@ 0x80000000
 8000456:	0040      	lsls	r0, r0, #1
 8000458:	eb41 0101 	adc.w	r1, r1, r1
 800045c:	f411 1f80 	tst.w	r1, #1048576	@ 0x100000
 8000460:	bf08      	it	eq
 8000462:	3c01      	subeq	r4, #1
 8000464:	d0f7      	beq.n	8000456 <__aeabi_dmul+0x1a6>
 8000466:	ea41 0106 	orr.w	r1, r1, r6
 800046a:	f095 0f00 	teq	r5, #0
 800046e:	bf18      	it	ne
 8000470:	4770      	bxne	lr
 8000472:	f003 4600 	and.w	r6, r3, #2147483648	@ 0x80000000
 8000476:	0052      	lsls	r2, r2, #1
 8000478:	eb43 0303 	adc.w	r3, r3, r3
 800047c:	f413 1f80 	tst.w	r3, #1048576	@ 0x100000
 8000480:	bf08      	it	eq
 8000482:	3d01      	subeq	r5, #1
 8000484:	d0f7      	beq.n	8000476 <__aeabi_dmul+0x1c6>
 8000486:	ea43 0306 	orr.w	r3, r3, r6
 800048a:	4770      	bx	lr
 800048c:	ea94 0f0c 	teq	r4, ip
 8000490:	ea0c 5513 	and.w	r5, ip, r3, lsr #20
 8000494:	bf18      	it	ne
 8000496:	ea95 0f0c 	teqne	r5, ip
 800049a:	d00c      	beq.n	80004b6 <__aeabi_dmul+0x206>
 800049c:	ea50 0641 	orrs.w	r6, r0, r1, lsl #1
 80004a0:	bf18      	it	ne
 80004a2:	ea52 0643 	orrsne.w	r6, r2, r3, lsl #1
 80004a6:	d1d1      	bne.n	800044c <__aeabi_dmul+0x19c>
 80004a8:	ea81 0103 	eor.w	r1, r1, r3
 80004ac:	f001 4100 	and.w	r1, r1, #2147483648	@ 0x80000000
 80004b0:	f04f 0000 	mov.w	r0, #0
 80004b4:	bd70      	pop	{r4, r5, r6, pc}
 80004b6:	ea50 0641 	orrs.w	r6, r0, r1, lsl #1
 80004ba:	bf06      	itte	eq
 80004bc:	4610      	moveq	r0, r2
 80004be:	4619      	moveq	r1, r3
 80004c0:	ea52 0643 	orrsne.w	r6, r2, r3, lsl #1
 80004c4:	d019      	beq.n	80004fa <__aeabi_dmul+0x24a>
 80004c6:	ea94 0f0c 	teq	r4, ip
 80004ca:	d102      	bne.n	80004d2 <__aeabi_dmul+0x222>
 80004cc:	ea50 3601 	orrs.w	r6, r0, r1, lsl #12
 80004d0:	d113      	bne.n	80004fa <__aeabi_dmul+0x24a>
 80004d2:	ea95 0f0c 	teq	r5, ip
 80004d6:	d105      	bne.n	80004e4 <__aeabi_dmul+0x234>
 80004d8:	ea52 3603 	orrs.w	r6, r2, r3, lsl #12
 80004dc:	bf1c      	itt	ne
 80004de:	4610      	movne	r0, r2
 80004e0:	4619      	movne	r1, r3
 80004e2:	d10a      	bne.n	80004fa <__aeabi_dmul+0x24a>
 80004e4:	ea81 0103 	eor.w	r1, r1, r3
 80004e8:	f001 4100 	and.w	r1, r1, #2147483648	@ 0x80000000
 80004ec:	f041 41fe 	orr.w	r1, r1, #2130706432	@ 0x7f000000
 80004f0:	f441 0170 	orr.w	r1, r1, #15728640	@ 0xf00000
 80004f4:	f04f 0000 	mov.w	r0, #0
 80004f8:	bd70      	pop	{r4, r5, r6, pc}
 80004fa:	f041 41fe 	orr.w	r1, r1, #2130706432	@ 0x7f000000
 80004fe:	f441 0178 	orr.w	r1, r1, #16252928	@ 0xf80000
 8000502:	bd70      	pop	{r4, r5, r6, pc}

08000504 <__aeabi_drsub>:
 8000504:	f081 4100 	eor.w	r1, r1, #2147483648	@ 0x80000000
 8000508:	e002      	b.n	8000510 <__adddf3>
 800050a:	bf00      	nop

0800050c <__aeabi_dsub>:
 800050c:	f083 4300 	eor.w	r3, r3, #2147483648	@ 0x80000000

08000510 <__adddf3>:
 8000510:	b530      	push	{r4, r5, lr}
 8000512:	ea4f 0441 	mov.w	r4, r1, lsl #1
 8000516:	ea4f 0543 	mov.w	r5, r3, lsl #1
 800051a:	ea94 0f05 	teq	r4, r5
 800051e:	bf08      	it	eq
 8000520:	ea90 0f02 	teqeq	r0, r2
 8000524:	bf1f      	itttt	ne
 8000526:	ea54 0c00 	orrsne.w	ip, r4, r0
 800052a:	ea55 0c02 	orrsne.w	ip, r5, r2
 800052e:	ea7f 5c64 	mvnsne.w	ip, r4, asr #21
 8000532:	ea7f 5c65 	mvnsne.w	ip, r5, asr #21
 8000536:	f000 80e2 	beq.w	80006fe <__adddf3+0x1ee>
 800053a:	ea4f 5454 	mov.w	r4, r4, lsr #21
 800053e:	ebd4 5555 	rsbs	r5, r4, r5, lsr #21
 8000542:	bfb8      	it	lt
 8000544:	426d      	neglt	r5, r5
 8000546:	dd0c      	ble.n	8000562 <__adddf3+0x52>
 8000548:	442c      	add	r4, r5
 800054a:	ea80 0202 	eor.w	r2, r0, r2
 800054e:	ea81 0303 	eor.w	r3, r1, r3
 8000552:	ea82 0000 	eor.w	r0, r2, r0
 8000556:	ea83 0101 	eor.w	r1, r3, r1
 800055a:	ea80 0202 	eor.w	r2, r0, r2
 800055e:	ea81 0303 	eor.w	r3, r1, r3
 8000562:	2d36      	cmp	r5, #54	@ 0x36
 8000564:	bf88      	it	hi
 8000566:	bd30      	pophi	{r4, r5, pc}
 8000568:	f011 4f00 	tst.w	r1, #2147483648	@ 0x80000000
 800056c:	ea4f 3101 	mov.w	r1, r1, lsl #12
 8000570:	f44f 1c80 	mov.w	ip, #1048576	@ 0x100000
 8000574:	ea4c 3111 	orr.w	r1, ip, r1, lsr #12
 8000578:	d002      	beq.n	8000580 <__adddf3+0x70>
 800057a:	4240      	negs	r0, r0
 800057c:	eb61 0141 	sbc.w	r1, r1, r1, lsl #1
 8000580:	f013 4f00 	tst.w	r3, #2147483648	@ 0x80000000
 8000584:	ea4f 3303 	mov.w	r3, r3, lsl #12
 8000588:	ea4c 3313 	orr.w	r3, ip, r3, lsr #12
 800058c:	d002      	beq.n	8000594 <__adddf3+0x84>
 800058e:	4252      	negs	r2, r2
 8000590:	eb63 0343 	sbc.w	r3, r3, r3, lsl #1
 8000594:	ea94 0f05 	teq	r4, r5
 8000598:	f000 80a7 	beq.w	80006ea <__adddf3+0x1da>
 800059c:	f1a4 0401 	sub.w	r4, r4, #1
 80005a0:	f1d5 0e20 	rsbs	lr, r5, #32
 80005a4:	db0d      	blt.n	80005c2 <__adddf3+0xb2>
 80005a6:	fa02 fc0e 	lsl.w	ip, r2, lr
 80005aa:	fa22 f205 	lsr.w	r2, r2, r5
 80005ae:	1880      	adds	r0, r0, r2
 80005b0:	f141 0100 	adc.w	r1, r1, #0
 80005b4:	fa03 f20e 	lsl.w	r2, r3, lr
 80005b8:	1880      	adds	r0, r0, r2
 80005ba:	fa43 f305 	asr.w	r3, r3, r5
 80005be:	4159      	adcs	r1, r3
 80005c0:	e00e      	b.n	80005e0 <__adddf3+0xd0>
 80005c2:	f1a5 0520 	sub.w	r5, r5, #32
 80005c6:	f10e 0e20 	add.w	lr, lr, #32
 80005ca:	2a01      	cmp	r2, #1
 80005cc:	fa03 fc0e 	lsl.w	ip, r3, lr
 80005d0:	bf28      	it	cs
 80005d2:	f04c 0c02 	orrcs.w	ip, ip, #2
 80005d6:	fa43 f305 	asr.w	r3, r3, r5
 80005da:	18c0      	adds	r0, r0, r3
 80005dc:	eb51 71e3 	adcs.w	r1, r1, r3, asr #31
 80005e0:	f001 4500 	and.w	r5, r1, #2147483648	@ 0x80000000
 80005e4:	d507      	bpl.n	80005f6 <__adddf3+0xe6>
 80005e6:	f04f 0e00 	mov.w	lr, #0
 80005ea:	f1dc 0c00 	rsbs	ip, ip, #0
 80005ee:	eb7e 0000 	sbcs.w	r0, lr, r0
 80005f2:	eb6e 0101 	sbc.w	r1, lr, r1
 80005f6:	f5b1 1f80 	cmp.w	r1, #1048576	@ 0x100000
 80005fa:	d31b      	bcc.n	8000634 <__adddf3+0x124>
 80005fc:	f5b1 1f00 	cmp.w	r1, #2097152	@ 0x200000
 8000600:	d30c      	bcc.n	800061c <__adddf3+0x10c>
 8000602:	0849      	lsrs	r1, r1, #1
 8000604:	ea5f 0030 	movs.w	r0, r0, rrx
 8000608:	ea4f 0c3c 	mov.w	ip, ip, rrx
 800060c:	f104 0401 	add.w	r4, r4, #1
 8000610:	ea4f 5244 	mov.w	r2, r4, lsl #21
 8000614:	f512 0f80 	cmn.w	r2, #4194304	@ 0x400000
 8000618:	f080 809a 	bcs.w	8000750 <__adddf3+0x240>
 800061c:	f1bc 4f00 	cmp.w	ip, #2147483648	@ 0x80000000
 8000620:	bf08      	it	eq
 8000622:	ea5f 0c50 	movseq.w	ip, r0, lsr #1
 8000626:	f150 0000 	adcs.w	r0, r0, #0
 800062a:	eb41 5104 	adc.w	r1, r1, r4, lsl #20
 800062e:	ea41 0105 	orr.w	r1, r1, r5
 8000632:	bd30      	pop	{r4, r5, pc}
 8000634:	ea5f 0c4c 	movs.w	ip, ip, lsl #1
 8000638:	4140      	adcs	r0, r0
 800063a:	eb41 0101 	adc.w	r1, r1, r1
 800063e:	3c01      	subs	r4, #1
 8000640:	bf28      	it	cs
 8000642:	f5b1 1f80 	cmpcs.w	r1, #1048576	@ 0x100000
 8000646:	d2e9      	bcs.n	800061c <__adddf3+0x10c>
 8000648:	f091 0f00 	teq	r1, #0
 800064c:	bf04      	itt	eq
 800064e:	4601      	moveq	r1, r0
 8000650:	2000      	moveq	r0, #0
 8000652:	fab1 f381 	clz	r3, r1
 8000656:	bf08      	it	eq
 8000658:	3320      	addeq	r3, #32
 800065a:	f1a3 030b 	sub.w	r3, r3, #11
 800065e:	f1b3 0220 	subs.w	r2, r3, #32
 8000662:	da0c      	bge.n	800067e <__adddf3+0x16e>
 8000664:	320c      	adds	r2, #12
 8000666:	dd08      	ble.n	800067a <__adddf3+0x16a>
 8000668:	f102 0c14 	add.w	ip, r2, #20
 800066c:	f1c2 020c 	rsb	r2, r2, #12
 8000670:	fa01 f00c 	lsl.w	r0, r1, ip
 8000674:	fa21 f102 	lsr.w	r1, r1, r2
 8000678:	e00c      	b.n	8000694 <__adddf3+0x184>
 800067a:	f102 0214 	add.w	r2, r2, #20
 800067e:	bfd8      	it	le
 8000680:	f1c2 0c20 	rsble	ip, r2, #32
 8000684:	fa01 f102 	lsl.w	r1, r1, r2
 8000688:	fa20 fc0c 	lsr.w	ip, r0, ip
 800068c:	bfdc      	itt	le
 800068e:	ea41 010c 	orrle.w	r1, r1, ip
 8000692:	4090      	lslle	r0, r2
 8000694:	1ae4      	subs	r4, r4, r3
 8000696:	bfa2      	ittt	ge
 8000698:	eb01 5104 	addge.w	r1, r1, r4, lsl #20
 800069c:	4329      	orrge	r1, r5
 800069e:	bd30      	popge	{r4, r5, pc}
 80006a0:	ea6f 0404 	mvn.w	r4, r4
 80006a4:	3c1f      	subs	r4, #31
 80006a6:	da1c      	bge.n	80006e2 <__adddf3+0x1d2>
 80006a8:	340c      	adds	r4, #12
 80006aa:	dc0e      	bgt.n	80006ca <__adddf3+0x1ba>
 80006ac:	f104 0414 	add.w	r4, r4, #20
 80006b0:	f1c4 0220 	rsb	r2, r4, #32
 80006b4:	fa20 f004 	lsr.w	r0, r0, r4
 80006b8:	fa01 f302 	lsl.w	r3, r1, r2
 80006bc:	ea40 0003 	orr.w	r0, r0, r3
 80006c0:	fa21 f304 	lsr.w	r3, r1, r4
 80006c4:	ea45 0103 	orr.w	r1, r5, r3
 80006c8:	bd30      	pop	{r4, r5, pc}
 80006ca:	f1c4 040c 	rsb	r4, r4, #12
 80006ce:	f1c4 0220 	rsb	r2, r4, #32
 80006d2:	fa20 f002 	lsr.w	r0, r0, r2
 80006d6:	fa01 f304 	lsl.w	r3, r1, r4
 80006da:	ea40 0003 	orr.w	r0, r0, r3
 80006de:	4629      	mov	r1, r5
 80006e0:	bd30      	pop	{r4, r5, pc}
 80006e2:	fa21 f004 	lsr.w	r0, r1, r4
 80006e6:	4629      	mov	r1, r5
 80006e8:	bd30      	pop	{r4, r5, pc}
 80006ea:	f094 0f00 	teq	r4, #0
 80006ee:	f483 1380 	eor.w	r3, r3, #1048576	@ 0x100000
 80006f2:	bf06      	itte	eq
 80006f4:	f481 1180 	eoreq.w	r1, r1, #1048576	@ 0x100000
 80006f8:	3401      	addeq	r4, #1
 80006fa:	3d01      	subne	r5, #1
 80006fc:	e74e      	b.n	800059c <__adddf3+0x8c>
 80006fe:	ea7f 5c64 	mvns.w	ip, r4, asr #21
 8000702:	bf18      	it	ne
 8000704:	ea7f 5c65 	mvnsne.w	ip, r5, asr #21
 8000708:	d029      	beq.n	800075e <__adddf3+0x24e>
 800070a:	ea94 0f05 	teq	r4, r5
 800070e:	bf08      	it	eq
 8000710:	ea90 0f02 	teqeq	r0, r2
 8000714:	d005      	beq.n	8000722 <__adddf3+0x212>
 8000716:	ea54 0c00 	orrs.w	ip, r4, r0
 800071a:	bf04      	itt	eq
 800071c:	4619      	moveq	r1, r3
 800071e:	4610      	moveq	r0, r2
 8000720:	bd30      	pop	{r4, r5, pc}
 8000722:	ea91 0f03 	teq	r1, r3
 8000726:	bf1e      	ittt	ne
 8000728:	2100      	movne	r1, #0
 800072a:	2000      	movne	r0, #0
 800072c:	bd30      	popne	{r4, r5, pc}
 800072e:	ea5f 5c54 	movs.w	ip, r4, lsr #21
 8000732:	d105      	bne.n	8000740 <__adddf3+0x230>
 8000734:	0040      	lsls	r0, r0, #1
 8000736:	4149      	adcs	r1, r1
 8000738:	bf28      	it	cs
 800073a:	f041 4100 	orrcs.w	r1, r1, #2147483648	@ 0x80000000
 800073e:	bd30      	pop	{r4, r5, pc}
 8000740:	f514 0480 	adds.w	r4, r4, #4194304	@ 0x400000
 8000744:	bf3c      	itt	cc
 8000746:	f501 1180 	addcc.w	r1, r1, #1048576	@ 0x100000
 800074a:	bd30      	popcc	{r4, r5, pc}
 800074c:	f001 4500 	and.w	r5, r1, #2147483648	@ 0x80000000
 8000750:	f045 41fe 	orr.w	r1, r5, #2130706432	@ 0x7f000000
 8000754:	f441 0170 	orr.w	r1, r1, #15728640	@ 0xf00000
 8000758:	f04f 0000 	mov.w	r0, #0
 800075c:	bd30      	pop	{r4, r5, pc}
 800075e:	ea7f 5c64 	mvns.w	ip, r4, asr #21
 8000762:	bf1a      	itte	ne
 8000764:	4619      	movne	r1, r3
 8000766:	4610      	movne	r0, r2
 8000768:	ea7f 5c65 	mvnseq.w	ip, r5, asr #21
 800076c:	bf1c      	itt	ne
 800076e:	460b      	movne	r3, r1
 8000770:	4602      	movne	r2, r0
 8000772:	ea50 3401 	orrs.w	r4, r0, r1, lsl #12
 8000776:	bf06      	itte	eq
 8000778:	ea52 3503 	orrseq.w	r5, r2, r3, lsl #12
 800077c:	ea91 0f03 	teqeq	r1, r3
 8000780:	f441 2100 	orrne.w	r1, r1, #524288	@ 0x80000
 8000784:	bd30      	pop	{r4, r5, pc}
 8000786:	bf00      	nop

08000788 <__aeabi_ui2d>:
 8000788:	f090 0f00 	teq	r0, #0
 800078c:	bf04      	itt	eq
 800078e:	2100      	moveq	r1, #0
 8000790:	4770      	bxeq	lr
 8000792:	b530      	push	{r4, r5, lr}
 8000794:	f44f 6480 	mov.w	r4, #1024	@ 0x400
 8000798:	f104 0432 	add.w	r4, r4, #50	@ 0x32
 800079c:	f04f 0500 	mov.w	r5, #0
 80007a0:	f04f 0100 	mov.w	r1, #0
 80007a4:	e750      	b.n	8000648 <__adddf3+0x138>
 80007a6:	bf00      	nop

080007a8 <__aeabi_i2d>:
 80007a8:	f090 0f00 	teq	r0, #0
 80007ac:	bf04      	itt	eq
 80007ae:	2100      	moveq	r1, #0
 80007b0:	4770      	bxeq	lr
 80007b2:	b530      	push	{r4, r5, lr}
 80007b4:	f44f 6480 	mov.w	r4, #1024	@ 0x400
 80007b8:	f104 0432 	add.w	r4, r4, #50	@ 0x32
 80007bc:	f010 4500 	ands.w	r5, r0, #2147483648	@ 0x80000000
 80007c0:	bf48      	it	mi
 80007c2:	4240      	negmi	r0, r0
 80007c4:	f04f 0100 	mov.w	r1, #0
 80007c8:	e73e      	b.n	8000648 <__adddf3+0x138>
 80007ca:	bf00      	nop

080007cc <__aeabi_f2d>:
 80007cc:	0042      	lsls	r2, r0, #1
 80007ce:	ea4f 01e2 	mov.w	r1, r2, asr #3
 80007d2:	ea4f 0131 	mov.w	r1, r1, rrx
 80007d6:	ea4f 7002 	mov.w	r0, r2, lsl #28
 80007da:	bf1f      	itttt	ne
 80007dc:	f012 437f 	andsne.w	r3, r2, #4278190080	@ 0xff000000
 80007e0:	f093 4f7f 	teqne	r3, #4278190080	@ 0xff000000
 80007e4:	f081 5160 	eorne.w	r1, r1, #939524096	@ 0x38000000
 80007e8:	4770      	bxne	lr
 80007ea:	f032 427f 	bics.w	r2, r2, #4278190080	@ 0xff000000
 80007ee:	bf08      	it	eq
 80007f0:	4770      	bxeq	lr
 80007f2:	f093 4f7f 	teq	r3, #4278190080	@ 0xff000000
 80007f6:	bf04      	itt	eq
 80007f8:	f441 2100 	orreq.w	r1, r1, #524288	@ 0x80000
 80007fc:	4770      	bxeq	lr
 80007fe:	b530      	push	{r4, r5, lr}
 8000800:	f44f 7460 	mov.w	r4, #896	@ 0x380
 8000804:	f001 4500 	and.w	r5, r1, #2147483648	@ 0x80000000
 8000808:	f021 4100 	bic.w	r1, r1, #2147483648	@ 0x80000000
 800080c:	e71c      	b.n	8000648 <__adddf3+0x138>
 800080e:	bf00      	nop

08000810 <__aeabi_ul2d>:
 8000810:	ea50 0201 	orrs.w	r2, r0, r1
 8000814:	bf08      	it	eq
 8000816:	4770      	bxeq	lr
 8000818:	b530      	push	{r4, r5, lr}
 800081a:	f04f 0500 	mov.w	r5, #0
 800081e:	e00a      	b.n	8000836 <__aeabi_l2d+0x16>

08000820 <__aeabi_l2d>:
 8000820:	ea50 0201 	orrs.w	r2, r0, r1
 8000824:	bf08      	it	eq
 8000826:	4770      	bxeq	lr
 8000828:	b530      	push	{r4, r5, lr}
 800082a:	f011 4500 	ands.w	r5, r1, #2147483648	@ 0x80000000
 800082e:	d502      	bpl.n	8000836 <__aeabi_l2d+0x16>
 8000830:	4240      	negs	r0, r0
 8000832:	eb61 0141 	sbc.w	r1, r1, r1, lsl #1
 8000836:	f44f 6480 	mov.w	r4, #1024	@ 0x400
 800083a:	f104 0432 	add.w	r4, r4, #50	@ 0x32
 800083e:	ea5f 5c91 	movs.w	ip, r1, lsr #22
 8000842:	f43f aed8 	beq.w	80005f6 <__adddf3+0xe6>
 8000846:	f04f 0203 	mov.w	r2, #3
 800084a:	ea5f 0cdc 	movs.w	ip, ip, lsr #3
 800084e:	bf18      	it	ne
 8000850:	3203      	addne	r2, #3
 8000852:	ea5f 0cdc 	movs.w	ip, ip, lsr #3
 8000856:	bf18      	it	ne
 8000858:	3203      	addne	r2, #3
 800085a:	eb02 02dc 	add.w	r2, r2, ip, lsr #3
 800085e:	f1c2 0320 	rsb	r3, r2, #32
 8000862:	fa00 fc03 	lsl.w	ip, r0, r3
 8000866:	fa20 f002 	lsr.w	r0, r0, r2
 800086a:	fa01 fe03 	lsl.w	lr, r1, r3
 800086e:	ea40 000e 	orr.w	r0, r0, lr
 8000872:	fa21 f102 	lsr.w	r1, r1, r2
 8000876:	4414      	add	r4, r2
 8000878:	e6bd      	b.n	80005f6 <__adddf3+0xe6>
 800087a:	bf00      	nop

0800087c <__aeabi_d2f>:
 800087c:	ea4f 0241 	mov.w	r2, r1, lsl #1
 8000880:	f1b2 43e0 	subs.w	r3, r2, #1879048192	@ 0x70000000
 8000884:	bf24      	itt	cs
 8000886:	f5b3 1c00 	subscs.w	ip, r3, #2097152	@ 0x200000
 800088a:	f1dc 5cfe 	rsbscs	ip, ip, #532676608	@ 0x1fc00000
 800088e:	d90d      	bls.n	80008ac <__aeabi_d2f+0x30>
 8000890:	f001 4c00 	and.w	ip, r1, #2147483648	@ 0x80000000
 8000894:	ea4f 02c0 	mov.w	r2, r0, lsl #3
 8000898:	ea4c 7050 	orr.w	r0, ip, r0, lsr #29
 800089c:	f1b2 4f00 	cmp.w	r2, #2147483648	@ 0x80000000
 80008a0:	eb40 0083 	adc.w	r0, r0, r3, lsl #2
 80008a4:	bf08      	it	eq
 80008a6:	f020 0001 	biceq.w	r0, r0, #1
 80008aa:	4770      	bx	lr
 80008ac:	f011 4f80 	tst.w	r1, #1073741824	@ 0x40000000
 80008b0:	d121      	bne.n	80008f6 <__aeabi_d2f+0x7a>
 80008b2:	f113 7238 	adds.w	r2, r3, #48234496	@ 0x2e00000
 80008b6:	bfbc      	itt	lt
 80008b8:	f001 4000 	andlt.w	r0, r1, #2147483648	@ 0x80000000
 80008bc:	4770      	bxlt	lr
 80008be:	f441 1180 	orr.w	r1, r1, #1048576	@ 0x100000
 80008c2:	ea4f 5252 	mov.w	r2, r2, lsr #21
 80008c6:	f1c2 0218 	rsb	r2, r2, #24
 80008ca:	f1c2 0c20 	rsb	ip, r2, #32
 80008ce:	fa10 f30c 	lsls.w	r3, r0, ip
 80008d2:	fa20 f002 	lsr.w	r0, r0, r2
 80008d6:	bf18      	it	ne
 80008d8:	f040 0001 	orrne.w	r0, r0, #1
 80008dc:	ea4f 23c1 	mov.w	r3, r1, lsl #11
 80008e0:	ea4f 23d3 	mov.w	r3, r3, lsr #11
 80008e4:	fa03 fc0c 	lsl.w	ip, r3, ip
 80008e8:	ea40 000c 	orr.w	r0, r0, ip
 80008ec:	fa23 f302 	lsr.w	r3, r3, r2
 80008f0:	ea4f 0343 	mov.w	r3, r3, lsl #1
 80008f4:	e7cc      	b.n	8000890 <__aeabi_d2f+0x14>
 80008f6:	ea7f 5362 	mvns.w	r3, r2, asr #21
 80008fa:	d107      	bne.n	800090c <__aeabi_d2f+0x90>
 80008fc:	ea50 3301 	orrs.w	r3, r0, r1, lsl #12
 8000900:	bf1e      	ittt	ne
 8000902:	f04f 40fe 	movne.w	r0, #2130706432	@ 0x7f000000
 8000906:	f440 0040 	orrne.w	r0, r0, #12582912	@ 0xc00000
 800090a:	4770      	bxne	lr
 800090c:	f001 4000 	and.w	r0, r1, #2147483648	@ 0x80000000
 8000910:	f040 40fe 	orr.w	r0, r0, #2130706432	@ 0x7f000000
 8000914:	f440 0000 	orr.w	r0, r0, #8388608	@ 0x800000
 8000918:	4770      	bx	lr
 800091a:	bf00      	nop

0800091c <__aeabi_uldivmod>:
 800091c:	b953      	cbnz	r3, 8000934 <__aeabi_uldivmod+0x18>
 800091e:	b94a      	cbnz	r2, 8000934 <__aeabi_uldivmod+0x18>
 8000920:	2900      	cmp	r1, #0
 8000922:	bf08      	it	eq
 8000924:	2800      	cmpeq	r0, #0
 8000926:	bf1c      	itt	ne
 8000928:	f04f 31ff 	movne.w	r1, #4294967295
 800092c:	f04f 30ff 	movne.w	r0, #4294967295
 8000930:	f000 b988 	b.w	8000c44 <__aeabi_idiv0>
 8000934:	f1ad 0c08 	sub.w	ip, sp, #8
 8000938:	e96d ce04 	strd	ip, lr, [sp, #-16]!
 800093c:	f000 f806 	bl	800094c <__udivmoddi4>
 8000940:	f8dd e004 	ldr.w	lr, [sp, #4]
 8000944:	e9dd 2302 	ldrd	r2, r3, [sp, #8]
 8000948:	b004      	add	sp, #16
 800094a:	4770      	bx	lr

0800094c <__udivmoddi4>:
 800094c:	e92d 47f0 	stmdb	sp!, {r4, r5, r6, r7, r8, r9, sl, lr}
 8000950:	9d08      	ldr	r5, [sp, #32]
 8000952:	468e      	mov	lr, r1
 8000954:	4604      	mov	r4, r0
 8000956:	4688      	mov	r8, r1
 8000958:	2b00      	cmp	r3, #0
 800095a:	d14a      	bne.n	80009f2 <__udivmoddi4+0xa6>
 800095c:	428a      	cmp	r2, r1
 800095e:	4617      	mov	r7, r2
 8000960:	d962      	bls.n	8000a28 <__udivmoddi4+0xdc>
 8000962:	fab2 f682 	clz	r6, r2
 8000966:	b14e      	cbz	r6, 800097c <__udivmoddi4+0x30>
 8000968:	f1c6 0320 	rsb	r3, r6, #32
 800096c:	fa01 f806 	lsl.w	r8, r1, r6
 8000970:	fa20 f303 	lsr.w	r3, r0, r3
 8000974:	40b7      	lsls	r7, r6
 8000976:	ea43 0808 	orr.w	r8, r3, r8
 800097a:	40b4      	lsls	r4, r6
 800097c:	ea4f 4e17 	mov.w	lr, r7, lsr #16
 8000980:	fa1f fc87 	uxth.w	ip, r7
 8000984:	fbb8 f1fe 	udiv	r1, r8, lr
 8000988:	0c23      	lsrs	r3, r4, #16
 800098a:	fb0e 8811 	mls	r8, lr, r1, r8
 800098e:	ea43 4308 	orr.w	r3, r3, r8, lsl #16
 8000992:	fb01 f20c 	mul.w	r2, r1, ip
 8000996:	429a      	cmp	r2, r3
 8000998:	d909      	bls.n	80009ae <__udivmoddi4+0x62>
 800099a:	18fb      	adds	r3, r7, r3
 800099c:	f101 30ff 	add.w	r0, r1, #4294967295
 80009a0:	f080 80ea 	bcs.w	8000b78 <__udivmoddi4+0x22c>
 80009a4:	429a      	cmp	r2, r3
 80009a6:	f240 80e7 	bls.w	8000b78 <__udivmoddi4+0x22c>
 80009aa:	3902      	subs	r1, #2
 80009ac:	443b      	add	r3, r7
 80009ae:	1a9a      	subs	r2, r3, r2
 80009b0:	b2a3      	uxth	r3, r4
 80009b2:	fbb2 f0fe 	udiv	r0, r2, lr
 80009b6:	fb0e 2210 	mls	r2, lr, r0, r2
 80009ba:	ea43 4302 	orr.w	r3, r3, r2, lsl #16
 80009be:	fb00 fc0c 	mul.w	ip, r0, ip
 80009c2:	459c      	cmp	ip, r3
 80009c4:	d909      	bls.n	80009da <__udivmoddi4+0x8e>
 80009c6:	18fb      	adds	r3, r7, r3
 80009c8:	f100 32ff 	add.w	r2, r0, #4294967295
 80009cc:	f080 80d6 	bcs.w	8000b7c <__udivmoddi4+0x230>
 80009d0:	459c      	cmp	ip, r3
 80009d2:	f240 80d3 	bls.w	8000b7c <__udivmoddi4+0x230>
 80009d6:	443b      	add	r3, r7
 80009d8:	3802      	subs	r0, #2
 80009da:	ea40 4001 	orr.w	r0, r0, r1, lsl #16
 80009de:	eba3 030c 	sub.w	r3, r3, ip
 80009e2:	2100      	movs	r1, #0
 80009e4:	b11d      	cbz	r5, 80009ee <__udivmoddi4+0xa2>
 80009e6:	40f3      	lsrs	r3, r6
 80009e8:	2200      	movs	r2, #0
 80009ea:	e9c5 3200 	strd	r3, r2, [r5]
 80009ee:	e8bd 87f0 	ldmia.w	sp!, {r4, r5, r6, r7, r8, r9, sl, pc}
 80009f2:	428b      	cmp	r3, r1
 80009f4:	d905      	bls.n	8000a02 <__udivmoddi4+0xb6>
 80009f6:	b10d      	cbz	r5, 80009fc <__udivmoddi4+0xb0>
 80009f8:	e9c5 0100 	strd	r0, r1, [r5]
 80009fc:	2100      	movs	r1, #0
 80009fe:	4608      	mov	r0, r1
 8000a00:	e7f5      	b.n	80009ee <__udivmoddi4+0xa2>
 8000a02:	fab3 f183 	clz	r1, r3
 8000a06:	2900      	cmp	r1, #0
 8000a08:	d146      	bne.n	8000a98 <__udivmoddi4+0x14c>
 8000a0a:	4573      	cmp	r3, lr
 8000a0c:	d302      	bcc.n	8000a14 <__udivmoddi4+0xc8>
 8000a0e:	4282      	cmp	r2, r0
 8000a10:	f200 8105 	bhi.w	8000c1e <__udivmoddi4+0x2d2>
 8000a14:	1a84      	subs	r4, r0, r2
 8000a16:	eb6e 0203 	sbc.w	r2, lr, r3
 8000a1a:	2001      	movs	r0, #1
 8000a1c:	4690      	mov	r8, r2
 8000a1e:	2d00      	cmp	r5, #0
 8000a20:	d0e5      	beq.n	80009ee <__udivmoddi4+0xa2>
 8000a22:	e9c5 4800 	strd	r4, r8, [r5]
 8000a26:	e7e2      	b.n	80009ee <__udivmoddi4+0xa2>
 8000a28:	2a00      	cmp	r2, #0
 8000a2a:	f000 8090 	beq.w	8000b4e <__udivmoddi4+0x202>
 8000a2e:	fab2 f682 	clz	r6, r2
 8000a32:	2e00      	cmp	r6, #0
 8000a34:	f040 80a4 	bne.w	8000b80 <__udivmoddi4+0x234>
 8000a38:	1a8a      	subs	r2, r1, r2
 8000a3a:	0c03      	lsrs	r3, r0, #16
 8000a3c:	ea4f 4e17 	mov.w	lr, r7, lsr #16
 8000a40:	b280      	uxth	r0, r0
 8000a42:	b2bc      	uxth	r4, r7
 8000a44:	2101      	movs	r1, #1
 8000a46:	fbb2 fcfe 	udiv	ip, r2, lr
 8000a4a:	fb0e 221c 	mls	r2, lr, ip, r2
 8000a4e:	ea43 4302 	orr.w	r3, r3, r2, lsl #16
 8000a52:	fb04 f20c 	mul.w	r2, r4, ip
 8000a56:	429a      	cmp	r2, r3
 8000a58:	d907      	bls.n	8000a6a <__udivmoddi4+0x11e>
 8000a5a:	18fb      	adds	r3, r7, r3
 8000a5c:	f10c 38ff 	add.w	r8, ip, #4294967295
 8000a60:	d202      	bcs.n	8000a68 <__udivmoddi4+0x11c>
 8000a62:	429a      	cmp	r2, r3
 8000a64:	f200 80e0 	bhi.w	8000c28 <__udivmoddi4+0x2dc>
 8000a68:	46c4      	mov	ip, r8
 8000a6a:	1a9b      	subs	r3, r3, r2
 8000a6c:	fbb3 f2fe 	udiv	r2, r3, lr
 8000a70:	fb0e 3312 	mls	r3, lr, r2, r3
 8000a74:	ea40 4303 	orr.w	r3, r0, r3, lsl #16
 8000a78:	fb02 f404 	mul.w	r4, r2, r4
 8000a7c:	429c      	cmp	r4, r3
 8000a7e:	d907      	bls.n	8000a90 <__udivmoddi4+0x144>
 8000a80:	18fb      	adds	r3, r7, r3
 8000a82:	f102 30ff 	add.w	r0, r2, #4294967295
 8000a86:	d202      	bcs.n	8000a8e <__udivmoddi4+0x142>
 8000a88:	429c      	cmp	r4, r3
 8000a8a:	f200 80ca 	bhi.w	8000c22 <__udivmoddi4+0x2d6>
 8000a8e:	4602      	mov	r2, r0
 8000a90:	1b1b      	subs	r3, r3, r4
 8000a92:	ea42 400c 	orr.w	r0, r2, ip, lsl #16
 8000a96:	e7a5      	b.n	80009e4 <__udivmoddi4+0x98>
 8000a98:	f1c1 0620 	rsb	r6, r1, #32
 8000a9c:	408b      	lsls	r3, r1
 8000a9e:	fa22 f706 	lsr.w	r7, r2, r6
 8000aa2:	431f      	orrs	r7, r3
 8000aa4:	fa0e f401 	lsl.w	r4, lr, r1
 8000aa8:	fa20 f306 	lsr.w	r3, r0, r6
 8000aac:	fa2e fe06 	lsr.w	lr, lr, r6
 8000ab0:	ea4f 4917 	mov.w	r9, r7, lsr #16
 8000ab4:	4323      	orrs	r3, r4
 8000ab6:	fa00 f801 	lsl.w	r8, r0, r1
 8000aba:	fa1f fc87 	uxth.w	ip, r7
 8000abe:	fbbe f0f9 	udiv	r0, lr, r9
 8000ac2:	0c1c      	lsrs	r4, r3, #16
 8000ac4:	fb09 ee10 	mls	lr, r9, r0, lr
 8000ac8:	ea44 440e 	orr.w	r4, r4, lr, lsl #16
 8000acc:	fb00 fe0c 	mul.w	lr, r0, ip
 8000ad0:	45a6      	cmp	lr, r4
 8000ad2:	fa02 f201 	lsl.w	r2, r2, r1
 8000ad6:	d909      	bls.n	8000aec <__udivmoddi4+0x1a0>
 8000ad8:	193c      	adds	r4, r7, r4
 8000ada:	f100 3aff 	add.w	sl, r0, #4294967295
 8000ade:	f080 809c 	bcs.w	8000c1a <__udivmoddi4+0x2ce>
 8000ae2:	45a6      	cmp	lr, r4
 8000ae4:	f240 8099 	bls.w	8000c1a <__udivmoddi4+0x2ce>
 8000ae8:	3802      	subs	r0, #2
 8000aea:	443c      	add	r4, r7
 8000aec:	eba4 040e 	sub.w	r4, r4, lr
 8000af0:	fa1f fe83 	uxth.w	lr, r3
 8000af4:	fbb4 f3f9 	udiv	r3, r4, r9
 8000af8:	fb09 4413 	mls	r4, r9, r3, r4
 8000afc:	ea4e 4404 	orr.w	r4, lr, r4, lsl #16
 8000b00:	fb03 fc0c 	mul.w	ip, r3, ip
 8000b04:	45a4      	cmp	ip, r4
 8000b06:	d908      	bls.n	8000b1a <__udivmoddi4+0x1ce>
 8000b08:	193c      	adds	r4, r7, r4
 8000b0a:	f103 3eff 	add.w	lr, r3, #4294967295
 8000b0e:	f080 8082 	bcs.w	8000c16 <__udivmoddi4+0x2ca>
 8000b12:	45a4      	cmp	ip, r4
 8000b14:	d97f      	bls.n	8000c16 <__udivmoddi4+0x2ca>
 8000b16:	3b02      	subs	r3, #2
 8000b18:	443c      	add	r4, r7
 8000b1a:	ea43 4000 	orr.w	r0, r3, r0, lsl #16
 8000b1e:	eba4 040c 	sub.w	r4, r4, ip
 8000b22:	fba0 ec02 	umull	lr, ip, r0, r2
 8000b26:	4564      	cmp	r4, ip
 8000b28:	4673      	mov	r3, lr
 8000b2a:	46e1      	mov	r9, ip
 8000b2c:	d362      	bcc.n	8000bf4 <__udivmoddi4+0x2a8>
 8000b2e:	d05f      	beq.n	8000bf0 <__udivmoddi4+0x2a4>
 8000b30:	b15d      	cbz	r5, 8000b4a <__udivmoddi4+0x1fe>
 8000b32:	ebb8 0203 	subs.w	r2, r8, r3
 8000b36:	eb64 0409 	sbc.w	r4, r4, r9
 8000b3a:	fa04 f606 	lsl.w	r6, r4, r6
 8000b3e:	fa22 f301 	lsr.w	r3, r2, r1
 8000b42:	431e      	orrs	r6, r3
 8000b44:	40cc      	lsrs	r4, r1
 8000b46:	e9c5 6400 	strd	r6, r4, [r5]
 8000b4a:	2100      	movs	r1, #0
 8000b4c:	e74f      	b.n	80009ee <__udivmoddi4+0xa2>
 8000b4e:	fbb1 fcf2 	udiv	ip, r1, r2
 8000b52:	0c01      	lsrs	r1, r0, #16
 8000b54:	ea41 410e 	orr.w	r1, r1, lr, lsl #16
 8000b58:	b280      	uxth	r0, r0
 8000b5a:	ea40 4201 	orr.w	r2, r0, r1, lsl #16
 8000b5e:	463b      	mov	r3, r7
 8000b60:	4638      	mov	r0, r7
 8000b62:	463c      	mov	r4, r7
 8000b64:	46b8      	mov	r8, r7
 8000b66:	46be      	mov	lr, r7
 8000b68:	2620      	movs	r6, #32
 8000b6a:	fbb1 f1f7 	udiv	r1, r1, r7
 8000b6e:	eba2 0208 	sub.w	r2, r2, r8
 8000b72:	ea41 410c 	orr.w	r1, r1, ip, lsl #16
 8000b76:	e766      	b.n	8000a46 <__udivmoddi4+0xfa>
 8000b78:	4601      	mov	r1, r0
 8000b7a:	e718      	b.n	80009ae <__udivmoddi4+0x62>
 8000b7c:	4610      	mov	r0, r2
 8000b7e:	e72c      	b.n	80009da <__udivmoddi4+0x8e>
 8000b80:	f1c6 0220 	rsb	r2, r6, #32
 8000b84:	fa2e f302 	lsr.w	r3, lr, r2
 8000b88:	40b7      	lsls	r7, r6
 8000b8a:	40b1      	lsls	r1, r6
 8000b8c:	fa20 f202 	lsr.w	r2, r0, r2
 8000b90:	ea4f 4e17 	mov.w	lr, r7, lsr #16
 8000b94:	430a      	orrs	r2, r1
 8000b96:	fbb3 f8fe 	udiv	r8, r3, lr
 8000b9a:	b2bc      	uxth	r4, r7
 8000b9c:	fb0e 3318 	mls	r3, lr, r8, r3
 8000ba0:	0c11      	lsrs	r1, r2, #16
 8000ba2:	ea41 4103 	orr.w	r1, r1, r3, lsl #16
 8000ba6:	fb08 f904 	mul.w	r9, r8, r4
 8000baa:	40b0      	lsls	r0, r6
 8000bac:	4589      	cmp	r9, r1
 8000bae:	ea4f 4310 	mov.w	r3, r0, lsr #16
 8000bb2:	b280      	uxth	r0, r0
 8000bb4:	d93e      	bls.n	8000c34 <__udivmoddi4+0x2e8>
 8000bb6:	1879      	adds	r1, r7, r1
 8000bb8:	f108 3cff 	add.w	ip, r8, #4294967295
 8000bbc:	d201      	bcs.n	8000bc2 <__udivmoddi4+0x276>
 8000bbe:	4589      	cmp	r9, r1
 8000bc0:	d81f      	bhi.n	8000c02 <__udivmoddi4+0x2b6>
 8000bc2:	eba1 0109 	sub.w	r1, r1, r9
 8000bc6:	fbb1 f9fe 	udiv	r9, r1, lr
 8000bca:	fb09 f804 	mul.w	r8, r9, r4
 8000bce:	fb0e 1119 	mls	r1, lr, r9, r1
 8000bd2:	b292      	uxth	r2, r2
 8000bd4:	ea42 4201 	orr.w	r2, r2, r1, lsl #16
 8000bd8:	4542      	cmp	r2, r8
 8000bda:	d229      	bcs.n	8000c30 <__udivmoddi4+0x2e4>
 8000bdc:	18ba      	adds	r2, r7, r2
 8000bde:	f109 31ff 	add.w	r1, r9, #4294967295
 8000be2:	d2c4      	bcs.n	8000b6e <__udivmoddi4+0x222>
 8000be4:	4542      	cmp	r2, r8
 8000be6:	d2c2      	bcs.n	8000b6e <__udivmoddi4+0x222>
 8000be8:	f1a9 0102 	sub.w	r1, r9, #2
 8000bec:	443a      	add	r2, r7
 8000bee:	e7be      	b.n	8000b6e <__udivmoddi4+0x222>
 8000bf0:	45f0      	cmp	r8, lr
 8000bf2:	d29d      	bcs.n	8000b30 <__udivmoddi4+0x1e4>
 8000bf4:	ebbe 0302 	subs.w	r3, lr, r2
 8000bf8:	eb6c 0c07 	sbc.w	ip, ip, r7
 8000bfc:	3801      	subs	r0, #1
 8000bfe:	46e1      	mov	r9, ip
 8000c00:	e796      	b.n	8000b30 <__udivmoddi4+0x1e4>
 8000c02:	eba7 0909 	sub.w	r9, r7, r9
 8000c06:	4449      	add	r1, r9
 8000c08:	f1a8 0c02 	sub.w	ip, r8, #2
 8000c0c:	fbb1 f9fe 	udiv	r9, r1, lr
 8000c10:	fb09 f804 	mul.w	r8, r9, r4
 8000c14:	e7db      	b.n	8000bce <__udivmoddi4+0x282>
 8000c16:	4673      	mov	r3, lr
 8000c18:	e77f      	b.n	8000b1a <__udivmoddi4+0x1ce>
 8000c1a:	4650      	mov	r0, sl
 8000c1c:	e766      	b.n	8000aec <__udivmoddi4+0x1a0>
 8000c1e:	4608      	mov	r0, r1
 8000c20:	e6fd      	b.n	8000a1e <__udivmoddi4+0xd2>
 8000c22:	443b      	add	r3, r7
 8000c24:	3a02      	subs	r2, #2
 8000c26:	e733      	b.n	8000a90 <__udivmoddi4+0x144>
 8000c28:	f1ac 0c02 	sub.w	ip, ip, #2
 8000c2c:	443b      	add	r3, r7
 8000c2e:	e71c      	b.n	8000a6a <__udivmoddi4+0x11e>
 8000c30:	4649      	mov	r1, r9
 8000c32:	e79c      	b.n	8000b6e <__udivmoddi4+0x222>
 8000c34:	eba1 0109 	sub.w	r1, r1, r9
 8000c38:	46c4      	mov	ip, r8
 8000c3a:	fbb1 f9fe 	udiv	r9, r1, lr
 8000c3e:	fb09 f804 	mul.w	r8, r9, r4
 8000c42:	e7c4      	b.n	8000bce <__udivmoddi4+0x282>

08000c44 <__aeabi_idiv0>:
 8000c44:	4770      	bx	lr
 8000c46:	bf00      	nop

08000c48 <ESP01StrToBufTX>:
 8000c48:	490a      	ldr	r1, [pc, #40]	@ (8000c74 <ESP01StrToBufTX+0x2c>)
 8000c4a:	b530      	push	{r4, r5, lr}
 8000c4c:	880b      	ldrh	r3, [r1, #0]
 8000c4e:	4d0a      	ldr	r5, [pc, #40]	@ (8000c78 <ESP01StrToBufTX+0x30>)
 8000c50:	3801      	subs	r0, #1
 8000c52:	2200      	movs	r2, #0
 8000c54:	f810 4f01 	ldrb.w	r4, [r0, #1]!
 8000c58:	b914      	cbnz	r4, 8000c60 <ESP01StrToBufTX+0x18>
 8000c5a:	b102      	cbz	r2, 8000c5e <ESP01StrToBufTX+0x16>
 8000c5c:	800b      	strh	r3, [r1, #0]
 8000c5e:	bd30      	pop	{r4, r5, pc}
 8000c60:	1c5a      	adds	r2, r3, #1
 8000c62:	b292      	uxth	r2, r2
 8000c64:	f5b2 7f80 	cmp.w	r2, #256	@ 0x100
 8000c68:	54ec      	strb	r4, [r5, r3]
 8000c6a:	bf14      	ite	ne
 8000c6c:	4613      	movne	r3, r2
 8000c6e:	2300      	moveq	r3, #0
 8000c70:	2201      	movs	r2, #1
 8000c72:	e7ef      	b.n	8000c54 <ESP01StrToBufTX+0xc>
 8000c74:	200001f2 	.word	0x200001f2
 8000c78:	200001fa 	.word	0x200001fa

08000c7c <ESP01ByteToBufTX>:
 8000c7c:	4a06      	ldr	r2, [pc, #24]	@ (8000c98 <ESP01ByteToBufTX+0x1c>)
 8000c7e:	8811      	ldrh	r1, [r2, #0]
 8000c80:	b510      	push	{r4, lr}
 8000c82:	1c4b      	adds	r3, r1, #1
 8000c84:	4c05      	ldr	r4, [pc, #20]	@ (8000c9c <ESP01ByteToBufTX+0x20>)
 8000c86:	b29b      	uxth	r3, r3
 8000c88:	f5b3 7f80 	cmp.w	r3, #256	@ 0x100
 8000c8c:	5460      	strb	r0, [r4, r1]
 8000c8e:	8013      	strh	r3, [r2, #0]
 8000c90:	bf04      	itt	eq
 8000c92:	2300      	moveq	r3, #0
 8000c94:	8013      	strheq	r3, [r2, #0]
 8000c96:	bd10      	pop	{r4, pc}
 8000c98:	200001f2 	.word	0x200001f2
 8000c9c:	200001fa 	.word	0x200001fa

08000ca0 <ESP01_SetWIFI>:
 8000ca0:	4a07      	ldr	r2, [pc, #28]	@ (8000cc0 <ESP01_SetWIFI+0x20>)
 8000ca2:	2300      	movs	r3, #0
 8000ca4:	7013      	strb	r3, [r2, #0]
 8000ca6:	4a07      	ldr	r2, [pc, #28]	@ (8000cc4 <ESP01_SetWIFI+0x24>)
 8000ca8:	6010      	str	r0, [r2, #0]
 8000caa:	4a07      	ldr	r2, [pc, #28]	@ (8000cc8 <ESP01_SetWIFI+0x28>)
 8000cac:	6011      	str	r1, [r2, #0]
 8000cae:	4a07      	ldr	r2, [pc, #28]	@ (8000ccc <ESP01_SetWIFI+0x2c>)
 8000cb0:	2132      	movs	r1, #50	@ 0x32
 8000cb2:	6011      	str	r1, [r2, #0]
 8000cb4:	4a06      	ldr	r2, [pc, #24]	@ (8000cd0 <ESP01_SetWIFI+0x30>)
 8000cb6:	2111      	movs	r1, #17
 8000cb8:	7011      	strb	r1, [r2, #0]
 8000cba:	4a06      	ldr	r2, [pc, #24]	@ (8000cd4 <ESP01_SetWIFI+0x34>)
 8000cbc:	7013      	strb	r3, [r2, #0]
 8000cbe:	4770      	bx	lr
 8000cc0:	200003bc 	.word	0x200003bc
 8000cc4:	200003a4 	.word	0x200003a4
 8000cc8:	200003a0 	.word	0x200003a0
 8000ccc:	200003b8 	.word	0x200003b8
 8000cd0:	200003bd 	.word	0x200003bd
 8000cd4:	200001f0 	.word	0x200001f0

08000cd8 <ESP01_StartUDP>:
 8000cd8:	b570      	push	{r4, r5, r6, lr}
 8000cda:	b09c      	sub	sp, #112	@ 0x70
 8000cdc:	460b      	mov	r3, r1
 8000cde:	9200      	str	r2, [sp, #0]
 8000ce0:	4606      	mov	r6, r0
 8000ce2:	460d      	mov	r5, r1
 8000ce4:	4614      	mov	r4, r2
 8000ce6:	491b      	ldr	r1, [pc, #108]	@ (8000d54 <ESP01_StartUDP+0x7c>)
 8000ce8:	4602      	mov	r2, r0
 8000cea:	a803      	add	r0, sp, #12
 8000cec:	f009 fec6 	bl	800aa7c <siprintf>
 8000cf0:	4b19      	ldr	r3, [pc, #100]	@ (8000d58 <ESP01_StartUDP+0x80>)
 8000cf2:	a803      	add	r0, sp, #12
 8000cf4:	681b      	ldr	r3, [r3, #0]
 8000cf6:	4798      	blx	r3
 8000cf8:	4b18      	ldr	r3, [pc, #96]	@ (8000d5c <ESP01_StartUDP+0x84>)
 8000cfa:	685b      	ldr	r3, [r3, #4]
 8000cfc:	b32b      	cbz	r3, 8000d4a <ESP01_StartUDP+0x72>
 8000cfe:	f247 5330 	movw	r3, #30000	@ 0x7530
 8000d02:	4917      	ldr	r1, [pc, #92]	@ (8000d60 <ESP01_StartUDP+0x88>)
 8000d04:	4817      	ldr	r0, [pc, #92]	@ (8000d64 <ESP01_StartUDP+0x8c>)
 8000d06:	2c00      	cmp	r4, #0
 8000d08:	bf08      	it	eq
 8000d0a:	461c      	moveq	r4, r3
 8000d0c:	f009 ff0c 	bl	800ab28 <strcpy>
 8000d10:	4b15      	ldr	r3, [pc, #84]	@ (8000d68 <ESP01_StartUDP+0x90>)
 8000d12:	4916      	ldr	r1, [pc, #88]	@ (8000d6c <ESP01_StartUDP+0x94>)
 8000d14:	2200      	movs	r2, #0
 8000d16:	701a      	strb	r2, [r3, #0]
 8000d18:	4b15      	ldr	r3, [pc, #84]	@ (8000d70 <ESP01_StartUDP+0x98>)
 8000d1a:	220a      	movs	r2, #10
 8000d1c:	4628      	mov	r0, r5
 8000d1e:	601e      	str	r6, [r3, #0]
 8000d20:	f009 fe32 	bl	800a988 <itoa>
 8000d24:	4913      	ldr	r1, [pc, #76]	@ (8000d74 <ESP01_StartUDP+0x9c>)
 8000d26:	220a      	movs	r2, #10
 8000d28:	4620      	mov	r0, r4
 8000d2a:	f009 fe2d 	bl	800a988 <itoa>
 8000d2e:	4b12      	ldr	r3, [pc, #72]	@ (8000d78 <ESP01_StartUDP+0xa0>)
 8000d30:	681b      	ldr	r3, [r3, #0]
 8000d32:	b16b      	cbz	r3, 8000d50 <ESP01_StartUDP+0x78>
 8000d34:	4b11      	ldr	r3, [pc, #68]	@ (8000d7c <ESP01_StartUDP+0xa4>)
 8000d36:	7818      	ldrb	r0, [r3, #0]
 8000d38:	f010 0002 	ands.w	r0, r0, #2
 8000d3c:	d003      	beq.n	8000d46 <ESP01_StartUDP+0x6e>
 8000d3e:	4b10      	ldr	r3, [pc, #64]	@ (8000d80 <ESP01_StartUDP+0xa8>)
 8000d40:	220f      	movs	r2, #15
 8000d42:	701a      	strb	r2, [r3, #0]
 8000d44:	2007      	movs	r0, #7
 8000d46:	b01c      	add	sp, #112	@ 0x70
 8000d48:	bd70      	pop	{r4, r5, r6, pc}
 8000d4a:	f04f 30ff 	mov.w	r0, #4294967295
 8000d4e:	e7fa      	b.n	8000d46 <ESP01_StartUDP+0x6e>
 8000d50:	2002      	movs	r0, #2
 8000d52:	e7f8      	b.n	8000d46 <ESP01_StartUDP+0x6e>
 8000d54:	0800b6f8 	.word	0x0800b6f8
 8000d58:	200003a8 	.word	0x200003a8
 8000d5c:	200001dc 	.word	0x200001dc
 8000d60:	0800b737 	.word	0x0800b737
 8000d64:	20000000 	.word	0x20000000
 8000d68:	200001d4 	.word	0x200001d4
 8000d6c:	20000393 	.word	0x20000393
 8000d70:	2000039c 	.word	0x2000039c
 8000d74:	2000037d 	.word	0x2000037d
 8000d78:	200003a4 	.word	0x200003a4
 8000d7c:	200003bc 	.word	0x200003bc
 8000d80:	200003bd 	.word	0x200003bd

08000d84 <onESP01StateChange>:
 8000d84:	2806      	cmp	r0, #6
 8000d86:	b510      	push	{r4, lr}
 8000d88:	d058      	beq.n	8000e3c <onESP01StateChange+0xb8>
 8000d8a:	2808      	cmp	r0, #8
 8000d8c:	d00a      	beq.n	8000da4 <onESP01StateChange+0x20>
 8000d8e:	2805      	cmp	r0, #5
 8000d90:	d15c      	bne.n	8000e4c <onESP01StateChange+0xc8>
 8000d92:	e8bd 4010 	ldmia.w	sp!, {r4, lr}
 8000d96:	482e      	ldr	r0, [pc, #184]	@ (8000e50 <onESP01StateChange+0xcc>)
 8000d98:	f247 5230 	movw	r2, #30000	@ 0x7530
 8000d9c:	f247 513a 	movw	r1, #30010	@ 0x753a
 8000da0:	f7ff bf9a 	b.w	8000cd8 <ESP01_StartUDP>
 8000da4:	4c2b      	ldr	r4, [pc, #172]	@ (8000e54 <onESP01StateChange+0xd0>)
 8000da6:	7823      	ldrb	r3, [r4, #0]
 8000da8:	2b00      	cmp	r3, #0
 8000daa:	d14f      	bne.n	8000e4c <onESP01StateChange+0xc8>
 8000dac:	492a      	ldr	r1, [pc, #168]	@ (8000e58 <onESP01StateChange+0xd4>)
 8000dae:	482b      	ldr	r0, [pc, #172]	@ (8000e5c <onESP01StateChange+0xd8>)
 8000db0:	f7ff fa16 	bl	80001e0 <strcmp>
 8000db4:	2800      	cmp	r0, #0
 8000db6:	d149      	bne.n	8000e4c <onESP01StateChange+0xc8>
 8000db8:	2301      	movs	r3, #1
 8000dba:	7023      	strb	r3, [r4, #0]
 8000dbc:	4c28      	ldr	r4, [pc, #160]	@ (8000e60 <onESP01StateChange+0xdc>)
 8000dbe:	7020      	strb	r0, [r4, #0]
 8000dc0:	f003 fdb0 	bl	8004924 <HAL_GetTick>
 8000dc4:	4b27      	ldr	r3, [pc, #156]	@ (8000e64 <onESP01StateChange+0xe0>)
 8000dc6:	6018      	str	r0, [r3, #0]
 8000dc8:	4827      	ldr	r0, [pc, #156]	@ (8000e68 <onESP01StateChange+0xe4>)
 8000dca:	f001 fff6 	bl	8002dba <USB_DebugStr>
 8000dce:	f001 fd75 	bl	80028bc <UNER_SendAlive>
 8000dd2:	7823      	ldrb	r3, [r4, #0]
 8000dd4:	4825      	ldr	r0, [pc, #148]	@ (8000e6c <onESP01StateChange+0xe8>)
 8000dd6:	2bff      	cmp	r3, #255	@ 0xff
 8000dd8:	bf1c      	itt	ne
 8000dda:	3301      	addne	r3, #1
 8000ddc:	7023      	strbne	r3, [r4, #0]
 8000dde:	4c24      	ldr	r4, [pc, #144]	@ (8000e70 <onESP01StateChange+0xec>)
 8000de0:	f7ff ff32 	bl	8000c48 <ESP01StrToBufTX>
 8000de4:	6823      	ldr	r3, [r4, #0]
 8000de6:	4823      	ldr	r0, [pc, #140]	@ (8000e74 <onESP01StateChange+0xf0>)
 8000de8:	4798      	blx	r3
 8000dea:	6823      	ldr	r3, [r4, #0]
 8000dec:	4822      	ldr	r0, [pc, #136]	@ (8000e78 <onESP01StateChange+0xf4>)
 8000dee:	4798      	blx	r3
 8000df0:	4a22      	ldr	r2, [pc, #136]	@ (8000e7c <onESP01StateChange+0xf8>)
 8000df2:	6823      	ldr	r3, [r4, #0]
 8000df4:	6810      	ldr	r0, [r2, #0]
 8000df6:	4798      	blx	r3
 8000df8:	6823      	ldr	r3, [r4, #0]
 8000dfa:	4821      	ldr	r0, [pc, #132]	@ (8000e80 <onESP01StateChange+0xfc>)
 8000dfc:	4798      	blx	r3
 8000dfe:	6823      	ldr	r3, [r4, #0]
 8000e00:	4820      	ldr	r0, [pc, #128]	@ (8000e84 <onESP01StateChange+0x100>)
 8000e02:	4798      	blx	r3
 8000e04:	4a20      	ldr	r2, [pc, #128]	@ (8000e88 <onESP01StateChange+0x104>)
 8000e06:	6823      	ldr	r3, [r4, #0]
 8000e08:	6810      	ldr	r0, [r2, #0]
 8000e0a:	4798      	blx	r3
 8000e0c:	6823      	ldr	r3, [r4, #0]
 8000e0e:	481c      	ldr	r0, [pc, #112]	@ (8000e80 <onESP01StateChange+0xfc>)
 8000e10:	4798      	blx	r3
 8000e12:	6823      	ldr	r3, [r4, #0]
 8000e14:	481d      	ldr	r0, [pc, #116]	@ (8000e8c <onESP01StateChange+0x108>)
 8000e16:	4798      	blx	r3
 8000e18:	4a1d      	ldr	r2, [pc, #116]	@ (8000e90 <onESP01StateChange+0x10c>)
 8000e1a:	6823      	ldr	r3, [r4, #0]
 8000e1c:	6810      	ldr	r0, [r2, #0]
 8000e1e:	4798      	blx	r3
 8000e20:	6823      	ldr	r3, [r4, #0]
 8000e22:	4817      	ldr	r0, [pc, #92]	@ (8000e80 <onESP01StateChange+0xfc>)
 8000e24:	4798      	blx	r3
 8000e26:	6823      	ldr	r3, [r4, #0]
 8000e28:	481a      	ldr	r0, [pc, #104]	@ (8000e94 <onESP01StateChange+0x110>)
 8000e2a:	4798      	blx	r3
 8000e2c:	6823      	ldr	r3, [r4, #0]
 8000e2e:	481a      	ldr	r0, [pc, #104]	@ (8000e98 <onESP01StateChange+0x114>)
 8000e30:	4798      	blx	r3
 8000e32:	6823      	ldr	r3, [r4, #0]
 8000e34:	4812      	ldr	r0, [pc, #72]	@ (8000e80 <onESP01StateChange+0xfc>)
 8000e36:	e8bd 4010 	ldmia.w	sp!, {r4, lr}
 8000e3a:	4718      	bx	r3
 8000e3c:	4b05      	ldr	r3, [pc, #20]	@ (8000e54 <onESP01StateChange+0xd0>)
 8000e3e:	4817      	ldr	r0, [pc, #92]	@ (8000e9c <onESP01StateChange+0x118>)
 8000e40:	2200      	movs	r2, #0
 8000e42:	701a      	strb	r2, [r3, #0]
 8000e44:	e8bd 4010 	ldmia.w	sp!, {r4, lr}
 8000e48:	f001 bfb7 	b.w	8002dba <USB_DebugStr>
 8000e4c:	bd10      	pop	{r4, pc}
 8000e4e:	bf00      	nop
 8000e50:	0800b73b 	.word	0x0800b73b
 8000e54:	200001d4 	.word	0x200001d4
 8000e58:	0800b737 	.word	0x0800b737
 8000e5c:	20000000 	.word	0x20000000
 8000e60:	200003be 	.word	0x200003be
 8000e64:	200001d0 	.word	0x200001d0
 8000e68:	0800b74b 	.word	0x0800b74b
 8000e6c:	0800b762 	.word	0x0800b762
 8000e70:	200003a8 	.word	0x200003a8
 8000e74:	0800b771 	.word	0x0800b771
 8000e78:	0800b78a 	.word	0x0800b78a
 8000e7c:	200003a4 	.word	0x200003a4
 8000e80:	0800bac5 	.word	0x0800bac5
 8000e84:	0800b791 	.word	0x0800b791
 8000e88:	200003a0 	.word	0x200003a0
 8000e8c:	0800b79c 	.word	0x0800b79c
 8000e90:	2000039c 	.word	0x2000039c
 8000e94:	0800b7a8 	.word	0x0800b7a8
 8000e98:	20000393 	.word	0x20000393
 8000e9c:	0800b7b6 	.word	0x0800b7b6

08000ea0 <ESP01_StateUDPTCP>:
 8000ea0:	4b06      	ldr	r3, [pc, #24]	@ (8000ebc <ESP01_StateUDPTCP+0x1c>)
 8000ea2:	685b      	ldr	r3, [r3, #4]
 8000ea4:	b13b      	cbz	r3, 8000eb6 <ESP01_StateUDPTCP+0x16>
 8000ea6:	4b06      	ldr	r3, [pc, #24]	@ (8000ec0 <ESP01_StateUDPTCP+0x20>)
 8000ea8:	781b      	ldrb	r3, [r3, #0]
 8000eaa:	f013 0f40 	tst.w	r3, #64	@ 0x40
 8000eae:	bf0c      	ite	eq
 8000eb0:	2006      	moveq	r0, #6
 8000eb2:	2008      	movne	r0, #8
 8000eb4:	4770      	bx	lr
 8000eb6:	f04f 30ff 	mov.w	r0, #4294967295
 8000eba:	4770      	bx	lr
 8000ebc:	200001dc 	.word	0x200001dc
 8000ec0:	200003bc 	.word	0x200003bc

08000ec4 <ESP01_WriteRX>:
 8000ec4:	4b07      	ldr	r3, [pc, #28]	@ (8000ee4 <ESP01_WriteRX+0x20>)
 8000ec6:	689b      	ldr	r3, [r3, #8]
 8000ec8:	b510      	push	{r4, lr}
 8000eca:	b153      	cbz	r3, 8000ee2 <ESP01_WriteRX+0x1e>
 8000ecc:	4a06      	ldr	r2, [pc, #24]	@ (8000ee8 <ESP01_WriteRX+0x24>)
 8000ece:	4c07      	ldr	r4, [pc, #28]	@ (8000eec <ESP01_WriteRX+0x28>)
 8000ed0:	8811      	ldrh	r1, [r2, #0]
 8000ed2:	1c4b      	adds	r3, r1, #1
 8000ed4:	b29b      	uxth	r3, r3
 8000ed6:	2b80      	cmp	r3, #128	@ 0x80
 8000ed8:	8013      	strh	r3, [r2, #0]
 8000eda:	5460      	strb	r0, [r4, r1]
 8000edc:	bf04      	itt	eq
 8000ede:	2300      	moveq	r3, #0
 8000ee0:	8013      	strheq	r3, [r2, #0]
 8000ee2:	bd10      	pop	{r4, pc}
 8000ee4:	200001dc 	.word	0x200001dc
 8000ee8:	200001f8 	.word	0x200001f8
 8000eec:	200002fa 	.word	0x200002fa

08000ef0 <ESP01_Send>:
 8000ef0:	e92d 47ff 	stmdb	sp!, {r0, r1, r2, r3, r4, r5, r6, r7, r8, r9, sl, lr}
 8000ef4:	469a      	mov	sl, r3
 8000ef6:	4b33      	ldr	r3, [pc, #204]	@ (8000fc4 <ESP01_Send+0xd4>)
 8000ef8:	685b      	ldr	r3, [r3, #4]
 8000efa:	4681      	mov	r9, r0
 8000efc:	460e      	mov	r6, r1
 8000efe:	4617      	mov	r7, r2
 8000f00:	2b00      	cmp	r3, #0
 8000f02:	d05a      	beq.n	8000fba <ESP01_Send+0xca>
 8000f04:	f8df 80e0 	ldr.w	r8, [pc, #224]	@ 8000fe8 <ESP01_Send+0xf8>
 8000f08:	f898 4000 	ldrb.w	r4, [r8]
 8000f0c:	0663      	lsls	r3, r4, #25
 8000f0e:	d557      	bpl.n	8000fc0 <ESP01_Send+0xd0>
 8000f10:	f014 0408 	ands.w	r4, r4, #8
 8000f14:	d149      	bne.n	8000faa <ESP01_Send+0xba>
 8000f16:	220a      	movs	r2, #10
 8000f18:	a901      	add	r1, sp, #4
 8000f1a:	4638      	mov	r0, r7
 8000f1c:	f009 fd34 	bl	800a988 <itoa>
 8000f20:	a801      	add	r0, sp, #4
 8000f22:	f7ff f967 	bl	80001f4 <strlen>
 8000f26:	3801      	subs	r0, #1
 8000f28:	b2c0      	uxtb	r0, r0
 8000f2a:	2803      	cmp	r0, #3
 8000f2c:	d83b      	bhi.n	8000fa6 <ESP01_Send+0xb6>
 8000f2e:	4826      	ldr	r0, [pc, #152]	@ (8000fc8 <ESP01_Send+0xd8>)
 8000f30:	f7ff fe8a 	bl	8000c48 <ESP01StrToBufTX>
 8000f34:	a801      	add	r0, sp, #4
 8000f36:	f7ff fe87 	bl	8000c48 <ESP01StrToBufTX>
 8000f3a:	4824      	ldr	r0, [pc, #144]	@ (8000fcc <ESP01_Send+0xdc>)
 8000f3c:	f7ff fe84 	bl	8000c48 <ESP01StrToBufTX>
 8000f40:	4923      	ldr	r1, [pc, #140]	@ (8000fd0 <ESP01_Send+0xe0>)
 8000f42:	4824      	ldr	r0, [pc, #144]	@ (8000fd4 <ESP01_Send+0xe4>)
 8000f44:	880b      	ldrh	r3, [r1, #0]
 8000f46:	4622      	mov	r2, r4
 8000f48:	b2a5      	uxth	r5, r4
 8000f4a:	42af      	cmp	r7, r5
 8000f4c:	d818      	bhi.n	8000f80 <ESP01_Send+0x90>
 8000f4e:	b102      	cbz	r2, 8000f52 <ESP01_Send+0x62>
 8000f50:	800b      	strh	r3, [r1, #0]
 8000f52:	f898 3000 	ldrb.w	r3, [r8]
 8000f56:	4c20      	ldr	r4, [pc, #128]	@ (8000fd8 <ESP01_Send+0xe8>)
 8000f58:	f023 030c 	bic.w	r3, r3, #12
 8000f5c:	f043 030c 	orr.w	r3, r3, #12
 8000f60:	f888 3000 	strb.w	r3, [r8]
 8000f64:	6823      	ldr	r3, [r4, #0]
 8000f66:	b13b      	cbz	r3, 8000f78 <ESP01_Send+0x88>
 8000f68:	481c      	ldr	r0, [pc, #112]	@ (8000fdc <ESP01_Send+0xec>)
 8000f6a:	4798      	blx	r3
 8000f6c:	6823      	ldr	r3, [r4, #0]
 8000f6e:	a801      	add	r0, sp, #4
 8000f70:	4798      	blx	r3
 8000f72:	6823      	ldr	r3, [r4, #0]
 8000f74:	481a      	ldr	r0, [pc, #104]	@ (8000fe0 <ESP01_Send+0xf0>)
 8000f76:	4798      	blx	r3
 8000f78:	200a      	movs	r0, #10
 8000f7a:	b004      	add	sp, #16
 8000f7c:	e8bd 87f0 	ldmia.w	sp!, {r4, r5, r6, r7, r8, r9, sl, pc}
 8000f80:	1c5d      	adds	r5, r3, #1
 8000f82:	b2ad      	uxth	r5, r5
 8000f84:	1c72      	adds	r2, r6, #1
 8000f86:	f5b5 7f80 	cmp.w	r5, #256	@ 0x100
 8000f8a:	f819 6006 	ldrb.w	r6, [r9, r6]
 8000f8e:	54c6      	strb	r6, [r0, r3]
 8000f90:	b292      	uxth	r2, r2
 8000f92:	bf08      	it	eq
 8000f94:	2500      	moveq	r5, #0
 8000f96:	3401      	adds	r4, #1
 8000f98:	4552      	cmp	r2, sl
 8000f9a:	bf14      	ite	ne
 8000f9c:	4616      	movne	r6, r2
 8000f9e:	2600      	moveq	r6, #0
 8000fa0:	462b      	mov	r3, r5
 8000fa2:	2201      	movs	r2, #1
 8000fa4:	e7d0      	b.n	8000f48 <ESP01_Send+0x58>
 8000fa6:	200c      	movs	r0, #12
 8000fa8:	e7e7      	b.n	8000f7a <ESP01_Send+0x8a>
 8000faa:	4b0b      	ldr	r3, [pc, #44]	@ (8000fd8 <ESP01_Send+0xe8>)
 8000fac:	681b      	ldr	r3, [r3, #0]
 8000fae:	b90b      	cbnz	r3, 8000fb4 <ESP01_Send+0xc4>
 8000fb0:	2009      	movs	r0, #9
 8000fb2:	e7e2      	b.n	8000f7a <ESP01_Send+0x8a>
 8000fb4:	480b      	ldr	r0, [pc, #44]	@ (8000fe4 <ESP01_Send+0xf4>)
 8000fb6:	4798      	blx	r3
 8000fb8:	e7fa      	b.n	8000fb0 <ESP01_Send+0xc0>
 8000fba:	f04f 30ff 	mov.w	r0, #4294967295
 8000fbe:	e7dc      	b.n	8000f7a <ESP01_Send+0x8a>
 8000fc0:	2006      	movs	r0, #6
 8000fc2:	e7da      	b.n	8000f7a <ESP01_Send+0x8a>
 8000fc4:	200001dc 	.word	0x200001dc
 8000fc8:	0800be01 	.word	0x0800be01
 8000fcc:	0800bac4 	.word	0x0800bac4
 8000fd0:	200001f2 	.word	0x200001f2
 8000fd4:	200001fa 	.word	0x200001fa
 8000fd8:	200003a8 	.word	0x200003a8
 8000fdc:	0800b7d1 	.word	0x0800b7d1
 8000fe0:	0800bac5 	.word	0x0800bac5
 8000fe4:	0800b7e4 	.word	0x0800b7e4
 8000fe8:	200003bc 	.word	0x200003bc

08000fec <ESP01_Init>:
 8000fec:	4a10      	ldr	r2, [pc, #64]	@ (8001030 <ESP01_Init+0x44>)
 8000fee:	b530      	push	{r4, r5, lr}
 8000ff0:	4603      	mov	r3, r0
 8000ff2:	f100 0510 	add.w	r5, r0, #16
 8000ff6:	6818      	ldr	r0, [r3, #0]
 8000ff8:	6859      	ldr	r1, [r3, #4]
 8000ffa:	4614      	mov	r4, r2
 8000ffc:	c403      	stmia	r4!, {r0, r1}
 8000ffe:	3308      	adds	r3, #8
 8001000:	42ab      	cmp	r3, r5
 8001002:	4622      	mov	r2, r4
 8001004:	d1f7      	bne.n	8000ff6 <ESP01_Init+0xa>
 8001006:	6818      	ldr	r0, [r3, #0]
 8001008:	4b0a      	ldr	r3, [pc, #40]	@ (8001034 <ESP01_Init+0x48>)
 800100a:	4a0b      	ldr	r2, [pc, #44]	@ (8001038 <ESP01_Init+0x4c>)
 800100c:	6020      	str	r0, [r4, #0]
 800100e:	601a      	str	r2, [r3, #0]
 8001010:	4a0a      	ldr	r2, [pc, #40]	@ (800103c <ESP01_Init+0x50>)
 8001012:	2300      	movs	r3, #0
 8001014:	7013      	strb	r3, [r2, #0]
 8001016:	4a0a      	ldr	r2, [pc, #40]	@ (8001040 <ESP01_Init+0x54>)
 8001018:	7013      	strb	r3, [r2, #0]
 800101a:	4a0a      	ldr	r2, [pc, #40]	@ (8001044 <ESP01_Init+0x58>)
 800101c:	8013      	strh	r3, [r2, #0]
 800101e:	4a0a      	ldr	r2, [pc, #40]	@ (8001048 <ESP01_Init+0x5c>)
 8001020:	8013      	strh	r3, [r2, #0]
 8001022:	4a0a      	ldr	r2, [pc, #40]	@ (800104c <ESP01_Init+0x60>)
 8001024:	8013      	strh	r3, [r2, #0]
 8001026:	4a0a      	ldr	r2, [pc, #40]	@ (8001050 <ESP01_Init+0x64>)
 8001028:	8013      	strh	r3, [r2, #0]
 800102a:	4a0a      	ldr	r2, [pc, #40]	@ (8001054 <ESP01_Init+0x68>)
 800102c:	7013      	strb	r3, [r2, #0]
 800102e:	bd30      	pop	{r4, r5, pc}
 8001030:	200001dc 	.word	0x200001dc
 8001034:	200003ac 	.word	0x200003ac
 8001038:	08000d85 	.word	0x08000d85
 800103c:	200003bd 	.word	0x200003bd
 8001040:	2000037c 	.word	0x2000037c
 8001044:	200001f4 	.word	0x200001f4
 8001048:	200001f2 	.word	0x200001f2
 800104c:	200001f6 	.word	0x200001f6
 8001050:	200001f8 	.word	0x200001f8
 8001054:	200003bc 	.word	0x200003bc

08001058 <ESP01_Timeout10ms>:
 8001058:	4a09      	ldr	r2, [pc, #36]	@ (8001080 <ESP01_Timeout10ms+0x28>)
 800105a:	6813      	ldr	r3, [r2, #0]
 800105c:	b10b      	cbz	r3, 8001062 <ESP01_Timeout10ms+0xa>
 800105e:	3b01      	subs	r3, #1
 8001060:	6013      	str	r3, [r2, #0]
 8001062:	4a08      	ldr	r2, [pc, #32]	@ (8001084 <ESP01_Timeout10ms+0x2c>)
 8001064:	6813      	ldr	r3, [r2, #0]
 8001066:	b123      	cbz	r3, 8001072 <ESP01_Timeout10ms+0x1a>
 8001068:	3b01      	subs	r3, #1
 800106a:	6013      	str	r3, [r2, #0]
 800106c:	b90b      	cbnz	r3, 8001072 <ESP01_Timeout10ms+0x1a>
 800106e:	4a06      	ldr	r2, [pc, #24]	@ (8001088 <ESP01_Timeout10ms+0x30>)
 8001070:	7013      	strb	r3, [r2, #0]
 8001072:	4a06      	ldr	r2, [pc, #24]	@ (800108c <ESP01_Timeout10ms+0x34>)
 8001074:	6813      	ldr	r3, [r2, #0]
 8001076:	b10b      	cbz	r3, 800107c <ESP01_Timeout10ms+0x24>
 8001078:	3b01      	subs	r3, #1
 800107a:	6013      	str	r3, [r2, #0]
 800107c:	4770      	bx	lr
 800107e:	bf00      	nop
 8001080:	200003b8 	.word	0x200003b8
 8001084:	200003b4 	.word	0x200003b4
 8001088:	2000037c 	.word	0x2000037c
 800108c:	200003b0 	.word	0x200003b0

08001090 <ESP01_Task>:
 8001090:	e92d 4ff0 	stmdb	sp!, {r4, r5, r6, r7, r8, r9, sl, fp, lr}
 8001094:	4baf      	ldr	r3, [pc, #700]	@ (8001354 <ESP01_Task+0x2c4>)
 8001096:	4eb0      	ldr	r6, [pc, #704]	@ (8001358 <ESP01_Task+0x2c8>)
 8001098:	881b      	ldrh	r3, [r3, #0]
 800109a:	b085      	sub	sp, #20
 800109c:	2500      	movs	r5, #0
 800109e:	9301      	str	r3, [sp, #4]
 80010a0:	9a01      	ldr	r2, [sp, #4]
 80010a2:	8833      	ldrh	r3, [r6, #0]
 80010a4:	4293      	cmp	r3, r2
 80010a6:	d005      	beq.n	80010b4 <ESP01_Task+0x24>
 80010a8:	4fac      	ldr	r7, [pc, #688]	@ (800135c <ESP01_Task+0x2cc>)
 80010aa:	783b      	ldrb	r3, [r7, #0]
 80010ac:	3b11      	subs	r3, #17
 80010ae:	2b02      	cmp	r3, #2
 80010b0:	d823      	bhi.n	80010fa <ESP01_Task+0x6a>
 80010b2:	8032      	strh	r2, [r6, #0]
 80010b4:	4faa      	ldr	r7, [pc, #680]	@ (8001360 <ESP01_Task+0x2d0>)
 80010b6:	4cab      	ldr	r4, [pc, #684]	@ (8001364 <ESP01_Task+0x2d4>)
 80010b8:	f8d7 8000 	ldr.w	r8, [r7]
 80010bc:	f1b8 0f00 	cmp.w	r8, #0
 80010c0:	f040 8349 	bne.w	8001756 <ESP01_Task+0x6c6>
 80010c4:	4da5      	ldr	r5, [pc, #660]	@ (800135c <ESP01_Task+0x2cc>)
 80010c6:	782b      	ldrb	r3, [r5, #0]
 80010c8:	2b10      	cmp	r3, #16
 80010ca:	f040 82eb 	bne.w	80016a4 <ESP01_Task+0x614>
 80010ce:	7823      	ldrb	r3, [r4, #0]
 80010d0:	f003 0242 	and.w	r2, r3, #66	@ 0x42
 80010d4:	2a42      	cmp	r2, #66	@ 0x42
 80010d6:	f000 82aa 	beq.w	800162e <ESP01_Task+0x59e>
 80010da:	4ba3      	ldr	r3, [pc, #652]	@ (8001368 <ESP01_Task+0x2d8>)
 80010dc:	48a3      	ldr	r0, [pc, #652]	@ (800136c <ESP01_Task+0x2dc>)
 80010de:	681b      	ldr	r3, [r3, #0]
 80010e0:	4798      	blx	r3
 80010e2:	2314      	movs	r3, #20
 80010e4:	702b      	strb	r3, [r5, #0]
 80010e6:	4ba2      	ldr	r3, [pc, #648]	@ (8001370 <ESP01_Task+0x2e0>)
 80010e8:	f8c7 8000 	str.w	r8, [r7]
 80010ec:	681b      	ldr	r3, [r3, #0]
 80010ee:	2b00      	cmp	r3, #0
 80010f0:	f000 8331 	beq.w	8001756 <ESP01_Task+0x6c6>
 80010f4:	2001      	movs	r0, #1
 80010f6:	4798      	blx	r3
 80010f8:	e32d      	b.n	8001756 <ESP01_Task+0x6c6>
 80010fa:	4a9e      	ldr	r2, [pc, #632]	@ (8001374 <ESP01_Task+0x2e4>)
 80010fc:	4c9e      	ldr	r4, [pc, #632]	@ (8001378 <ESP01_Task+0x2e8>)
 80010fe:	2302      	movs	r3, #2
 8001100:	6013      	str	r3, [r2, #0]
 8001102:	8832      	ldrh	r2, [r6, #0]
 8001104:	9b01      	ldr	r3, [sp, #4]
 8001106:	4293      	cmp	r3, r2
 8001108:	d0d4      	beq.n	80010b4 <ESP01_Task+0x24>
 800110a:	4b9c      	ldr	r3, [pc, #624]	@ (800137c <ESP01_Task+0x2ec>)
 800110c:	7821      	ldrb	r1, [r4, #0]
 800110e:	5c9b      	ldrb	r3, [r3, r2]
 8001110:	290c      	cmp	r1, #12
 8001112:	f200 8287 	bhi.w	8001624 <ESP01_Task+0x594>
 8001116:	e8df f011 	tbh	[pc, r1, lsl #1]
 800111a:	000d      	.short	0x000d
 800111c:	00c70059 	.word	0x00c70059
 8001120:	02850285 	.word	0x02850285
 8001124:	01c101ac 	.word	0x01c101ac
 8001128:	01d601c9 	.word	0x01d601c9
 800112c:	01f30285 	.word	0x01f30285
 8001130:	021501fb 	.word	0x021501fb
 8001134:	4892      	ldr	r0, [pc, #584]	@ (8001380 <ESP01_Task+0x2f0>)
 8001136:	f8df 8254 	ldr.w	r8, [pc, #596]	@ 800138c <ESP01_Task+0x2fc>
 800113a:	f8df 9260 	ldr.w	r9, [pc, #608]	@ 800139c <ESP01_Task+0x30c>
 800113e:	2200      	movs	r2, #0
 8001140:	2104      	movs	r1, #4
 8001142:	7002      	strb	r2, [r0, #0]
 8001144:	f888 1000 	strb.w	r1, [r8]
 8001148:	4696      	mov	lr, r2
 800114a:	fa5f fc82 	uxtb.w	ip, r2
 800114e:	f859 102c 	ldr.w	r1, [r9, ip, lsl #2]
 8001152:	b9a9      	cbnz	r1, 8001180 <ESP01_Task+0xf0>
 8001154:	f1be 0f00 	cmp.w	lr, #0
 8001158:	d001      	beq.n	800115e <ESP01_Task+0xce>
 800115a:	f880 c000 	strb.w	ip, [r0]
 800115e:	4a85      	ldr	r2, [pc, #532]	@ (8001374 <ESP01_Task+0x2e4>)
 8001160:	4880      	ldr	r0, [pc, #512]	@ (8001364 <ESP01_Task+0x2d4>)
 8001162:	2100      	movs	r1, #0
 8001164:	6011      	str	r1, [r2, #0]
 8001166:	7802      	ldrb	r2, [r0, #0]
 8001168:	f012 0f01 	tst.w	r2, #1
 800116c:	d022      	beq.n	80011b4 <ESP01_Task+0x124>
 800116e:	2b3e      	cmp	r3, #62	@ 0x3e
 8001170:	d120      	bne.n	80011b4 <ESP01_Task+0x124>
 8001172:	4613      	mov	r3, r2
 8001174:	f361 0300 	bfi	r3, r1, #0, #1
 8001178:	7003      	strb	r3, [r0, #0]
 800117a:	4b82      	ldr	r3, [pc, #520]	@ (8001384 <ESP01_Task+0x2f4>)
 800117c:	6019      	str	r1, [r3, #0]
 800117e:	e019      	b.n	80011b4 <ESP01_Task+0x124>
 8001180:	f891 a004 	ldrb.w	sl, [r1, #4]
 8001184:	459a      	cmp	sl, r3
 8001186:	f102 0201 	add.w	r2, r2, #1
 800118a:	d11c      	bne.n	80011c6 <ESP01_Task+0x136>
 800118c:	f1be 0f00 	cmp.w	lr, #0
 8001190:	d001      	beq.n	8001196 <ESP01_Task+0x106>
 8001192:	f880 c000 	strb.w	ip, [r0]
 8001196:	780b      	ldrb	r3, [r1, #0]
 8001198:	784a      	ldrb	r2, [r1, #1]
 800119a:	3b30      	subs	r3, #48	@ 0x30
 800119c:	3a31      	subs	r2, #49	@ 0x31
 800119e:	eb03 0383 	add.w	r3, r3, r3, lsl #2
 80011a2:	eb02 0343 	add.w	r3, r2, r3, lsl #1
 80011a6:	4a78      	ldr	r2, [pc, #480]	@ (8001388 <ESP01_Task+0x2f8>)
 80011a8:	8013      	strh	r3, [r2, #0]
 80011aa:	2301      	movs	r3, #1
 80011ac:	7023      	strb	r3, [r4, #0]
 80011ae:	2305      	movs	r3, #5
 80011b0:	f888 3000 	strb.w	r3, [r8]
 80011b4:	8833      	ldrh	r3, [r6, #0]
 80011b6:	3301      	adds	r3, #1
 80011b8:	b29b      	uxth	r3, r3
 80011ba:	2b80      	cmp	r3, #128	@ 0x80
 80011bc:	8033      	strh	r3, [r6, #0]
 80011be:	bf04      	itt	eq
 80011c0:	2300      	moveq	r3, #0
 80011c2:	8033      	strheq	r3, [r6, #0]
 80011c4:	e79d      	b.n	8001102 <ESP01_Task+0x72>
 80011c6:	f04f 0e01 	mov.w	lr, #1
 80011ca:	e7be      	b.n	800114a <ESP01_Task+0xba>
 80011cc:	f8df c1b0 	ldr.w	ip, [pc, #432]	@ 8001380 <ESP01_Task+0x2f0>
 80011d0:	f8df b1c8 	ldr.w	fp, [pc, #456]	@ 800139c <ESP01_Task+0x30c>
 80011d4:	f89c 1000 	ldrb.w	r1, [ip]
 80011d8:	486c      	ldr	r0, [pc, #432]	@ (800138c <ESP01_Task+0x2fc>)
 80011da:	f85b 1021 	ldr.w	r1, [fp, r1, lsl #2]
 80011de:	7800      	ldrb	r0, [r0, #0]
 80011e0:	f811 e000 	ldrb.w	lr, [r1, r0]
 80011e4:	459e      	cmp	lr, r3
 80011e6:	d114      	bne.n	8001212 <ESP01_Task+0x182>
 80011e8:	f8df c19c 	ldr.w	ip, [pc, #412]	@ 8001388 <ESP01_Task+0x2f8>
 80011ec:	f8bc 2000 	ldrh.w	r2, [ip]
 80011f0:	3a01      	subs	r2, #1
 80011f2:	b292      	uxth	r2, r2
 80011f4:	f8ac 2000 	strh.w	r2, [ip]
 80011f8:	b10a      	cbz	r2, 80011fe <ESP01_Task+0x16e>
 80011fa:	2b0d      	cmp	r3, #13
 80011fc:	d14c      	bne.n	8001298 <ESP01_Task+0x208>
 80011fe:	788b      	ldrb	r3, [r1, #2]
 8001200:	78ca      	ldrb	r2, [r1, #3]
 8001202:	3b30      	subs	r3, #48	@ 0x30
 8001204:	eb03 0383 	add.w	r3, r3, r3, lsl #2
 8001208:	3a30      	subs	r2, #48	@ 0x30
 800120a:	eb02 0343 	add.w	r3, r2, r3, lsl #1
 800120e:	7023      	strb	r3, [r4, #0]
 8001210:	e7d0      	b.n	80011b4 <ESP01_Task+0x124>
 8001212:	2100      	movs	r1, #0
 8001214:	f5c0 4a7f 	rsb	sl, r0, #65280	@ 0xff00
 8001218:	f88c 1000 	strb.w	r1, [ip]
 800121c:	4689      	mov	r9, r1
 800121e:	f10a 0ad3 	add.w	sl, sl, #211	@ 0xd3
 8001222:	fa5f f881 	uxtb.w	r8, r1
 8001226:	f85b c028 	ldr.w	ip, [fp, r8, lsl #2]
 800122a:	f1bc 0f00 	cmp.w	ip, #0
 800122e:	d10d      	bne.n	800124c <ESP01_Task+0x1bc>
 8001230:	f1b9 0f00 	cmp.w	r9, #0
 8001234:	d004      	beq.n	8001240 <ESP01_Task+0x1b0>
 8001236:	4b54      	ldr	r3, [pc, #336]	@ (8001388 <ESP01_Task+0x2f8>)
 8001238:	801d      	strh	r5, [r3, #0]
 800123a:	4b51      	ldr	r3, [pc, #324]	@ (8001380 <ESP01_Task+0x2f0>)
 800123c:	f883 8000 	strb.w	r8, [r3]
 8001240:	4b4d      	ldr	r3, [pc, #308]	@ (8001378 <ESP01_Task+0x2e8>)
 8001242:	2100      	movs	r1, #0
 8001244:	3a01      	subs	r2, #1
 8001246:	7019      	strb	r1, [r3, #0]
 8001248:	8032      	strh	r2, [r6, #0]
 800124a:	e7b3      	b.n	80011b4 <ESP01_Task+0x124>
 800124c:	f89c e000 	ldrb.w	lr, [ip]
 8001250:	f89c 5001 	ldrb.w	r5, [ip, #1]
 8001254:	f1ae 0e30 	sub.w	lr, lr, #48	@ 0x30
 8001258:	eb0e 0e8e 	add.w	lr, lr, lr, lsl #2
 800125c:	4455      	add	r5, sl
 800125e:	eb05 054e 	add.w	r5, r5, lr, lsl #1
 8001262:	b2ad      	uxth	r5, r5
 8001264:	2d7f      	cmp	r5, #127	@ 0x7f
 8001266:	d81b      	bhi.n	80012a0 <ESP01_Task+0x210>
 8001268:	f81c e000 	ldrb.w	lr, [ip, r0]
 800126c:	459e      	cmp	lr, r3
 800126e:	d117      	bne.n	80012a0 <ESP01_Task+0x210>
 8001270:	4b45      	ldr	r3, [pc, #276]	@ (8001388 <ESP01_Task+0x2f8>)
 8001272:	801d      	strh	r5, [r3, #0]
 8001274:	f1b9 0f00 	cmp.w	r9, #0
 8001278:	d002      	beq.n	8001280 <ESP01_Task+0x1f0>
 800127a:	4b41      	ldr	r3, [pc, #260]	@ (8001380 <ESP01_Task+0x2f0>)
 800127c:	f883 8000 	strb.w	r8, [r3]
 8001280:	b955      	cbnz	r5, 8001298 <ESP01_Task+0x208>
 8001282:	f89c 3002 	ldrb.w	r3, [ip, #2]
 8001286:	f89c 2003 	ldrb.w	r2, [ip, #3]
 800128a:	3b30      	subs	r3, #48	@ 0x30
 800128c:	eb03 0383 	add.w	r3, r3, r3, lsl #2
 8001290:	3a30      	subs	r2, #48	@ 0x30
 8001292:	eb02 0343 	add.w	r3, r2, r3, lsl #1
 8001296:	7023      	strb	r3, [r4, #0]
 8001298:	4b3c      	ldr	r3, [pc, #240]	@ (800138c <ESP01_Task+0x2fc>)
 800129a:	3001      	adds	r0, #1
 800129c:	7018      	strb	r0, [r3, #0]
 800129e:	e789      	b.n	80011b4 <ESP01_Task+0x124>
 80012a0:	3101      	adds	r1, #1
 80012a2:	f04f 0901 	mov.w	r9, #1
 80012a6:	e7bc      	b.n	8001222 <ESP01_Task+0x192>
 80012a8:	2b0a      	cmp	r3, #10
 80012aa:	d183      	bne.n	80011b4 <ESP01_Task+0x124>
 80012ac:	4b34      	ldr	r3, [pc, #208]	@ (8001380 <ESP01_Task+0x2f0>)
 80012ae:	781b      	ldrb	r3, [r3, #0]
 80012b0:	2200      	movs	r2, #0
 80012b2:	3b02      	subs	r3, #2
 80012b4:	7022      	strb	r2, [r4, #0]
 80012b6:	2b0d      	cmp	r3, #13
 80012b8:	f63f af7c 	bhi.w	80011b4 <ESP01_Task+0x124>
 80012bc:	a101      	add	r1, pc, #4	@ (adr r1, 80012c4 <ESP01_Task+0x234>)
 80012be:	f851 f023 	ldr.w	pc, [r1, r3, lsl #2]
 80012c2:	bf00      	nop
 80012c4:	080012fd 	.word	0x080012fd
 80012c8:	080013a1 	.word	0x080013a1
 80012cc:	080013bb 	.word	0x080013bb
 80012d0:	080011b5 	.word	0x080011b5
 80012d4:	080013e7 	.word	0x080013e7
 80012d8:	080013e7 	.word	0x080013e7
 80012dc:	08001415 	.word	0x08001415
 80012e0:	0800141f 	.word	0x0800141f
 80012e4:	08001437 	.word	0x08001437
 80012e8:	08001415 	.word	0x08001415
 80012ec:	080011b5 	.word	0x080011b5
 80012f0:	0800145b 	.word	0x0800145b
 80012f4:	080011b5 	.word	0x080011b5
 80012f8:	08001465 	.word	0x08001465
 80012fc:	783b      	ldrb	r3, [r7, #0]
 80012fe:	2b0e      	cmp	r3, #14
 8001300:	f63f af58 	bhi.w	80011b4 <ESP01_Task+0x124>
 8001304:	2201      	movs	r2, #1
 8001306:	409a      	lsls	r2, r3
 8001308:	f412 7f29 	tst.w	r2, #676	@ 0x2a4
 800130c:	d115      	bne.n	800133a <ESP01_Task+0x2aa>
 800130e:	2b0e      	cmp	r3, #14
 8001310:	f47f af50 	bne.w	80011b4 <ESP01_Task+0x124>
 8001314:	491e      	ldr	r1, [pc, #120]	@ (8001390 <ESP01_Task+0x300>)
 8001316:	481f      	ldr	r0, [pc, #124]	@ (8001394 <ESP01_Task+0x304>)
 8001318:	f7fe ff62 	bl	80001e0 <strcmp>
 800131c:	2800      	cmp	r0, #0
 800131e:	f47f af49 	bne.w	80011b4 <ESP01_Task+0x124>
 8001322:	4a10      	ldr	r2, [pc, #64]	@ (8001364 <ESP01_Task+0x2d4>)
 8001324:	7813      	ldrb	r3, [r2, #0]
 8001326:	f043 0320 	orr.w	r3, r3, #32
 800132a:	7013      	strb	r3, [r2, #0]
 800132c:	4b10      	ldr	r3, [pc, #64]	@ (8001370 <ESP01_Task+0x2e0>)
 800132e:	681b      	ldr	r3, [r3, #0]
 8001330:	2b00      	cmp	r3, #0
 8001332:	f43f af3f 	beq.w	80011b4 <ESP01_Task+0x124>
 8001336:	2008      	movs	r0, #8
 8001338:	e053      	b.n	80013e2 <ESP01_Task+0x352>
 800133a:	4b0b      	ldr	r3, [pc, #44]	@ (8001368 <ESP01_Task+0x2d8>)
 800133c:	4816      	ldr	r0, [pc, #88]	@ (8001398 <ESP01_Task+0x308>)
 800133e:	681b      	ldr	r3, [r3, #0]
 8001340:	4798      	blx	r3
 8001342:	4b07      	ldr	r3, [pc, #28]	@ (8001360 <ESP01_Task+0x2d0>)
 8001344:	2200      	movs	r2, #0
 8001346:	601a      	str	r2, [r3, #0]
 8001348:	4a06      	ldr	r2, [pc, #24]	@ (8001364 <ESP01_Task+0x2d4>)
 800134a:	7813      	ldrb	r3, [r2, #0]
 800134c:	f043 0320 	orr.w	r3, r3, #32
 8001350:	7013      	strb	r3, [r2, #0]
 8001352:	e72f      	b.n	80011b4 <ESP01_Task+0x124>
 8001354:	200001f8 	.word	0x200001f8
 8001358:	200001f6 	.word	0x200001f6
 800135c:	200003bd 	.word	0x200003bd
 8001360:	200003b8 	.word	0x200003b8
 8001364:	200003bc 	.word	0x200003bc
 8001368:	200003a8 	.word	0x200003a8
 800136c:	0800b887 	.word	0x0800b887
 8001370:	200003ac 	.word	0x200003ac
 8001374:	200003b4 	.word	0x200003b4
 8001378:	2000037c 	.word	0x2000037c
 800137c:	200002fa 	.word	0x200002fa
 8001380:	200001db 	.word	0x200001db
 8001384:	200003b0 	.word	0x200003b0
 8001388:	2000037a 	.word	0x2000037a
 800138c:	200001da 	.word	0x200001da
 8001390:	0800b737 	.word	0x0800b737
 8001394:	20000000 	.word	0x20000000
 8001398:	0800b7fc 	.word	0x0800b7fc
 800139c:	0800bcb8 	.word	0x0800bcb8
 80013a0:	4aa5      	ldr	r2, [pc, #660]	@ (8001638 <ESP01_Task+0x5a8>)
 80013a2:	7813      	ldrb	r3, [r2, #0]
 80013a4:	0718      	lsls	r0, r3, #28
 80013a6:	f57f af05 	bpl.w	80011b4 <ESP01_Task+0x124>
 80013aa:	f023 0348 	bic.w	r3, r3, #72	@ 0x48
 80013ae:	7013      	strb	r3, [r2, #0]
 80013b0:	4ba2      	ldr	r3, [pc, #648]	@ (800163c <ESP01_Task+0x5ac>)
 80013b2:	881a      	ldrh	r2, [r3, #0]
 80013b4:	4ba2      	ldr	r3, [pc, #648]	@ (8001640 <ESP01_Task+0x5b0>)
 80013b6:	801a      	strh	r2, [r3, #0]
 80013b8:	e6fc      	b.n	80011b4 <ESP01_Task+0x124>
 80013ba:	4ba2      	ldr	r3, [pc, #648]	@ (8001644 <ESP01_Task+0x5b4>)
 80013bc:	601a      	str	r2, [r3, #0]
 80013be:	783b      	ldrb	r3, [r7, #0]
 80013c0:	2b09      	cmp	r3, #9
 80013c2:	4b9d      	ldr	r3, [pc, #628]	@ (8001638 <ESP01_Task+0x5a8>)
 80013c4:	bf02      	ittt	eq
 80013c6:	781a      	ldrbeq	r2, [r3, #0]
 80013c8:	f042 0220 	orreq.w	r2, r2, #32
 80013cc:	701a      	strbeq	r2, [r3, #0]
 80013ce:	781a      	ldrb	r2, [r3, #0]
 80013d0:	f042 0202 	orr.w	r2, r2, #2
 80013d4:	701a      	strb	r2, [r3, #0]
 80013d6:	4b9c      	ldr	r3, [pc, #624]	@ (8001648 <ESP01_Task+0x5b8>)
 80013d8:	681b      	ldr	r3, [r3, #0]
 80013da:	2b00      	cmp	r3, #0
 80013dc:	f43f aeea 	beq.w	80011b4 <ESP01_Task+0x124>
 80013e0:	2004      	movs	r0, #4
 80013e2:	4798      	blx	r3
 80013e4:	e6e6      	b.n	80011b4 <ESP01_Task+0x124>
 80013e6:	4a94      	ldr	r2, [pc, #592]	@ (8001638 <ESP01_Task+0x5a8>)
 80013e8:	f8df 825c 	ldr.w	r8, [pc, #604]	@ 8001648 <ESP01_Task+0x5b8>
 80013ec:	7813      	ldrb	r3, [r2, #0]
 80013ee:	f023 0342 	bic.w	r3, r3, #66	@ 0x42
 80013f2:	7013      	strb	r3, [r2, #0]
 80013f4:	f8d8 3000 	ldr.w	r3, [r8]
 80013f8:	b12b      	cbz	r3, 8001406 <ESP01_Task+0x376>
 80013fa:	2000      	movs	r0, #0
 80013fc:	4798      	blx	r3
 80013fe:	f8d8 3000 	ldr.w	r3, [r8]
 8001402:	2001      	movs	r0, #1
 8001404:	4798      	blx	r3
 8001406:	783b      	ldrb	r3, [r7, #0]
 8001408:	2b09      	cmp	r3, #9
 800140a:	f43f aed3 	beq.w	80011b4 <ESP01_Task+0x124>
 800140e:	2314      	movs	r3, #20
 8001410:	703b      	strb	r3, [r7, #0]
 8001412:	e6cf      	b.n	80011b4 <ESP01_Task+0x124>
 8001414:	4a88      	ldr	r2, [pc, #544]	@ (8001638 <ESP01_Task+0x5a8>)
 8001416:	7813      	ldrb	r3, [r2, #0]
 8001418:	f023 0340 	bic.w	r3, r3, #64	@ 0x40
 800141c:	e798      	b.n	8001350 <ESP01_Task+0x2c0>
 800141e:	4a86      	ldr	r2, [pc, #536]	@ (8001638 <ESP01_Task+0x5a8>)
 8001420:	7813      	ldrb	r3, [r2, #0]
 8001422:	f023 0308 	bic.w	r3, r3, #8
 8001426:	7013      	strb	r3, [r2, #0]
 8001428:	4b87      	ldr	r3, [pc, #540]	@ (8001648 <ESP01_Task+0x5b8>)
 800142a:	681b      	ldr	r3, [r3, #0]
 800142c:	2b00      	cmp	r3, #0
 800142e:	f43f aec1 	beq.w	80011b4 <ESP01_Task+0x124>
 8001432:	200b      	movs	r0, #11
 8001434:	e7d5      	b.n	80013e2 <ESP01_Task+0x352>
 8001436:	4b85      	ldr	r3, [pc, #532]	@ (800164c <ESP01_Task+0x5bc>)
 8001438:	781a      	ldrb	r2, [r3, #0]
 800143a:	b122      	cbz	r2, 8001446 <ESP01_Task+0x3b6>
 800143c:	2200      	movs	r2, #0
 800143e:	4884      	ldr	r0, [pc, #528]	@ (8001650 <ESP01_Task+0x5c0>)
 8001440:	701a      	strb	r2, [r3, #0]
 8001442:	f001 fcba 	bl	8002dba <USB_DebugStr>
 8001446:	4b7f      	ldr	r3, [pc, #508]	@ (8001644 <ESP01_Task+0x5b4>)
 8001448:	2200      	movs	r2, #0
 800144a:	601a      	str	r2, [r3, #0]
 800144c:	4a7a      	ldr	r2, [pc, #488]	@ (8001638 <ESP01_Task+0x5a8>)
 800144e:	7813      	ldrb	r3, [r2, #0]
 8001450:	f023 0360 	bic.w	r3, r3, #96	@ 0x60
 8001454:	f043 0360 	orr.w	r3, r3, #96	@ 0x60
 8001458:	e767      	b.n	800132a <ESP01_Task+0x29a>
 800145a:	4a77      	ldr	r2, [pc, #476]	@ (8001638 <ESP01_Task+0x5a8>)
 800145c:	7813      	ldrb	r3, [r2, #0]
 800145e:	f023 0342 	bic.w	r3, r3, #66	@ 0x42
 8001462:	e775      	b.n	8001350 <ESP01_Task+0x2c0>
 8001464:	4a74      	ldr	r2, [pc, #464]	@ (8001638 <ESP01_Task+0x5a8>)
 8001466:	7813      	ldrb	r3, [r2, #0]
 8001468:	f023 0342 	bic.w	r3, r3, #66	@ 0x42
 800146c:	7013      	strb	r3, [r2, #0]
 800146e:	2313      	movs	r3, #19
 8001470:	e7ce      	b.n	8001410 <ESP01_Task+0x380>
 8001472:	4978      	ldr	r1, [pc, #480]	@ (8001654 <ESP01_Task+0x5c4>)
 8001474:	2b2c      	cmp	r3, #44	@ 0x2c
 8001476:	6809      	ldr	r1, [r1, #0]
 8001478:	d107      	bne.n	800148a <ESP01_Task+0x3fa>
 800147a:	2306      	movs	r3, #6
 800147c:	7023      	strb	r3, [r4, #0]
 800147e:	2900      	cmp	r1, #0
 8001480:	f43f ae98 	beq.w	80011b4 <ESP01_Task+0x124>
 8001484:	4874      	ldr	r0, [pc, #464]	@ (8001658 <ESP01_Task+0x5c8>)
 8001486:	4788      	blx	r1
 8001488:	e694      	b.n	80011b4 <ESP01_Task+0x124>
 800148a:	2300      	movs	r3, #0
 800148c:	3a01      	subs	r2, #1
 800148e:	7023      	strb	r3, [r4, #0]
 8001490:	8032      	strh	r2, [r6, #0]
 8001492:	2900      	cmp	r1, #0
 8001494:	f43f ae8e 	beq.w	80011b4 <ESP01_Task+0x124>
 8001498:	4870      	ldr	r0, [pc, #448]	@ (800165c <ESP01_Task+0x5cc>)
 800149a:	e7f4      	b.n	8001486 <ESP01_Task+0x3f6>
 800149c:	2b22      	cmp	r3, #34	@ 0x22
 800149e:	f47f ae89 	bne.w	80011b4 <ESP01_Task+0x124>
 80014a2:	2307      	movs	r3, #7
 80014a4:	7023      	strb	r3, [r4, #0]
 80014a6:	2200      	movs	r2, #0
 80014a8:	4b6d      	ldr	r3, [pc, #436]	@ (8001660 <ESP01_Task+0x5d0>)
 80014aa:	e784      	b.n	80013b6 <ESP01_Task+0x326>
 80014ac:	2b22      	cmp	r3, #34	@ 0x22
 80014ae:	d003      	beq.n	80014b8 <ESP01_Task+0x428>
 80014b0:	496b      	ldr	r1, [pc, #428]	@ (8001660 <ESP01_Task+0x5d0>)
 80014b2:	880a      	ldrh	r2, [r1, #0]
 80014b4:	2a10      	cmp	r2, #16
 80014b6:	d101      	bne.n	80014bc <ESP01_Task+0x42c>
 80014b8:	2308      	movs	r3, #8
 80014ba:	e6a8      	b.n	800120e <ESP01_Task+0x17e>
 80014bc:	1c50      	adds	r0, r2, #1
 80014be:	8008      	strh	r0, [r1, #0]
 80014c0:	4968      	ldr	r1, [pc, #416]	@ (8001664 <ESP01_Task+0x5d4>)
 80014c2:	548b      	strb	r3, [r1, r2]
 80014c4:	e676      	b.n	80011b4 <ESP01_Task+0x124>
 80014c6:	2b0a      	cmp	r3, #10
 80014c8:	f47f ae74 	bne.w	80011b4 <ESP01_Task+0x124>
 80014cc:	4a64      	ldr	r2, [pc, #400]	@ (8001660 <ESP01_Task+0x5d0>)
 80014ce:	8811      	ldrh	r1, [r2, #0]
 80014d0:	4a64      	ldr	r2, [pc, #400]	@ (8001664 <ESP01_Task+0x5d4>)
 80014d2:	290f      	cmp	r1, #15
 80014d4:	f04f 0300 	mov.w	r3, #0
 80014d8:	bf9c      	itt	ls
 80014da:	5453      	strbls	r3, [r2, r1]
 80014dc:	4956      	ldrls	r1, [pc, #344]	@ (8001638 <ESP01_Task+0x5a8>)
 80014de:	7023      	strb	r3, [r4, #0]
 80014e0:	bf97      	itett	ls
 80014e2:	780a      	ldrbls	r2, [r1, #0]
 80014e4:	7013      	strbhi	r3, [r2, #0]
 80014e6:	f042 0220 	orrls.w	r2, r2, #32
 80014ea:	700a      	strbls	r2, [r1, #0]
 80014ec:	bf9c      	itt	ls
 80014ee:	4a55      	ldrls	r2, [pc, #340]	@ (8001644 <ESP01_Task+0x5b4>)
 80014f0:	6013      	strls	r3, [r2, #0]
 80014f2:	4b55      	ldr	r3, [pc, #340]	@ (8001648 <ESP01_Task+0x5b8>)
 80014f4:	681b      	ldr	r3, [r3, #0]
 80014f6:	2b00      	cmp	r3, #0
 80014f8:	f43f ae5c 	beq.w	80011b4 <ESP01_Task+0x124>
 80014fc:	2005      	movs	r0, #5
 80014fe:	e770      	b.n	80013e2 <ESP01_Task+0x352>
 8001500:	4a57      	ldr	r2, [pc, #348]	@ (8001660 <ESP01_Task+0x5d0>)
 8001502:	230b      	movs	r3, #11
 8001504:	7023      	strb	r3, [r4, #0]
 8001506:	2300      	movs	r3, #0
 8001508:	8013      	strh	r3, [r2, #0]
 800150a:	4a57      	ldr	r2, [pc, #348]	@ (8001668 <ESP01_Task+0x5d8>)
 800150c:	8013      	strh	r3, [r2, #0]
 800150e:	e651      	b.n	80011b4 <ESP01_Task+0x124>
 8001510:	2b2c      	cmp	r3, #44	@ 0x2c
 8001512:	f43f ae4f 	beq.w	80011b4 <ESP01_Task+0x124>
 8001516:	f1a3 0230 	sub.w	r2, r3, #48	@ 0x30
 800151a:	2a09      	cmp	r2, #9
 800151c:	d808      	bhi.n	8001530 <ESP01_Task+0x4a0>
 800151e:	4950      	ldr	r1, [pc, #320]	@ (8001660 <ESP01_Task+0x5d0>)
 8001520:	880a      	ldrh	r2, [r1, #0]
 8001522:	eb02 0282 	add.w	r2, r2, r2, lsl #2
 8001526:	eb03 0242 	add.w	r2, r3, r2, lsl #1
 800152a:	3a30      	subs	r2, #48	@ 0x30
 800152c:	800a      	strh	r2, [r1, #0]
 800152e:	e641      	b.n	80011b4 <ESP01_Task+0x124>
 8001530:	2b3a      	cmp	r3, #58	@ 0x3a
 8001532:	bf03      	ittte	eq
 8001534:	4b4a      	ldreq	r3, [pc, #296]	@ (8001660 <ESP01_Task+0x5d0>)
 8001536:	881a      	ldrheq	r2, [r3, #0]
 8001538:	4b4c      	ldreq	r3, [pc, #304]	@ (800166c <ESP01_Task+0x5dc>)
 800153a:	2300      	movne	r3, #0
 800153c:	bf04      	itt	eq
 800153e:	801a      	strheq	r2, [r3, #0]
 8001540:	230c      	moveq	r3, #12
 8001542:	e664      	b.n	800120e <ESP01_Task+0x17e>
 8001544:	f8df a134 	ldr.w	sl, [pc, #308]	@ 800167c <ESP01_Task+0x5ec>
 8001548:	f8df 811c 	ldr.w	r8, [pc, #284]	@ 8001668 <ESP01_Task+0x5d8>
 800154c:	f8da 200c 	ldr.w	r2, [sl, #12]
 8001550:	f8da 1008 	ldr.w	r1, [sl, #8]
 8001554:	8812      	ldrh	r2, [r2, #0]
 8001556:	f8df 9108 	ldr.w	r9, [pc, #264]	@ 8001660 <ESP01_Task+0x5d0>
 800155a:	548b      	strb	r3, [r1, r2]
 800155c:	f8da 200c 	ldr.w	r2, [sl, #12]
 8001560:	8813      	ldrh	r3, [r2, #0]
 8001562:	3301      	adds	r3, #1
 8001564:	b29b      	uxth	r3, r3
 8001566:	8013      	strh	r3, [r2, #0]
 8001568:	f8ba 1010 	ldrh.w	r1, [sl, #16]
 800156c:	4299      	cmp	r1, r3
 800156e:	bf08      	it	eq
 8001570:	2300      	moveq	r3, #0
 8001572:	8013      	strh	r3, [r2, #0]
 8001574:	f8b8 3000 	ldrh.w	r3, [r8]
 8001578:	b923      	cbnz	r3, 8001584 <ESP01_Task+0x4f4>
 800157a:	f8b9 1000 	ldrh.w	r1, [r9]
 800157e:	483c      	ldr	r0, [pc, #240]	@ (8001670 <ESP01_Task+0x5e0>)
 8001580:	f001 fc60 	bl	8002e44 <USB_Debug>
 8001584:	f8b8 3000 	ldrh.w	r3, [r8]
 8001588:	3301      	adds	r3, #1
 800158a:	f8a8 3000 	strh.w	r3, [r8]
 800158e:	f8b9 8000 	ldrh.w	r8, [r9]
 8001592:	f108 38ff 	add.w	r8, r8, #4294967295
 8001596:	fa1f f888 	uxth.w	r8, r8
 800159a:	f8a9 8000 	strh.w	r8, [r9]
 800159e:	f1b8 0f00 	cmp.w	r8, #0
 80015a2:	f47f ae07 	bne.w	80011b4 <ESP01_Task+0x124>
 80015a6:	4924      	ldr	r1, [pc, #144]	@ (8001638 <ESP01_Task+0x5a8>)
 80015a8:	f8df b0c0 	ldr.w	fp, [pc, #192]	@ 800166c <ESP01_Task+0x5dc>
 80015ac:	780a      	ldrb	r2, [r1, #0]
 80015ae:	f884 8000 	strb.w	r8, [r4]
 80015b2:	f022 020d 	bic.w	r2, r2, #13
 80015b6:	700a      	strb	r2, [r1, #0]
 80015b8:	f8da 100c 	ldr.w	r1, [sl, #12]
 80015bc:	f8ba 2010 	ldrh.w	r2, [sl, #16]
 80015c0:	f8b1 9000 	ldrh.w	r9, [r1]
 80015c4:	f8bb 1000 	ldrh.w	r1, [fp]
 80015c8:	4491      	add	r9, r2
 80015ca:	eba9 0901 	sub.w	r9, r9, r1
 80015ce:	fb99 f1f2 	sdiv	r1, r9, r2
 80015d2:	fb02 9911 	mls	r9, r2, r1, r9
 80015d6:	4a1f      	ldr	r2, [pc, #124]	@ (8001654 <ESP01_Task+0x5c4>)
 80015d8:	fa1f f989 	uxth.w	r9, r9
 80015dc:	f8bb 0000 	ldrh.w	r0, [fp]
 80015e0:	6813      	ldr	r3, [r2, #0]
 80015e2:	fa1f f188 	uxth.w	r1, r8
 80015e6:	4288      	cmp	r0, r1
 80015e8:	d805      	bhi.n	80015f6 <ESP01_Task+0x566>
 80015ea:	2b00      	cmp	r3, #0
 80015ec:	f43f ade2 	beq.w	80011b4 <ESP01_Task+0x124>
 80015f0:	4820      	ldr	r0, [pc, #128]	@ (8001674 <ESP01_Task+0x5e4>)
 80015f2:	4798      	blx	r3
 80015f4:	e5de      	b.n	80011b4 <ESP01_Task+0x124>
 80015f6:	f8ba 0010 	ldrh.w	r0, [sl, #16]
 80015fa:	fa19 f188 	uxtah	r1, r9, r8
 80015fe:	fbb1 fcf0 	udiv	ip, r1, r0
 8001602:	fb00 111c 	mls	r1, r0, ip, r1
 8001606:	f8da 0008 	ldr.w	r0, [sl, #8]
 800160a:	5c41      	ldrb	r1, [r0, r1]
 800160c:	f88d 100c 	strb.w	r1, [sp, #12]
 8001610:	2100      	movs	r1, #0
 8001612:	f88d 100d 	strb.w	r1, [sp, #13]
 8001616:	b113      	cbz	r3, 800161e <ESP01_Task+0x58e>
 8001618:	a803      	add	r0, sp, #12
 800161a:	4798      	blx	r3
 800161c:	4a0d      	ldr	r2, [pc, #52]	@ (8001654 <ESP01_Task+0x5c4>)
 800161e:	f108 0801 	add.w	r8, r8, #1
 8001622:	e7db      	b.n	80015dc <ESP01_Task+0x54c>
 8001624:	4a14      	ldr	r2, [pc, #80]	@ (8001678 <ESP01_Task+0x5e8>)
 8001626:	2300      	movs	r3, #0
 8001628:	7023      	strb	r3, [r4, #0]
 800162a:	6013      	str	r3, [r2, #0]
 800162c:	e5c2      	b.n	80011b4 <ESP01_Task+0x124>
 800162e:	0659      	lsls	r1, r3, #25
 8001630:	d526      	bpl.n	8001680 <ESP01_Task+0x5f0>
 8001632:	f44f 73fa 	mov.w	r3, #500	@ 0x1f4
 8001636:	e06f      	b.n	8001718 <ESP01_Task+0x688>
 8001638:	200003bc 	.word	0x200003bc
 800163c:	200001f2 	.word	0x200001f2
 8001640:	200001f4 	.word	0x200001f4
 8001644:	200003b8 	.word	0x200003b8
 8001648:	200003ac 	.word	0x200003ac
 800164c:	200001d8 	.word	0x200001d8
 8001650:	0800b822 	.word	0x0800b822
 8001654:	200003a8 	.word	0x200003a8
 8001658:	0800b83e 	.word	0x0800b83e
 800165c:	0800b853 	.word	0x0800b853
 8001660:	2000037a 	.word	0x2000037a
 8001664:	20000383 	.word	0x20000383
 8001668:	200001cc 	.word	0x200001cc
 800166c:	200001d6 	.word	0x200001d6
 8001670:	0800b867 	.word	0x0800b867
 8001674:	0800bac4 	.word	0x0800bac4
 8001678:	200003b4 	.word	0x200003b4
 800167c:	200001dc 	.word	0x200001dc
 8001680:	2364      	movs	r3, #100	@ 0x64
 8001682:	4993      	ldr	r1, [pc, #588]	@ (80018d0 <ESP01_Task+0x840>)
 8001684:	4893      	ldr	r0, [pc, #588]	@ (80018d4 <ESP01_Task+0x844>)
 8001686:	603b      	str	r3, [r7, #0]
 8001688:	f7fe fdaa 	bl	80001e0 <strcmp>
 800168c:	2800      	cmp	r0, #0
 800168e:	f000 823f 	beq.w	8001b10 <ESP01_Task+0xa80>
 8001692:	7823      	ldrb	r3, [r4, #0]
 8001694:	0798      	lsls	r0, r3, #30
 8001696:	f140 81be 	bpl.w	8001a16 <ESP01_Task+0x986>
 800169a:	0659      	lsls	r1, r3, #25
 800169c:	f140 81b1 	bpl.w	8001a02 <ESP01_Task+0x972>
 80016a0:	2300      	movs	r3, #0
 80016a2:	e039      	b.n	8001718 <ESP01_Task+0x688>
 80016a4:	2264      	movs	r2, #100	@ 0x64
 80016a6:	603a      	str	r2, [r7, #0]
 80016a8:	2b14      	cmp	r3, #20
 80016aa:	d854      	bhi.n	8001756 <ESP01_Task+0x6c6>
 80016ac:	a201      	add	r2, pc, #4	@ (adr r2, 80016b4 <ESP01_Task+0x624>)
 80016ae:	f852 f023 	ldr.w	pc, [r2, r3, lsl #2]
 80016b2:	bf00      	nop
 80016b4:	080016a1 	.word	0x080016a1
 80016b8:	080017d3 	.word	0x080017d3
 80016bc:	08001811 	.word	0x08001811
 80016c0:	08001855 	.word	0x08001855
 80016c4:	0800181d 	.word	0x0800181d
 80016c8:	0800182f 	.word	0x0800182f
 80016cc:	08001839 	.word	0x08001839
 80016d0:	0800184b 	.word	0x0800184b
 80016d4:	0800195d 	.word	0x0800195d
 80016d8:	080019cb 	.word	0x080019cb
 80016dc:	080019db 	.word	0x080019db
 80016e0:	080019fd 	.word	0x080019fd
 80016e4:	08001a1b 	.word	0x08001a1b
 80016e8:	08001a39 	.word	0x08001a39
 80016ec:	08001ab3 	.word	0x08001ab3
 80016f0:	08001887 	.word	0x08001887
 80016f4:	08001757 	.word	0x08001757
 80016f8:	0800171d 	.word	0x0800171d
 80016fc:	08001735 	.word	0x08001735
 8001700:	0800174d 	.word	0x0800174d
 8001704:	08001709 	.word	0x08001709
 8001708:	4b73      	ldr	r3, [pc, #460]	@ (80018d8 <ESP01_Task+0x848>)
 800170a:	681b      	ldr	r3, [r3, #0]
 800170c:	b10b      	cbz	r3, 8001712 <ESP01_Task+0x682>
 800170e:	4873      	ldr	r0, [pc, #460]	@ (80018dc <ESP01_Task+0x84c>)
 8001710:	4798      	blx	r3
 8001712:	2308      	movs	r3, #8
 8001714:	702b      	strb	r3, [r5, #0]
 8001716:	2364      	movs	r3, #100	@ 0x64
 8001718:	603b      	str	r3, [r7, #0]
 800171a:	e01c      	b.n	8001756 <ESP01_Task+0x6c6>
 800171c:	4b70      	ldr	r3, [pc, #448]	@ (80018e0 <ESP01_Task+0x850>)
 800171e:	2000      	movs	r0, #0
 8001720:	681b      	ldr	r3, [r3, #0]
 8001722:	4798      	blx	r3
 8001724:	4b6c      	ldr	r3, [pc, #432]	@ (80018d8 <ESP01_Task+0x848>)
 8001726:	681b      	ldr	r3, [r3, #0]
 8001728:	b10b      	cbz	r3, 800172e <ESP01_Task+0x69e>
 800172a:	486e      	ldr	r0, [pc, #440]	@ (80018e4 <ESP01_Task+0x854>)
 800172c:	4798      	blx	r3
 800172e:	2312      	movs	r3, #18
 8001730:	702b      	strb	r3, [r5, #0]
 8001732:	e010      	b.n	8001756 <ESP01_Task+0x6c6>
 8001734:	4b6a      	ldr	r3, [pc, #424]	@ (80018e0 <ESP01_Task+0x850>)
 8001736:	2001      	movs	r0, #1
 8001738:	681b      	ldr	r3, [r3, #0]
 800173a:	4798      	blx	r3
 800173c:	4b66      	ldr	r3, [pc, #408]	@ (80018d8 <ESP01_Task+0x848>)
 800173e:	681b      	ldr	r3, [r3, #0]
 8001740:	b10b      	cbz	r3, 8001746 <ESP01_Task+0x6b6>
 8001742:	4869      	ldr	r0, [pc, #420]	@ (80018e8 <ESP01_Task+0x858>)
 8001744:	4798      	blx	r3
 8001746:	2313      	movs	r3, #19
 8001748:	702b      	strb	r3, [r5, #0]
 800174a:	e772      	b.n	8001632 <ESP01_Task+0x5a2>
 800174c:	2301      	movs	r3, #1
 800174e:	702b      	strb	r3, [r5, #0]
 8001750:	4b66      	ldr	r3, [pc, #408]	@ (80018ec <ESP01_Task+0x85c>)
 8001752:	2200      	movs	r2, #0
 8001754:	701a      	strb	r2, [r3, #0]
 8001756:	7823      	ldrb	r3, [r4, #0]
 8001758:	07da      	lsls	r2, r3, #31
 800175a:	f140 81e1 	bpl.w	8001b20 <ESP01_Task+0xa90>
 800175e:	4a64      	ldr	r2, [pc, #400]	@ (80018f0 <ESP01_Task+0x860>)
 8001760:	6812      	ldr	r2, [r2, #0]
 8001762:	b95a      	cbnz	r2, 800177c <ESP01_Task+0x6ec>
 8001764:	f362 0300 	bfi	r3, r2, #0, #1
 8001768:	4962      	ldr	r1, [pc, #392]	@ (80018f4 <ESP01_Task+0x864>)
 800176a:	7023      	strb	r3, [r4, #0]
 800176c:	4b62      	ldr	r3, [pc, #392]	@ (80018f8 <ESP01_Task+0x868>)
 800176e:	8808      	ldrh	r0, [r1, #0]
 8001770:	4962      	ldr	r1, [pc, #392]	@ (80018fc <ESP01_Task+0x86c>)
 8001772:	2201      	movs	r2, #1
 8001774:	701a      	strb	r2, [r3, #0]
 8001776:	230a      	movs	r3, #10
 8001778:	8008      	strh	r0, [r1, #0]
 800177a:	603b      	str	r3, [r7, #0]
 800177c:	4954      	ldr	r1, [pc, #336]	@ (80018d0 <ESP01_Task+0x840>)
 800177e:	4855      	ldr	r0, [pc, #340]	@ (80018d4 <ESP01_Task+0x844>)
 8001780:	f7fe fd2e 	bl	80001e0 <strcmp>
 8001784:	bb10      	cbnz	r0, 80017cc <ESP01_Task+0x73c>
 8001786:	7823      	ldrb	r3, [r4, #0]
 8001788:	065a      	lsls	r2, r3, #25
 800178a:	d51f      	bpl.n	80017cc <ESP01_Task+0x73c>
 800178c:	4d5c      	ldr	r5, [pc, #368]	@ (8001900 <ESP01_Task+0x870>)
 800178e:	f003 f8c9 	bl	8004924 <HAL_GetTick>
 8001792:	7829      	ldrb	r1, [r5, #0]
 8001794:	f241 3288 	movw	r2, #5000	@ 0x1388
 8001798:	f242 7310 	movw	r3, #10000	@ 0x2710
 800179c:	2913      	cmp	r1, #19
 800179e:	bf98      	it	ls
 80017a0:	4613      	movls	r3, r2
 80017a2:	4958      	ldr	r1, [pc, #352]	@ (8001904 <ESP01_Task+0x874>)
 80017a4:	680a      	ldr	r2, [r1, #0]
 80017a6:	1a82      	subs	r2, r0, r2
 80017a8:	429a      	cmp	r2, r3
 80017aa:	d30f      	bcc.n	80017cc <ESP01_Task+0x73c>
 80017ac:	7823      	ldrb	r3, [r4, #0]
 80017ae:	071b      	lsls	r3, r3, #28
 80017b0:	d40c      	bmi.n	80017cc <ESP01_Task+0x73c>
 80017b2:	4b55      	ldr	r3, [pc, #340]	@ (8001908 <ESP01_Task+0x878>)
 80017b4:	8832      	ldrh	r2, [r6, #0]
 80017b6:	881b      	ldrh	r3, [r3, #0]
 80017b8:	429a      	cmp	r2, r3
 80017ba:	d107      	bne.n	80017cc <ESP01_Task+0x73c>
 80017bc:	6008      	str	r0, [r1, #0]
 80017be:	f001 f87d 	bl	80028bc <UNER_SendAlive>
 80017c2:	782b      	ldrb	r3, [r5, #0]
 80017c4:	2bff      	cmp	r3, #255	@ 0xff
 80017c6:	bf1c      	itt	ne
 80017c8:	3301      	addne	r3, #1
 80017ca:	702b      	strbne	r3, [r5, #0]
 80017cc:	b005      	add	sp, #20
 80017ce:	e8bd 8ff0 	ldmia.w	sp!, {r4, r5, r6, r7, r8, r9, sl, fp, pc}
 80017d2:	4a46      	ldr	r2, [pc, #280]	@ (80018ec <ESP01_Task+0x85c>)
 80017d4:	7813      	ldrb	r3, [r2, #0]
 80017d6:	b12b      	cbz	r3, 80017e4 <ESP01_Task+0x754>
 80017d8:	3b01      	subs	r3, #1
 80017da:	b2db      	uxtb	r3, r3
 80017dc:	7013      	strb	r3, [r2, #0]
 80017de:	b91b      	cbnz	r3, 80017e8 <ESP01_Task+0x758>
 80017e0:	2311      	movs	r3, #17
 80017e2:	e7a5      	b.n	8001730 <ESP01_Task+0x6a0>
 80017e4:	2304      	movs	r3, #4
 80017e6:	7013      	strb	r3, [r2, #0]
 80017e8:	7823      	ldrb	r3, [r4, #0]
 80017ea:	f8df 80ec 	ldr.w	r8, [pc, #236]	@ 80018d8 <ESP01_Task+0x848>
 80017ee:	4847      	ldr	r0, [pc, #284]	@ (800190c <ESP01_Task+0x87c>)
 80017f0:	f023 0320 	bic.w	r3, r3, #32
 80017f4:	7023      	strb	r3, [r4, #0]
 80017f6:	f8d8 3000 	ldr.w	r3, [r8]
 80017fa:	4798      	blx	r3
 80017fc:	4844      	ldr	r0, [pc, #272]	@ (8001910 <ESP01_Task+0x880>)
 80017fe:	f7ff fa23 	bl	8000c48 <ESP01StrToBufTX>
 8001802:	f8d8 3000 	ldr.w	r3, [r8]
 8001806:	b10b      	cbz	r3, 800180c <ESP01_Task+0x77c>
 8001808:	4842      	ldr	r0, [pc, #264]	@ (8001914 <ESP01_Task+0x884>)
 800180a:	4798      	blx	r3
 800180c:	2302      	movs	r3, #2
 800180e:	e78f      	b.n	8001730 <ESP01_Task+0x6a0>
 8001810:	7823      	ldrb	r3, [r4, #0]
 8001812:	069a      	lsls	r2, r3, #26
 8001814:	f140 80ff 	bpl.w	8001a16 <ESP01_Task+0x986>
 8001818:	2304      	movs	r3, #4
 800181a:	e789      	b.n	8001730 <ESP01_Task+0x6a0>
 800181c:	483e      	ldr	r0, [pc, #248]	@ (8001918 <ESP01_Task+0x888>)
 800181e:	f7ff fa13 	bl	8000c48 <ESP01StrToBufTX>
 8001822:	7823      	ldrb	r3, [r4, #0]
 8001824:	f023 0320 	bic.w	r3, r3, #32
 8001828:	7023      	strb	r3, [r4, #0]
 800182a:	2305      	movs	r3, #5
 800182c:	e780      	b.n	8001730 <ESP01_Task+0x6a0>
 800182e:	7823      	ldrb	r3, [r4, #0]
 8001830:	069b      	lsls	r3, r3, #26
 8001832:	d590      	bpl.n	8001756 <ESP01_Task+0x6c6>
 8001834:	2306      	movs	r3, #6
 8001836:	e77b      	b.n	8001730 <ESP01_Task+0x6a0>
 8001838:	4838      	ldr	r0, [pc, #224]	@ (800191c <ESP01_Task+0x88c>)
 800183a:	f7ff fa05 	bl	8000c48 <ESP01StrToBufTX>
 800183e:	7823      	ldrb	r3, [r4, #0]
 8001840:	f023 0320 	bic.w	r3, r3, #32
 8001844:	7023      	strb	r3, [r4, #0]
 8001846:	2307      	movs	r3, #7
 8001848:	e772      	b.n	8001730 <ESP01_Task+0x6a0>
 800184a:	7823      	ldrb	r3, [r4, #0]
 800184c:	0698      	lsls	r0, r3, #26
 800184e:	d582      	bpl.n	8001756 <ESP01_Task+0x6c6>
 8001850:	2308      	movs	r3, #8
 8001852:	e76d      	b.n	8001730 <ESP01_Task+0x6a0>
 8001854:	4932      	ldr	r1, [pc, #200]	@ (8001920 <ESP01_Task+0x890>)
 8001856:	481f      	ldr	r0, [pc, #124]	@ (80018d4 <ESP01_Task+0x844>)
 8001858:	f7fe fcc2 	bl	80001e0 <strcmp>
 800185c:	4b1e      	ldr	r3, [pc, #120]	@ (80018d8 <ESP01_Task+0x848>)
 800185e:	f8d3 8000 	ldr.w	r8, [r3]
 8001862:	b948      	cbnz	r0, 8001878 <ESP01_Task+0x7e8>
 8001864:	482f      	ldr	r0, [pc, #188]	@ (8001924 <ESP01_Task+0x894>)
 8001866:	f7ff f9ef 	bl	8000c48 <ESP01StrToBufTX>
 800186a:	482f      	ldr	r0, [pc, #188]	@ (8001928 <ESP01_Task+0x898>)
 800186c:	f7ff f9ec 	bl	8000c48 <ESP01StrToBufTX>
 8001870:	482e      	ldr	r0, [pc, #184]	@ (800192c <ESP01_Task+0x89c>)
 8001872:	47c0      	blx	r8
 8001874:	230a      	movs	r3, #10
 8001876:	e75b      	b.n	8001730 <ESP01_Task+0x6a0>
 8001878:	482d      	ldr	r0, [pc, #180]	@ (8001930 <ESP01_Task+0x8a0>)
 800187a:	f7ff f9e5 	bl	8000c48 <ESP01StrToBufTX>
 800187e:	482d      	ldr	r0, [pc, #180]	@ (8001934 <ESP01_Task+0x8a4>)
 8001880:	47c0      	blx	r8
 8001882:	230f      	movs	r3, #15
 8001884:	e754      	b.n	8001730 <ESP01_Task+0x6a0>
 8001886:	482c      	ldr	r0, [pc, #176]	@ (8001938 <ESP01_Task+0x8a8>)
 8001888:	f7ff f9de 	bl	8000c48 <ESP01StrToBufTX>
 800188c:	482b      	ldr	r0, [pc, #172]	@ (800193c <ESP01_Task+0x8ac>)
 800188e:	f7ff f9db 	bl	8000c48 <ESP01StrToBufTX>
 8001892:	4827      	ldr	r0, [pc, #156]	@ (8001930 <ESP01_Task+0x8a0>)
 8001894:	f7ff f9d8 	bl	8000c48 <ESP01StrToBufTX>
 8001898:	4829      	ldr	r0, [pc, #164]	@ (8001940 <ESP01_Task+0x8b0>)
 800189a:	f7ff f9d5 	bl	8000c48 <ESP01StrToBufTX>
 800189e:	4b29      	ldr	r3, [pc, #164]	@ (8001944 <ESP01_Task+0x8b4>)
 80018a0:	6818      	ldr	r0, [r3, #0]
 80018a2:	f7ff f9d1 	bl	8000c48 <ESP01StrToBufTX>
 80018a6:	4828      	ldr	r0, [pc, #160]	@ (8001948 <ESP01_Task+0x8b8>)
 80018a8:	f7ff f9ce 	bl	8000c48 <ESP01StrToBufTX>
 80018ac:	4827      	ldr	r0, [pc, #156]	@ (800194c <ESP01_Task+0x8bc>)
 80018ae:	f7ff f9cb 	bl	8000c48 <ESP01StrToBufTX>
 80018b2:	4827      	ldr	r0, [pc, #156]	@ (8001950 <ESP01_Task+0x8c0>)
 80018b4:	f7ff f9c8 	bl	8000c48 <ESP01StrToBufTX>
 80018b8:	4826      	ldr	r0, [pc, #152]	@ (8001954 <ESP01_Task+0x8c4>)
 80018ba:	f7ff f9c5 	bl	8000c48 <ESP01StrToBufTX>
 80018be:	4826      	ldr	r0, [pc, #152]	@ (8001958 <ESP01_Task+0x8c8>)
 80018c0:	f7ff f9c2 	bl	8000c48 <ESP01StrToBufTX>
 80018c4:	230e      	movs	r3, #14
 80018c6:	702b      	strb	r3, [r5, #0]
 80018c8:	f640 33b8 	movw	r3, #3000	@ 0xbb8
 80018cc:	e724      	b.n	8001718 <ESP01_Task+0x688>
 80018ce:	bf00      	nop
 80018d0:	0800b737 	.word	0x0800b737
 80018d4:	20000000 	.word	0x20000000
 80018d8:	200003a8 	.word	0x200003a8
 80018dc:	0800b8b0 	.word	0x0800b8b0
 80018e0:	200001dc 	.word	0x200001dc
 80018e4:	0800b8c6 	.word	0x0800b8c6
 80018e8:	0800b8dc 	.word	0x0800b8dc
 80018ec:	200001f0 	.word	0x200001f0
 80018f0:	200003b0 	.word	0x200003b0
 80018f4:	200001f2 	.word	0x200001f2
 80018f8:	200003bd 	.word	0x200003bd
 80018fc:	200001f4 	.word	0x200001f4
 8001900:	200003be 	.word	0x200003be
 8001904:	200001d0 	.word	0x200001d0
 8001908:	200001f8 	.word	0x200001f8
 800190c:	0800b8f2 	.word	0x0800b8f2
 8001910:	0800be3f 	.word	0x0800be3f
 8001914:	0800b921 	.word	0x0800b921
 8001918:	0800b92f 	.word	0x0800b92f
 800191c:	0800b93d 	.word	0x0800b93d
 8001920:	0800b7cd 	.word	0x0800b7cd
 8001924:	0800b94d 	.word	0x0800b94d
 8001928:	0800b95b 	.word	0x0800b95b
 800192c:	0800b96f 	.word	0x0800b96f
 8001930:	0800b98a 	.word	0x0800b98a
 8001934:	0800b998 	.word	0x0800b998
 8001938:	0800b9b4 	.word	0x0800b9b4
 800193c:	0800be0d 	.word	0x0800be0d
 8001940:	0800b9c5 	.word	0x0800b9c5
 8001944:	2000039c 	.word	0x2000039c
 8001948:	0800b9d9 	.word	0x0800b9d9
 800194c:	20000393 	.word	0x20000393
 8001950:	0800b9da 	.word	0x0800b9da
 8001954:	2000037d 	.word	0x2000037d
 8001958:	0800b9dc 	.word	0x0800b9dc
 800195c:	7823      	ldrb	r3, [r4, #0]
 800195e:	0799      	lsls	r1, r3, #30
 8001960:	d488      	bmi.n	8001874 <ESP01_Task+0x7e4>
 8001962:	4b85      	ldr	r3, [pc, #532]	@ (8001b78 <ESP01_Task+0xae8>)
 8001964:	f8d3 8000 	ldr.w	r8, [r3]
 8001968:	f1b8 0f00 	cmp.w	r8, #0
 800196c:	f43f aef3 	beq.w	8001756 <ESP01_Task+0x6c6>
 8001970:	4882      	ldr	r0, [pc, #520]	@ (8001b7c <ESP01_Task+0xaec>)
 8001972:	f7ff f969 	bl	8000c48 <ESP01StrToBufTX>
 8001976:	2022      	movs	r0, #34	@ 0x22
 8001978:	f7ff f980 	bl	8000c7c <ESP01ByteToBufTX>
 800197c:	4640      	mov	r0, r8
 800197e:	f7ff f963 	bl	8000c48 <ESP01StrToBufTX>
 8001982:	2022      	movs	r0, #34	@ 0x22
 8001984:	f7ff f97a 	bl	8000c7c <ESP01ByteToBufTX>
 8001988:	202c      	movs	r0, #44	@ 0x2c
 800198a:	f7ff f977 	bl	8000c7c <ESP01ByteToBufTX>
 800198e:	2022      	movs	r0, #34	@ 0x22
 8001990:	f7ff f974 	bl	8000c7c <ESP01ByteToBufTX>
 8001994:	4b7a      	ldr	r3, [pc, #488]	@ (8001b80 <ESP01_Task+0xaf0>)
 8001996:	6818      	ldr	r0, [r3, #0]
 8001998:	f7ff f956 	bl	8000c48 <ESP01StrToBufTX>
 800199c:	2022      	movs	r0, #34	@ 0x22
 800199e:	f7ff f96d 	bl	8000c7c <ESP01ByteToBufTX>
 80019a2:	200d      	movs	r0, #13
 80019a4:	f7ff f96a 	bl	8000c7c <ESP01ByteToBufTX>
 80019a8:	200a      	movs	r0, #10
 80019aa:	f7ff f967 	bl	8000c7c <ESP01ByteToBufTX>
 80019ae:	4b75      	ldr	r3, [pc, #468]	@ (8001b84 <ESP01_Task+0xaf4>)
 80019b0:	681b      	ldr	r3, [r3, #0]
 80019b2:	b10b      	cbz	r3, 80019b8 <ESP01_Task+0x928>
 80019b4:	4874      	ldr	r0, [pc, #464]	@ (8001b88 <ESP01_Task+0xaf8>)
 80019b6:	4798      	blx	r3
 80019b8:	7823      	ldrb	r3, [r4, #0]
 80019ba:	f023 0320 	bic.w	r3, r3, #32
 80019be:	7023      	strb	r3, [r4, #0]
 80019c0:	2309      	movs	r3, #9
 80019c2:	702b      	strb	r3, [r5, #0]
 80019c4:	f240 53dc 	movw	r3, #1500	@ 0x5dc
 80019c8:	e6a6      	b.n	8001718 <ESP01_Task+0x688>
 80019ca:	7823      	ldrb	r3, [r4, #0]
 80019cc:	069a      	lsls	r2, r3, #26
 80019ce:	d522      	bpl.n	8001a16 <ESP01_Task+0x986>
 80019d0:	230a      	movs	r3, #10
 80019d2:	702b      	strb	r3, [r5, #0]
 80019d4:	2204      	movs	r2, #4
 80019d6:	4b6d      	ldr	r3, [pc, #436]	@ (8001b8c <ESP01_Task+0xafc>)
 80019d8:	e6bc      	b.n	8001754 <ESP01_Task+0x6c4>
 80019da:	4b6d      	ldr	r3, [pc, #436]	@ (8001b90 <ESP01_Task+0xb00>)
 80019dc:	486d      	ldr	r0, [pc, #436]	@ (8001b94 <ESP01_Task+0xb04>)
 80019de:	2200      	movs	r2, #0
 80019e0:	701a      	strb	r2, [r3, #0]
 80019e2:	f7ff f931 	bl	8000c48 <ESP01StrToBufTX>
 80019e6:	4b67      	ldr	r3, [pc, #412]	@ (8001b84 <ESP01_Task+0xaf4>)
 80019e8:	681b      	ldr	r3, [r3, #0]
 80019ea:	b10b      	cbz	r3, 80019f0 <ESP01_Task+0x960>
 80019ec:	486a      	ldr	r0, [pc, #424]	@ (8001b98 <ESP01_Task+0xb08>)
 80019ee:	4798      	blx	r3
 80019f0:	7823      	ldrb	r3, [r4, #0]
 80019f2:	f023 0320 	bic.w	r3, r3, #32
 80019f6:	7023      	strb	r3, [r4, #0]
 80019f8:	230b      	movs	r3, #11
 80019fa:	e699      	b.n	8001730 <ESP01_Task+0x6a0>
 80019fc:	7823      	ldrb	r3, [r4, #0]
 80019fe:	069b      	lsls	r3, r3, #26
 8001a00:	d501      	bpl.n	8001a06 <ESP01_Task+0x976>
 8001a02:	230c      	movs	r3, #12
 8001a04:	e694      	b.n	8001730 <ESP01_Task+0x6a0>
 8001a06:	4a61      	ldr	r2, [pc, #388]	@ (8001b8c <ESP01_Task+0xafc>)
 8001a08:	7813      	ldrb	r3, [r2, #0]
 8001a0a:	3b01      	subs	r3, #1
 8001a0c:	b2db      	uxtb	r3, r3
 8001a0e:	7013      	strb	r3, [r2, #0]
 8001a10:	2b00      	cmp	r3, #0
 8001a12:	f47f af2f 	bne.w	8001874 <ESP01_Task+0x7e4>
 8001a16:	2301      	movs	r3, #1
 8001a18:	e68a      	b.n	8001730 <ESP01_Task+0x6a0>
 8001a1a:	4b60      	ldr	r3, [pc, #384]	@ (8001b9c <ESP01_Task+0xb0c>)
 8001a1c:	681b      	ldr	r3, [r3, #0]
 8001a1e:	2b00      	cmp	r3, #0
 8001a20:	f43f ae99 	beq.w	8001756 <ESP01_Task+0x6c6>
 8001a24:	485e      	ldr	r0, [pc, #376]	@ (8001ba0 <ESP01_Task+0xb10>)
 8001a26:	f7ff f90f 	bl	8000c48 <ESP01StrToBufTX>
 8001a2a:	4b56      	ldr	r3, [pc, #344]	@ (8001b84 <ESP01_Task+0xaf4>)
 8001a2c:	681b      	ldr	r3, [r3, #0]
 8001a2e:	b10b      	cbz	r3, 8001a34 <ESP01_Task+0x9a4>
 8001a30:	485c      	ldr	r0, [pc, #368]	@ (8001ba4 <ESP01_Task+0xb14>)
 8001a32:	4798      	blx	r3
 8001a34:	230d      	movs	r3, #13
 8001a36:	e67b      	b.n	8001730 <ESP01_Task+0x6a0>
 8001a38:	485b      	ldr	r0, [pc, #364]	@ (8001ba8 <ESP01_Task+0xb18>)
 8001a3a:	f7ff f905 	bl	8000c48 <ESP01StrToBufTX>
 8001a3e:	2022      	movs	r0, #34	@ 0x22
 8001a40:	f7ff f91c 	bl	8000c7c <ESP01ByteToBufTX>
 8001a44:	4859      	ldr	r0, [pc, #356]	@ (8001bac <ESP01_Task+0xb1c>)
 8001a46:	f7ff f8ff 	bl	8000c48 <ESP01StrToBufTX>
 8001a4a:	2022      	movs	r0, #34	@ 0x22
 8001a4c:	f7ff f916 	bl	8000c7c <ESP01ByteToBufTX>
 8001a50:	202c      	movs	r0, #44	@ 0x2c
 8001a52:	f7ff f913 	bl	8000c7c <ESP01ByteToBufTX>
 8001a56:	2022      	movs	r0, #34	@ 0x22
 8001a58:	f7ff f910 	bl	8000c7c <ESP01ByteToBufTX>
 8001a5c:	4b4f      	ldr	r3, [pc, #316]	@ (8001b9c <ESP01_Task+0xb0c>)
 8001a5e:	6818      	ldr	r0, [r3, #0]
 8001a60:	f7ff f8f2 	bl	8000c48 <ESP01StrToBufTX>
 8001a64:	2022      	movs	r0, #34	@ 0x22
 8001a66:	f7ff f909 	bl	8000c7c <ESP01ByteToBufTX>
 8001a6a:	202c      	movs	r0, #44	@ 0x2c
 8001a6c:	f7ff f906 	bl	8000c7c <ESP01ByteToBufTX>
 8001a70:	484f      	ldr	r0, [pc, #316]	@ (8001bb0 <ESP01_Task+0xb20>)
 8001a72:	f7ff f8e9 	bl	8000c48 <ESP01StrToBufTX>
 8001a76:	202c      	movs	r0, #44	@ 0x2c
 8001a78:	f7ff f900 	bl	8000c7c <ESP01ByteToBufTX>
 8001a7c:	484d      	ldr	r0, [pc, #308]	@ (8001bb4 <ESP01_Task+0xb24>)
 8001a7e:	f7ff f8e3 	bl	8000c48 <ESP01StrToBufTX>
 8001a82:	484d      	ldr	r0, [pc, #308]	@ (8001bb8 <ESP01_Task+0xb28>)
 8001a84:	f7ff f8e0 	bl	8000c48 <ESP01StrToBufTX>
 8001a88:	4b3e      	ldr	r3, [pc, #248]	@ (8001b84 <ESP01_Task+0xaf4>)
 8001a8a:	681b      	ldr	r3, [r3, #0]
 8001a8c:	b10b      	cbz	r3, 8001a92 <ESP01_Task+0xa02>
 8001a8e:	484b      	ldr	r0, [pc, #300]	@ (8001bbc <ESP01_Task+0xb2c>)
 8001a90:	4798      	blx	r3
 8001a92:	7823      	ldrb	r3, [r4, #0]
 8001a94:	494a      	ldr	r1, [pc, #296]	@ (8001bc0 <ESP01_Task+0xb30>)
 8001a96:	4845      	ldr	r0, [pc, #276]	@ (8001bac <ESP01_Task+0xb1c>)
 8001a98:	f023 0360 	bic.w	r3, r3, #96	@ 0x60
 8001a9c:	7023      	strb	r3, [r4, #0]
 8001a9e:	230e      	movs	r3, #14
 8001aa0:	702b      	strb	r3, [r5, #0]
 8001aa2:	f7fe fb9d 	bl	80001e0 <strcmp>
 8001aa6:	2800      	cmp	r0, #0
 8001aa8:	f43f af0e 	beq.w	80018c8 <ESP01_Task+0x838>
 8001aac:	f247 5330 	movw	r3, #30000	@ 0x7530
 8001ab0:	e632      	b.n	8001718 <ESP01_Task+0x688>
 8001ab2:	7823      	ldrb	r3, [r4, #0]
 8001ab4:	f013 0220 	ands.w	r2, r3, #32
 8001ab8:	d016      	beq.n	8001ae8 <ESP01_Task+0xa58>
 8001aba:	2210      	movs	r2, #16
 8001abc:	f043 0340 	orr.w	r3, r3, #64	@ 0x40
 8001ac0:	493f      	ldr	r1, [pc, #252]	@ (8001bc0 <ESP01_Task+0xb30>)
 8001ac2:	483a      	ldr	r0, [pc, #232]	@ (8001bac <ESP01_Task+0xb1c>)
 8001ac4:	702a      	strb	r2, [r5, #0]
 8001ac6:	7023      	strb	r3, [r4, #0]
 8001ac8:	f7fe fb8a 	bl	80001e0 <strcmp>
 8001acc:	b920      	cbnz	r0, 8001ad8 <ESP01_Task+0xa48>
 8001ace:	4b2d      	ldr	r3, [pc, #180]	@ (8001b84 <ESP01_Task+0xaf4>)
 8001ad0:	681b      	ldr	r3, [r3, #0]
 8001ad2:	b10b      	cbz	r3, 8001ad8 <ESP01_Task+0xa48>
 8001ad4:	483b      	ldr	r0, [pc, #236]	@ (8001bc4 <ESP01_Task+0xb34>)
 8001ad6:	4798      	blx	r3
 8001ad8:	4b3b      	ldr	r3, [pc, #236]	@ (8001bc8 <ESP01_Task+0xb38>)
 8001ada:	681b      	ldr	r3, [r3, #0]
 8001adc:	2b00      	cmp	r3, #0
 8001ade:	f43f ae3a 	beq.w	8001756 <ESP01_Task+0x6c6>
 8001ae2:	2008      	movs	r0, #8
 8001ae4:	f7ff bb07 	b.w	80010f6 <ESP01_Task+0x66>
 8001ae8:	4b38      	ldr	r3, [pc, #224]	@ (8001bcc <ESP01_Task+0xb3c>)
 8001aea:	7819      	ldrb	r1, [r3, #0]
 8001aec:	b159      	cbz	r1, 8001b06 <ESP01_Task+0xa76>
 8001aee:	4838      	ldr	r0, [pc, #224]	@ (8001bd0 <ESP01_Task+0xb40>)
 8001af0:	701a      	strb	r2, [r3, #0]
 8001af2:	f001 f962 	bl	8002dba <USB_DebugStr>
 8001af6:	f247 5230 	movw	r2, #30000	@ 0x7530
 8001afa:	f247 513a 	movw	r1, #30010	@ 0x753a
 8001afe:	4835      	ldr	r0, [pc, #212]	@ (8001bd4 <ESP01_Task+0xb44>)
 8001b00:	f7ff f8ea 	bl	8000cd8 <ESP01_StartUDP>
 8001b04:	e627      	b.n	8001756 <ESP01_Task+0x6c6>
 8001b06:	230d      	movs	r3, #13
 8001b08:	702b      	strb	r3, [r5, #0]
 8001b0a:	f44f 737a 	mov.w	r3, #1000	@ 0x3e8
 8001b0e:	e603      	b.n	8001718 <ESP01_Task+0x688>
 8001b10:	4b1c      	ldr	r3, [pc, #112]	@ (8001b84 <ESP01_Task+0xaf4>)
 8001b12:	681b      	ldr	r3, [r3, #0]
 8001b14:	2b00      	cmp	r3, #0
 8001b16:	f43f adbc 	beq.w	8001692 <ESP01_Task+0x602>
 8001b1a:	482f      	ldr	r0, [pc, #188]	@ (8001bd8 <ESP01_Task+0xb48>)
 8001b1c:	4798      	blx	r3
 8001b1e:	e5b8      	b.n	8001692 <ESP01_Task+0x602>
 8001b20:	4d2e      	ldr	r5, [pc, #184]	@ (8001bdc <ESP01_Task+0xb4c>)
 8001b22:	492f      	ldr	r1, [pc, #188]	@ (8001be0 <ESP01_Task+0xb50>)
 8001b24:	882a      	ldrh	r2, [r5, #0]
 8001b26:	8809      	ldrh	r1, [r1, #0]
 8001b28:	4291      	cmp	r1, r2
 8001b2a:	f43f ae27 	beq.w	800177c <ESP01_Task+0x6ec>
 8001b2e:	4f2d      	ldr	r7, [pc, #180]	@ (8001be4 <ESP01_Task+0xb54>)
 8001b30:	075b      	lsls	r3, r3, #29
 8001b32:	5cb8      	ldrb	r0, [r7, r2]
 8001b34:	d502      	bpl.n	8001b3c <ESP01_Task+0xaac>
 8001b36:	283e      	cmp	r0, #62	@ 0x3e
 8001b38:	bf08      	it	eq
 8001b3a:	200a      	moveq	r0, #10
 8001b3c:	4b2a      	ldr	r3, [pc, #168]	@ (8001be8 <ESP01_Task+0xb58>)
 8001b3e:	685b      	ldr	r3, [r3, #4]
 8001b40:	4798      	blx	r3
 8001b42:	2800      	cmp	r0, #0
 8001b44:	f43f ae1a 	beq.w	800177c <ESP01_Task+0x6ec>
 8001b48:	7822      	ldrb	r2, [r4, #0]
 8001b4a:	882b      	ldrh	r3, [r5, #0]
 8001b4c:	0751      	lsls	r1, r2, #29
 8001b4e:	d50a      	bpl.n	8001b66 <ESP01_Task+0xad6>
 8001b50:	5cf9      	ldrb	r1, [r7, r3]
 8001b52:	293e      	cmp	r1, #62	@ 0x3e
 8001b54:	d107      	bne.n	8001b66 <ESP01_Task+0xad6>
 8001b56:	f022 0205 	bic.w	r2, r2, #5
 8001b5a:	f042 0201 	orr.w	r2, r2, #1
 8001b5e:	7022      	strb	r2, [r4, #0]
 8001b60:	4a22      	ldr	r2, [pc, #136]	@ (8001bec <ESP01_Task+0xb5c>)
 8001b62:	2105      	movs	r1, #5
 8001b64:	6011      	str	r1, [r2, #0]
 8001b66:	3301      	adds	r3, #1
 8001b68:	b29b      	uxth	r3, r3
 8001b6a:	f5b3 7f80 	cmp.w	r3, #256	@ 0x100
 8001b6e:	bf08      	it	eq
 8001b70:	2300      	moveq	r3, #0
 8001b72:	802b      	strh	r3, [r5, #0]
 8001b74:	e602      	b.n	800177c <ESP01_Task+0x6ec>
 8001b76:	bf00      	nop
 8001b78:	200003a4 	.word	0x200003a4
 8001b7c:	0800be35 	.word	0x0800be35
 8001b80:	200003a0 	.word	0x200003a0
 8001b84:	200003a8 	.word	0x200003a8
 8001b88:	0800b9e1 	.word	0x0800b9e1
 8001b8c:	200001f0 	.word	0x200001f0
 8001b90:	20000383 	.word	0x20000383
 8001b94:	0800be2a 	.word	0x0800be2a
 8001b98:	0800b9f4 	.word	0x0800b9f4
 8001b9c:	2000039c 	.word	0x2000039c
 8001ba0:	0800be0d 	.word	0x0800be0d
 8001ba4:	0800ba05 	.word	0x0800ba05
 8001ba8:	0800be1d 	.word	0x0800be1d
 8001bac:	20000000 	.word	0x20000000
 8001bb0:	20000393 	.word	0x20000393
 8001bb4:	2000037d 	.word	0x2000037d
 8001bb8:	0800b9dc 	.word	0x0800b9dc
 8001bbc:	0800ba1b 	.word	0x0800ba1b
 8001bc0:	0800b737 	.word	0x0800b737
 8001bc4:	0800ba31 	.word	0x0800ba31
 8001bc8:	200003ac 	.word	0x200003ac
 8001bcc:	200001d9 	.word	0x200001d9
 8001bd0:	0800ba61 	.word	0x0800ba61
 8001bd4:	0800b73b 	.word	0x0800b73b
 8001bd8:	0800ba8e 	.word	0x0800ba8e
 8001bdc:	200001f4 	.word	0x200001f4
 8001be0:	200001f2 	.word	0x200001f2
 8001be4:	200001fa 	.word	0x200001fa
 8001be8:	200001dc 	.word	0x200001dc
 8001bec:	200003b0 	.word	0x200003b0

08001bf0 <ESP01_AttachChangeState>:
 8001bf0:	4b01      	ldr	r3, [pc, #4]	@ (8001bf8 <ESP01_AttachChangeState+0x8>)
 8001bf2:	6018      	str	r0, [r3, #0]
 8001bf4:	4770      	bx	lr
 8001bf6:	bf00      	nop
 8001bf8:	200003ac 	.word	0x200003ac

08001bfc <ESP01_AttachDebugStr>:
 8001bfc:	4b01      	ldr	r3, [pc, #4]	@ (8001c04 <ESP01_AttachDebugStr+0x8>)
 8001bfe:	6018      	str	r0, [r3, #0]
 8001c00:	4770      	bx	lr
 8001c02:	bf00      	nop
 8001c04:	200003a8 	.word	0x200003a8

08001c08 <ESP01_IsSending>:
 8001c08:	4b02      	ldr	r3, [pc, #8]	@ (8001c14 <ESP01_IsSending+0xc>)
 8001c0a:	7818      	ldrb	r0, [r3, #0]
 8001c0c:	f3c0 00c0 	ubfx	r0, r0, #3, #1
 8001c10:	4770      	bx	lr
 8001c12:	bf00      	nop
 8001c14:	200003bc 	.word	0x200003bc

08001c18 <ESP01_USB_DbgStr>:
 8001c18:	f001 b8cf 	b.w	8002dba <USB_DebugStr>

08001c1c <MPU6050_RegisterPlatform>:
 8001c1c:	4b01      	ldr	r3, [pc, #4]	@ (8001c24 <MPU6050_RegisterPlatform+0x8>)
 8001c1e:	6018      	str	r0, [r3, #0]
 8001c20:	4770      	bx	lr
 8001c22:	bf00      	nop
 8001c24:	200003f4 	.word	0x200003f4

08001c28 <MPU6050_Init>:
 8001c28:	b5f0      	push	{r4, r5, r6, r7, lr}
 8001c2a:	4e1d      	ldr	r6, [pc, #116]	@ (8001ca0 <MPU6050_Init+0x78>)
 8001c2c:	b085      	sub	sp, #20
 8001c2e:	6830      	ldr	r0, [r6, #0]
 8001c30:	2501      	movs	r5, #1
 8001c32:	9500      	str	r5, [sp, #0]
 8001c34:	6887      	ldr	r7, [r0, #8]
 8001c36:	6800      	ldr	r0, [r0, #0]
 8001c38:	f10d 030e 	add.w	r3, sp, #14
 8001c3c:	2400      	movs	r4, #0
 8001c3e:	2275      	movs	r2, #117	@ 0x75
 8001c40:	21d0      	movs	r1, #208	@ 0xd0
 8001c42:	f88d 400e 	strb.w	r4, [sp, #14]
 8001c46:	47b8      	blx	r7
 8001c48:	f89d 300e 	ldrb.w	r3, [sp, #14]
 8001c4c:	2b68      	cmp	r3, #104	@ 0x68
 8001c4e:	d123      	bne.n	8001c98 <MPU6050_Init+0x70>
 8001c50:	6830      	ldr	r0, [r6, #0]
 8001c52:	9500      	str	r5, [sp, #0]
 8001c54:	6847      	ldr	r7, [r0, #4]
 8001c56:	6800      	ldr	r0, [r0, #0]
 8001c58:	f88d 400f 	strb.w	r4, [sp, #15]
 8001c5c:	f10d 030f 	add.w	r3, sp, #15
 8001c60:	226b      	movs	r2, #107	@ 0x6b
 8001c62:	21d0      	movs	r1, #208	@ 0xd0
 8001c64:	47b8      	blx	r7
 8001c66:	6830      	ldr	r0, [r6, #0]
 8001c68:	9500      	str	r5, [sp, #0]
 8001c6a:	6847      	ldr	r7, [r0, #4]
 8001c6c:	6800      	ldr	r0, [r0, #0]
 8001c6e:	f88d 400f 	strb.w	r4, [sp, #15]
 8001c72:	f10d 030f 	add.w	r3, sp, #15
 8001c76:	221c      	movs	r2, #28
 8001c78:	21d0      	movs	r1, #208	@ 0xd0
 8001c7a:	47b8      	blx	r7
 8001c7c:	6830      	ldr	r0, [r6, #0]
 8001c7e:	9500      	str	r5, [sp, #0]
 8001c80:	6845      	ldr	r5, [r0, #4]
 8001c82:	6800      	ldr	r0, [r0, #0]
 8001c84:	f88d 400f 	strb.w	r4, [sp, #15]
 8001c88:	f10d 030f 	add.w	r3, sp, #15
 8001c8c:	221b      	movs	r2, #27
 8001c8e:	21d0      	movs	r1, #208	@ 0xd0
 8001c90:	47a8      	blx	r5
 8001c92:	4620      	mov	r0, r4
 8001c94:	b005      	add	sp, #20
 8001c96:	bdf0      	pop	{r4, r5, r6, r7, pc}
 8001c98:	f04f 30ff 	mov.w	r0, #4294967295
 8001c9c:	e7fa      	b.n	8001c94 <MPU6050_Init+0x6c>
 8001c9e:	bf00      	nop
 8001ca0:	200003f4 	.word	0x200003f4

08001ca4 <MPU6050_StartRead_DMA>:
 8001ca4:	b513      	push	{r0, r1, r4, lr}
 8001ca6:	4b07      	ldr	r3, [pc, #28]	@ (8001cc4 <MPU6050_StartRead_DMA+0x20>)
 8001ca8:	2200      	movs	r2, #0
 8001caa:	701a      	strb	r2, [r3, #0]
 8001cac:	4b06      	ldr	r3, [pc, #24]	@ (8001cc8 <MPU6050_StartRead_DMA+0x24>)
 8001cae:	6818      	ldr	r0, [r3, #0]
 8001cb0:	2306      	movs	r3, #6
 8001cb2:	9300      	str	r3, [sp, #0]
 8001cb4:	68c4      	ldr	r4, [r0, #12]
 8001cb6:	4b05      	ldr	r3, [pc, #20]	@ (8001ccc <MPU6050_StartRead_DMA+0x28>)
 8001cb8:	6800      	ldr	r0, [r0, #0]
 8001cba:	223b      	movs	r2, #59	@ 0x3b
 8001cbc:	21d0      	movs	r1, #208	@ 0xd0
 8001cbe:	47a0      	blx	r4
 8001cc0:	b002      	add	sp, #8
 8001cc2:	bd10      	pop	{r4, pc}
 8001cc4:	200003f2 	.word	0x200003f2
 8001cc8:	200003f4 	.word	0x200003f4
 8001ccc:	200003df 	.word	0x200003df

08001cd0 <MPU6050_IsDataReady>:
 8001cd0:	4b01      	ldr	r3, [pc, #4]	@ (8001cd8 <MPU6050_IsDataReady+0x8>)
 8001cd2:	7818      	ldrb	r0, [r3, #0]
 8001cd4:	4770      	bx	lr
 8001cd6:	bf00      	nop
 8001cd8:	200003d8 	.word	0x200003d8

08001cdc <MPU6050_ClearDataReady>:
 8001cdc:	4b01      	ldr	r3, [pc, #4]	@ (8001ce4 <MPU6050_ClearDataReady+0x8>)
 8001cde:	2200      	movs	r2, #0
 8001ce0:	701a      	strb	r2, [r3, #0]
 8001ce2:	4770      	bx	lr
 8001ce4:	200003d8 	.word	0x200003d8

08001ce8 <MPU6050_GetAccel>:
 8001ce8:	b118      	cbz	r0, 8001cf2 <MPU6050_GetAccel+0xa>
 8001cea:	4b07      	ldr	r3, [pc, #28]	@ (8001d08 <MPU6050_GetAccel+0x20>)
 8001cec:	f9b3 3000 	ldrsh.w	r3, [r3]
 8001cf0:	8003      	strh	r3, [r0, #0]
 8001cf2:	b119      	cbz	r1, 8001cfc <MPU6050_GetAccel+0x14>
 8001cf4:	4b05      	ldr	r3, [pc, #20]	@ (8001d0c <MPU6050_GetAccel+0x24>)
 8001cf6:	f9b3 3000 	ldrsh.w	r3, [r3]
 8001cfa:	800b      	strh	r3, [r1, #0]
 8001cfc:	b11a      	cbz	r2, 8001d06 <MPU6050_GetAccel+0x1e>
 8001cfe:	4b04      	ldr	r3, [pc, #16]	@ (8001d10 <MPU6050_GetAccel+0x28>)
 8001d00:	f9b3 3000 	ldrsh.w	r3, [r3]
 8001d04:	8013      	strh	r3, [r2, #0]
 8001d06:	4770      	bx	lr
 8001d08:	200003f0 	.word	0x200003f0
 8001d0c:	200003ee 	.word	0x200003ee
 8001d10:	200003ec 	.word	0x200003ec

08001d14 <MPU6050_GetGyro>:
 8001d14:	b118      	cbz	r0, 8001d1e <MPU6050_GetGyro+0xa>
 8001d16:	4b07      	ldr	r3, [pc, #28]	@ (8001d34 <MPU6050_GetGyro+0x20>)
 8001d18:	f9b3 3000 	ldrsh.w	r3, [r3]
 8001d1c:	8003      	strh	r3, [r0, #0]
 8001d1e:	b119      	cbz	r1, 8001d28 <MPU6050_GetGyro+0x14>
 8001d20:	4b05      	ldr	r3, [pc, #20]	@ (8001d38 <MPU6050_GetGyro+0x24>)
 8001d22:	f9b3 3000 	ldrsh.w	r3, [r3]
 8001d26:	800b      	strh	r3, [r1, #0]
 8001d28:	b11a      	cbz	r2, 8001d32 <MPU6050_GetGyro+0x1e>
 8001d2a:	4b04      	ldr	r3, [pc, #16]	@ (8001d3c <MPU6050_GetGyro+0x28>)
 8001d2c:	f9b3 3000 	ldrsh.w	r3, [r3]
 8001d30:	8013      	strh	r3, [r2, #0]
 8001d32:	4770      	bx	lr
 8001d34:	200003ea 	.word	0x200003ea
 8001d38:	200003e8 	.word	0x200003e8
 8001d3c:	200003e6 	.word	0x200003e6

08001d40 <MPU6050_ProcessDMA>:
 8001d40:	b537      	push	{r0, r1, r2, r4, r5, lr}
 8001d42:	4855      	ldr	r0, [pc, #340]	@ (8001e98 <MPU6050_ProcessDMA+0x158>)
 8001d44:	7803      	ldrb	r3, [r0, #0]
 8001d46:	f003 04ff 	and.w	r4, r3, #255	@ 0xff
 8001d4a:	2b00      	cmp	r3, #0
 8001d4c:	d153      	bne.n	8001df6 <MPU6050_ProcessDMA+0xb6>
 8001d4e:	4953      	ldr	r1, [pc, #332]	@ (8001e9c <MPU6050_ProcessDMA+0x15c>)
 8001d50:	4a53      	ldr	r2, [pc, #332]	@ (8001ea0 <MPU6050_ProcessDMA+0x160>)
 8001d52:	880b      	ldrh	r3, [r1, #0]
 8001d54:	6812      	ldr	r2, [r2, #0]
 8001d56:	4d53      	ldr	r5, [pc, #332]	@ (8001ea4 <MPU6050_ProcessDMA+0x164>)
 8001d58:	ba5b      	rev16	r3, r3
 8001d5a:	1a9b      	subs	r3, r3, r2
 8001d5c:	884a      	ldrh	r2, [r1, #2]
 8001d5e:	682d      	ldr	r5, [r5, #0]
 8001d60:	8889      	ldrh	r1, [r1, #4]
 8001d62:	ba52      	rev16	r2, r2
 8001d64:	1b52      	subs	r2, r2, r5
 8001d66:	4d50      	ldr	r5, [pc, #320]	@ (8001ea8 <MPU6050_ProcessDMA+0x168>)
 8001d68:	682d      	ldr	r5, [r5, #0]
 8001d6a:	b21b      	sxth	r3, r3
 8001d6c:	ba49      	rev16	r1, r1
 8001d6e:	1b49      	subs	r1, r1, r5
 8001d70:	ea83 75e3 	eor.w	r5, r3, r3, asr #31
 8001d74:	eba5 75e3 	sub.w	r5, r5, r3, asr #31
 8001d78:	b2ad      	uxth	r5, r5
 8001d7a:	f5b5 7fe1 	cmp.w	r5, #450	@ 0x1c2
 8001d7e:	bf86      	itte	hi
 8001d80:	f240 34d5 	movwhi	r4, #981	@ 0x3d5
 8001d84:	fb13 f304 	smulbbhi	r3, r3, r4
 8001d88:	4623      	movls	r3, r4
 8001d8a:	4c48      	ldr	r4, [pc, #288]	@ (8001eac <MPU6050_ProcessDMA+0x16c>)
 8001d8c:	b212      	sxth	r2, r2
 8001d8e:	bf88      	it	hi
 8001d90:	139b      	asrhi	r3, r3, #14
 8001d92:	8023      	strh	r3, [r4, #0]
 8001d94:	ea82 73e2 	eor.w	r3, r2, r2, asr #31
 8001d98:	eba3 73e2 	sub.w	r3, r3, r2, asr #31
 8001d9c:	b29b      	uxth	r3, r3
 8001d9e:	f5b3 7fe1 	cmp.w	r3, #450	@ 0x1c2
 8001da2:	bf84      	itt	hi
 8001da4:	f240 33d5 	movwhi	r3, #981	@ 0x3d5
 8001da8:	fb12 f303 	smulbbhi	r3, r2, r3
 8001dac:	4a40      	ldr	r2, [pc, #256]	@ (8001eb0 <MPU6050_ProcessDMA+0x170>)
 8001dae:	b209      	sxth	r1, r1
 8001db0:	bf8c      	ite	hi
 8001db2:	139b      	asrhi	r3, r3, #14
 8001db4:	2300      	movls	r3, #0
 8001db6:	8013      	strh	r3, [r2, #0]
 8001db8:	ea81 73e1 	eor.w	r3, r1, r1, asr #31
 8001dbc:	eba3 73e1 	sub.w	r3, r3, r1, asr #31
 8001dc0:	b29b      	uxth	r3, r3
 8001dc2:	f644 6220 	movw	r2, #20000	@ 0x4e20
 8001dc6:	4293      	cmp	r3, r2
 8001dc8:	f240 33d5 	movw	r3, #981	@ 0x3d5
 8001dcc:	bf88      	it	hi
 8001dce:	fb11 f103 	smulbbhi	r1, r1, r3
 8001dd2:	4a38      	ldr	r2, [pc, #224]	@ (8001eb4 <MPU6050_ProcessDMA+0x174>)
 8001dd4:	bf88      	it	hi
 8001dd6:	138b      	asrhi	r3, r1, #14
 8001dd8:	8013      	strh	r3, [r2, #0]
 8001dda:	2301      	movs	r3, #1
 8001ddc:	7003      	strb	r3, [r0, #0]
 8001dde:	4b36      	ldr	r3, [pc, #216]	@ (8001eb8 <MPU6050_ProcessDMA+0x178>)
 8001de0:	6818      	ldr	r0, [r3, #0]
 8001de2:	2306      	movs	r3, #6
 8001de4:	9300      	str	r3, [sp, #0]
 8001de6:	68c4      	ldr	r4, [r0, #12]
 8001de8:	4b34      	ldr	r3, [pc, #208]	@ (8001ebc <MPU6050_ProcessDMA+0x17c>)
 8001dea:	6800      	ldr	r0, [r0, #0]
 8001dec:	2243      	movs	r2, #67	@ 0x43
 8001dee:	21d0      	movs	r1, #208	@ 0xd0
 8001df0:	47a0      	blx	r4
 8001df2:	b003      	add	sp, #12
 8001df4:	bd30      	pop	{r4, r5, pc}
 8001df6:	4b31      	ldr	r3, [pc, #196]	@ (8001ebc <MPU6050_ProcessDMA+0x17c>)
 8001df8:	4a31      	ldr	r2, [pc, #196]	@ (8001ec0 <MPU6050_ProcessDMA+0x180>)
 8001dfa:	8819      	ldrh	r1, [r3, #0]
 8001dfc:	6812      	ldr	r2, [r2, #0]
 8001dfe:	4831      	ldr	r0, [pc, #196]	@ (8001ec4 <MPU6050_ProcessDMA+0x184>)
 8001e00:	ba49      	rev16	r1, r1
 8001e02:	1a89      	subs	r1, r1, r2
 8001e04:	885a      	ldrh	r2, [r3, #2]
 8001e06:	6800      	ldr	r0, [r0, #0]
 8001e08:	889b      	ldrh	r3, [r3, #4]
 8001e0a:	ba52      	rev16	r2, r2
 8001e0c:	1a12      	subs	r2, r2, r0
 8001e0e:	482e      	ldr	r0, [pc, #184]	@ (8001ec8 <MPU6050_ProcessDMA+0x188>)
 8001e10:	6800      	ldr	r0, [r0, #0]
 8001e12:	b209      	sxth	r1, r1
 8001e14:	ba5b      	rev16	r3, r3
 8001e16:	1a1b      	subs	r3, r3, r0
 8001e18:	ea81 70e1 	eor.w	r0, r1, r1, asr #31
 8001e1c:	eba0 70e1 	sub.w	r0, r0, r1, asr #31
 8001e20:	b280      	uxth	r0, r0
 8001e22:	f5b0 7fe1 	cmp.w	r0, #450	@ 0x1c2
 8001e26:	bf81      	itttt	hi
 8001e28:	2064      	movhi	r0, #100	@ 0x64
 8001e2a:	fb11 f100 	smulbbhi	r1, r1, r0
 8001e2e:	2083      	movhi	r0, #131	@ 0x83
 8001e30:	fb91 f1f0 	sdivhi	r1, r1, r0
 8001e34:	4825      	ldr	r0, [pc, #148]	@ (8001ecc <MPU6050_ProcessDMA+0x18c>)
 8001e36:	b212      	sxth	r2, r2
 8001e38:	bf8c      	ite	hi
 8001e3a:	b209      	sxthhi	r1, r1
 8001e3c:	2100      	movls	r1, #0
 8001e3e:	8001      	strh	r1, [r0, #0]
 8001e40:	ea82 71e2 	eor.w	r1, r2, r2, asr #31
 8001e44:	eba1 71e2 	sub.w	r1, r1, r2, asr #31
 8001e48:	b289      	uxth	r1, r1
 8001e4a:	f5b1 7faf 	cmp.w	r1, #350	@ 0x15e
 8001e4e:	bf81      	itttt	hi
 8001e50:	2164      	movhi	r1, #100	@ 0x64
 8001e52:	fb12 f201 	smulbbhi	r2, r2, r1
 8001e56:	2183      	movhi	r1, #131	@ 0x83
 8001e58:	fb92 f2f1 	sdivhi	r2, r2, r1
 8001e5c:	491c      	ldr	r1, [pc, #112]	@ (8001ed0 <MPU6050_ProcessDMA+0x190>)
 8001e5e:	b21b      	sxth	r3, r3
 8001e60:	bf8c      	ite	hi
 8001e62:	b212      	sxthhi	r2, r2
 8001e64:	2200      	movls	r2, #0
 8001e66:	800a      	strh	r2, [r1, #0]
 8001e68:	ea83 72e3 	eor.w	r2, r3, r3, asr #31
 8001e6c:	eba2 72e3 	sub.w	r2, r2, r3, asr #31
 8001e70:	b292      	uxth	r2, r2
 8001e72:	f5b2 7faf 	cmp.w	r2, #350	@ 0x15e
 8001e76:	bf81      	itttt	hi
 8001e78:	2264      	movhi	r2, #100	@ 0x64
 8001e7a:	fb13 f302 	smulbbhi	r3, r3, r2
 8001e7e:	2283      	movhi	r2, #131	@ 0x83
 8001e80:	fb93 f3f2 	sdivhi	r3, r3, r2
 8001e84:	4a13      	ldr	r2, [pc, #76]	@ (8001ed4 <MPU6050_ProcessDMA+0x194>)
 8001e86:	bf8c      	ite	hi
 8001e88:	b21b      	sxthhi	r3, r3
 8001e8a:	2300      	movls	r3, #0
 8001e8c:	8013      	strh	r3, [r2, #0]
 8001e8e:	4b12      	ldr	r3, [pc, #72]	@ (8001ed8 <MPU6050_ProcessDMA+0x198>)
 8001e90:	2201      	movs	r2, #1
 8001e92:	701a      	strb	r2, [r3, #0]
 8001e94:	e7ad      	b.n	8001df2 <MPU6050_ProcessDMA+0xb2>
 8001e96:	bf00      	nop
 8001e98:	200003f2 	.word	0x200003f2
 8001e9c:	200003df 	.word	0x200003df
 8001ea0:	200003d4 	.word	0x200003d4
 8001ea4:	200003d0 	.word	0x200003d0
 8001ea8:	200003cc 	.word	0x200003cc
 8001eac:	200003f0 	.word	0x200003f0
 8001eb0:	200003ee 	.word	0x200003ee
 8001eb4:	200003ec 	.word	0x200003ec
 8001eb8:	200003f4 	.word	0x200003f4
 8001ebc:	200003d9 	.word	0x200003d9
 8001ec0:	200003c8 	.word	0x200003c8
 8001ec4:	200003c4 	.word	0x200003c4
 8001ec8:	200003c0 	.word	0x200003c0
 8001ecc:	200003ea 	.word	0x200003ea
 8001ed0:	200003e8 	.word	0x200003e8
 8001ed4:	200003e6 	.word	0x200003e6
 8001ed8:	200003d8 	.word	0x200003d8

08001edc <MPU6050_Calibrate>:
 8001edc:	e92d 4ff0 	stmdb	sp!, {r4, r5, r6, r7, r8, r9, sl, fp, lr}
 8001ee0:	b087      	sub	sp, #28
 8001ee2:	2400      	movs	r4, #0
 8001ee4:	f44f 73fa 	mov.w	r3, #500	@ 0x1f4
 8001ee8:	f8df 90dc 	ldr.w	r9, [pc, #220]	@ 8001fc8 <MPU6050_Calibrate+0xec>
 8001eec:	9303      	str	r3, [sp, #12]
 8001eee:	46a3      	mov	fp, r4
 8001ef0:	4626      	mov	r6, r4
 8001ef2:	9402      	str	r4, [sp, #8]
 8001ef4:	4627      	mov	r7, r4
 8001ef6:	46a0      	mov	r8, r4
 8001ef8:	f8d9 0000 	ldr.w	r0, [r9]
 8001efc:	f04f 0a06 	mov.w	sl, #6
 8001f00:	f8cd a000 	str.w	sl, [sp]
 8001f04:	6883      	ldr	r3, [r0, #8]
 8001f06:	6800      	ldr	r0, [r0, #0]
 8001f08:	461d      	mov	r5, r3
 8001f0a:	223b      	movs	r2, #59	@ 0x3b
 8001f0c:	ab04      	add	r3, sp, #16
 8001f0e:	21d0      	movs	r1, #208	@ 0xd0
 8001f10:	47a8      	blx	r5
 8001f12:	f8bd 3010 	ldrh.w	r3, [sp, #16]
 8001f16:	9a02      	ldr	r2, [sp, #8]
 8001f18:	f8d9 0000 	ldr.w	r0, [r9]
 8001f1c:	f8cd a000 	str.w	sl, [sp]
 8001f20:	badb      	revsh	r3, r3
 8001f22:	4498      	add	r8, r3
 8001f24:	f8bd 3012 	ldrh.w	r3, [sp, #18]
 8001f28:	f8d0 a008 	ldr.w	sl, [r0, #8]
 8001f2c:	6800      	ldr	r0, [r0, #0]
 8001f2e:	badb      	revsh	r3, r3
 8001f30:	441f      	add	r7, r3
 8001f32:	f8bd 3014 	ldrh.w	r3, [sp, #20]
 8001f36:	badb      	revsh	r3, r3
 8001f38:	441a      	add	r2, r3
 8001f3a:	9202      	str	r2, [sp, #8]
 8001f3c:	ab04      	add	r3, sp, #16
 8001f3e:	2243      	movs	r2, #67	@ 0x43
 8001f40:	21d0      	movs	r1, #208	@ 0xd0
 8001f42:	47d0      	blx	sl
 8001f44:	f8bd 3010 	ldrh.w	r3, [sp, #16]
 8001f48:	badb      	revsh	r3, r3
 8001f4a:	441e      	add	r6, r3
 8001f4c:	f8bd 3012 	ldrh.w	r3, [sp, #18]
 8001f50:	badb      	revsh	r3, r3
 8001f52:	449b      	add	fp, r3
 8001f54:	f8bd 3014 	ldrh.w	r3, [sp, #20]
 8001f58:	badb      	revsh	r3, r3
 8001f5a:	441c      	add	r4, r3
 8001f5c:	f8d9 3000 	ldr.w	r3, [r9]
 8001f60:	2105      	movs	r1, #5
 8001f62:	691a      	ldr	r2, [r3, #16]
 8001f64:	6818      	ldr	r0, [r3, #0]
 8001f66:	4790      	blx	r2
 8001f68:	9b03      	ldr	r3, [sp, #12]
 8001f6a:	3b01      	subs	r3, #1
 8001f6c:	9303      	str	r3, [sp, #12]
 8001f6e:	d1c3      	bne.n	8001ef8 <MPU6050_Calibrate+0x1c>
 8001f70:	490f      	ldr	r1, [pc, #60]	@ (8001fb0 <MPU6050_Calibrate+0xd4>)
 8001f72:	f44f 73fa 	mov.w	r3, #500	@ 0x1f4
 8001f76:	fb98 f2f3 	sdiv	r2, r8, r3
 8001f7a:	600a      	str	r2, [r1, #0]
 8001f7c:	4a0d      	ldr	r2, [pc, #52]	@ (8001fb4 <MPU6050_Calibrate+0xd8>)
 8001f7e:	fb97 f7f3 	sdiv	r7, r7, r3
 8001f82:	6017      	str	r7, [r2, #0]
 8001f84:	9a02      	ldr	r2, [sp, #8]
 8001f86:	fb92 f5f3 	sdiv	r5, r2, r3
 8001f8a:	4a0b      	ldr	r2, [pc, #44]	@ (8001fb8 <MPU6050_Calibrate+0xdc>)
 8001f8c:	fb96 f6f3 	sdiv	r6, r6, r3
 8001f90:	f5a5 4580 	sub.w	r5, r5, #16384	@ 0x4000
 8001f94:	6015      	str	r5, [r2, #0]
 8001f96:	4a09      	ldr	r2, [pc, #36]	@ (8001fbc <MPU6050_Calibrate+0xe0>)
 8001f98:	fb94 f4f3 	sdiv	r4, r4, r3
 8001f9c:	4908      	ldr	r1, [pc, #32]	@ (8001fc0 <MPU6050_Calibrate+0xe4>)
 8001f9e:	6016      	str	r6, [r2, #0]
 8001fa0:	fb9b f2f3 	sdiv	r2, fp, r3
 8001fa4:	4b07      	ldr	r3, [pc, #28]	@ (8001fc4 <MPU6050_Calibrate+0xe8>)
 8001fa6:	600a      	str	r2, [r1, #0]
 8001fa8:	601c      	str	r4, [r3, #0]
 8001faa:	b007      	add	sp, #28
 8001fac:	e8bd 8ff0 	ldmia.w	sp!, {r4, r5, r6, r7, r8, r9, sl, fp, pc}
 8001fb0:	200003d4 	.word	0x200003d4
 8001fb4:	200003d0 	.word	0x200003d0
 8001fb8:	200003cc 	.word	0x200003cc
 8001fbc:	200003c8 	.word	0x200003c8
 8001fc0:	200003c4 	.word	0x200003c4
 8001fc4:	200003c0 	.word	0x200003c0
 8001fc8:	200003f4 	.word	0x200003f4

08001fcc <UNER_Init>:
 8001fcc:	b530      	push	{r4, r5, lr}
 8001fce:	4c10      	ldr	r4, [pc, #64]	@ (8002010 <UNER_Init+0x44>)
 8001fd0:	6020      	str	r0, [r4, #0]
 8001fd2:	4c10      	ldr	r4, [pc, #64]	@ (8002014 <UNER_Init+0x48>)
 8001fd4:	25ff      	movs	r5, #255	@ 0xff
 8001fd6:	6021      	str	r1, [r4, #0]
 8001fd8:	2400      	movs	r4, #0
 8001fda:	8084      	strh	r4, [r0, #4]
 8001fdc:	7204      	strb	r4, [r0, #8]
 8001fde:	7285      	strb	r5, [r0, #10]
 8001fe0:	808c      	strh	r4, [r1, #4]
 8001fe2:	718d      	strb	r5, [r1, #6]
 8001fe4:	80c4      	strh	r4, [r0, #6]
 8001fe6:	7244      	strb	r4, [r0, #9]
 8001fe8:	7304      	strb	r4, [r0, #12]
 8001fea:	72c4      	strb	r4, [r0, #11]
 8001fec:	71cc      	strb	r4, [r1, #7]
 8001fee:	490a      	ldr	r1, [pc, #40]	@ (8002018 <UNER_Init+0x4c>)
 8001ff0:	600a      	str	r2, [r1, #0]
 8001ff2:	4a0a      	ldr	r2, [pc, #40]	@ (800201c <UNER_Init+0x50>)
 8001ff4:	6013      	str	r3, [r2, #0]
 8001ff6:	4b0a      	ldr	r3, [pc, #40]	@ (8002020 <UNER_Init+0x54>)
 8001ff8:	9a03      	ldr	r2, [sp, #12]
 8001ffa:	601a      	str	r2, [r3, #0]
 8001ffc:	4b09      	ldr	r3, [pc, #36]	@ (8002024 <UNER_Init+0x58>)
 8001ffe:	9a04      	ldr	r2, [sp, #16]
 8002000:	601a      	str	r2, [r3, #0]
 8002002:	4b09      	ldr	r3, [pc, #36]	@ (8002028 <UNER_Init+0x5c>)
 8002004:	9a05      	ldr	r2, [sp, #20]
 8002006:	601a      	str	r2, [r3, #0]
 8002008:	4b08      	ldr	r3, [pc, #32]	@ (800202c <UNER_Init+0x60>)
 800200a:	9a06      	ldr	r2, [sp, #24]
 800200c:	601a      	str	r2, [r3, #0]
 800200e:	bd30      	pop	{r4, r5, pc}
 8002010:	2000043c 	.word	0x2000043c
 8002014:	20000438 	.word	0x20000438
 8002018:	20000430 	.word	0x20000430
 800201c:	2000042c 	.word	0x2000042c
 8002020:	20000428 	.word	0x20000428
 8002024:	20000424 	.word	0x20000424
 8002028:	20000420 	.word	0x20000420
 800202c:	2000041c 	.word	0x2000041c

08002030 <UNER_PushByte>:
 8002030:	b510      	push	{r4, lr}
 8002032:	4b06      	ldr	r3, [pc, #24]	@ (800204c <UNER_PushByte+0x1c>)
 8002034:	681b      	ldr	r3, [r3, #0]
 8002036:	795a      	ldrb	r2, [r3, #5]
 8002038:	6819      	ldr	r1, [r3, #0]
 800203a:	1c54      	adds	r4, r2, #1
 800203c:	715c      	strb	r4, [r3, #5]
 800203e:	5488      	strb	r0, [r1, r2]
 8002040:	795a      	ldrb	r2, [r3, #5]
 8002042:	7a99      	ldrb	r1, [r3, #10]
 8002044:	400a      	ands	r2, r1
 8002046:	715a      	strb	r2, [r3, #5]
 8002048:	bd10      	pop	{r4, pc}
 800204a:	bf00      	nop
 800204c:	2000043c 	.word	0x2000043c

08002050 <putHeaderOnTx>:
 8002050:	4603      	mov	r3, r0
 8002052:	2000      	movs	r0, #0
 8002054:	b530      	push	{r4, r5, lr}
 8002056:	71d8      	strb	r0, [r3, #7]
 8002058:	7958      	ldrb	r0, [r3, #5]
 800205a:	681c      	ldr	r4, [r3, #0]
 800205c:	1c45      	adds	r5, r0, #1
 800205e:	715d      	strb	r5, [r3, #5]
 8002060:	2555      	movs	r5, #85	@ 0x55
 8002062:	5425      	strb	r5, [r4, r0]
 8002064:	795c      	ldrb	r4, [r3, #5]
 8002066:	7998      	ldrb	r0, [r3, #6]
 8002068:	4004      	ands	r4, r0
 800206a:	1c65      	adds	r5, r4, #1
 800206c:	6818      	ldr	r0, [r3, #0]
 800206e:	715d      	strb	r5, [r3, #5]
 8002070:	254e      	movs	r5, #78	@ 0x4e
 8002072:	5505      	strb	r5, [r0, r4]
 8002074:	795c      	ldrb	r4, [r3, #5]
 8002076:	7998      	ldrb	r0, [r3, #6]
 8002078:	4004      	ands	r4, r0
 800207a:	1c65      	adds	r5, r4, #1
 800207c:	6818      	ldr	r0, [r3, #0]
 800207e:	715d      	strb	r5, [r3, #5]
 8002080:	2545      	movs	r5, #69	@ 0x45
 8002082:	5505      	strb	r5, [r0, r4]
 8002084:	795c      	ldrb	r4, [r3, #5]
 8002086:	7998      	ldrb	r0, [r3, #6]
 8002088:	4004      	ands	r4, r0
 800208a:	1c65      	adds	r5, r4, #1
 800208c:	6818      	ldr	r0, [r3, #0]
 800208e:	715d      	strb	r5, [r3, #5]
 8002090:	2552      	movs	r5, #82	@ 0x52
 8002092:	5505      	strb	r5, [r0, r4]
 8002094:	795c      	ldrb	r4, [r3, #5]
 8002096:	7998      	ldrb	r0, [r3, #6]
 8002098:	681d      	ldr	r5, [r3, #0]
 800209a:	4004      	ands	r4, r0
 800209c:	1c60      	adds	r0, r4, #1
 800209e:	7158      	strb	r0, [r3, #5]
 80020a0:	1c50      	adds	r0, r2, #1
 80020a2:	b2c0      	uxtb	r0, r0
 80020a4:	5528      	strb	r0, [r5, r4]
 80020a6:	795a      	ldrb	r2, [r3, #5]
 80020a8:	799c      	ldrb	r4, [r3, #6]
 80020aa:	4022      	ands	r2, r4
 80020ac:	1c55      	adds	r5, r2, #1
 80020ae:	681c      	ldr	r4, [r3, #0]
 80020b0:	715d      	strb	r5, [r3, #5]
 80020b2:	253a      	movs	r5, #58	@ 0x3a
 80020b4:	54a5      	strb	r5, [r4, r2]
 80020b6:	795a      	ldrb	r2, [r3, #5]
 80020b8:	799c      	ldrb	r4, [r3, #6]
 80020ba:	4022      	ands	r2, r4
 80020bc:	681c      	ldr	r4, [r3, #0]
 80020be:	1c55      	adds	r5, r2, #1
 80020c0:	715d      	strb	r5, [r3, #5]
 80020c2:	54a1      	strb	r1, [r4, r2]
 80020c4:	795a      	ldrb	r2, [r3, #5]
 80020c6:	799c      	ldrb	r4, [r3, #6]
 80020c8:	4022      	ands	r2, r4
 80020ca:	715a      	strb	r2, [r3, #5]
 80020cc:	79da      	ldrb	r2, [r3, #7]
 80020ce:	4051      	eors	r1, r2
 80020d0:	4048      	eors	r0, r1
 80020d2:	f080 0036 	eor.w	r0, r0, #54	@ 0x36
 80020d6:	71d8      	strb	r0, [r3, #7]
 80020d8:	bd30      	pop	{r4, r5, pc}

080020da <putByteOnTx>:
 80020da:	4603      	mov	r3, r0
 80020dc:	6800      	ldr	r0, [r0, #0]
 80020de:	795a      	ldrb	r2, [r3, #5]
 80020e0:	b510      	push	{r4, lr}
 80020e2:	1c54      	adds	r4, r2, #1
 80020e4:	715c      	strb	r4, [r3, #5]
 80020e6:	5481      	strb	r1, [r0, r2]
 80020e8:	795a      	ldrb	r2, [r3, #5]
 80020ea:	7998      	ldrb	r0, [r3, #6]
 80020ec:	4002      	ands	r2, r0
 80020ee:	715a      	strb	r2, [r3, #5]
 80020f0:	79da      	ldrb	r2, [r3, #7]
 80020f2:	ea81 0002 	eor.w	r0, r1, r2
 80020f6:	71d8      	strb	r0, [r3, #7]
 80020f8:	bd10      	pop	{r4, pc}
	...

080020fc <putStrOntx>:
 80020fc:	4b0d      	ldr	r3, [pc, #52]	@ (8002134 <putStrOntx+0x38>)
 80020fe:	2200      	movs	r2, #0
 8002100:	b570      	push	{r4, r5, r6, lr}
 8002102:	801a      	strh	r2, [r3, #0]
 8002104:	881a      	ldrh	r2, [r3, #0]
 8002106:	5c8c      	ldrb	r4, [r1, r2]
 8002108:	b90c      	cbnz	r4, 800210e <putStrOntx+0x12>
 800210a:	79c0      	ldrb	r0, [r0, #7]
 800210c:	bd70      	pop	{r4, r5, r6, pc}
 800210e:	7944      	ldrb	r4, [r0, #5]
 8002110:	6805      	ldr	r5, [r0, #0]
 8002112:	1c66      	adds	r6, r4, #1
 8002114:	7146      	strb	r6, [r0, #5]
 8002116:	5c8a      	ldrb	r2, [r1, r2]
 8002118:	552a      	strb	r2, [r5, r4]
 800211a:	7942      	ldrb	r2, [r0, #5]
 800211c:	7984      	ldrb	r4, [r0, #6]
 800211e:	4022      	ands	r2, r4
 8002120:	7142      	strb	r2, [r0, #5]
 8002122:	881a      	ldrh	r2, [r3, #0]
 8002124:	1c54      	adds	r4, r2, #1
 8002126:	801c      	strh	r4, [r3, #0]
 8002128:	5c8a      	ldrb	r2, [r1, r2]
 800212a:	79c4      	ldrb	r4, [r0, #7]
 800212c:	4062      	eors	r2, r4
 800212e:	71c2      	strb	r2, [r0, #7]
 8002130:	e7e8      	b.n	8002104 <putStrOntx+0x8>
 8002132:	bf00      	nop
 8002134:	20000440 	.word	0x20000440

08002138 <getByteFromRx>:
 8002138:	b510      	push	{r4, lr}
 800213a:	4603      	mov	r3, r0
 800213c:	7a84      	ldrb	r4, [r0, #10]
 800213e:	7980      	ldrb	r0, [r0, #6]
 8002140:	4401      	add	r1, r0
 8002142:	4021      	ands	r1, r4
 8002144:	6818      	ldr	r0, [r3, #0]
 8002146:	7199      	strb	r1, [r3, #6]
 8002148:	5c40      	ldrb	r0, [r0, r1]
 800214a:	4411      	add	r1, r2
 800214c:	400c      	ands	r4, r1
 800214e:	719c      	strb	r4, [r3, #6]
 8002150:	bd10      	pop	{r4, pc}
	...

08002154 <UNER_ShouldSendAllSensors>:
 8002154:	4b01      	ldr	r3, [pc, #4]	@ (800215c <UNER_ShouldSendAllSensors+0x8>)
 8002156:	7818      	ldrb	r0, [r3, #0]
 8002158:	4770      	bx	lr
 800215a:	bf00      	nop
 800215c:	20000418 	.word	0x20000418

08002160 <UNER_RegisterADCBuffer>:
 8002160:	4b01      	ldr	r3, [pc, #4]	@ (8002168 <UNER_RegisterADCBuffer+0x8>)
 8002162:	6018      	str	r0, [r3, #0]
 8002164:	4770      	bx	lr
 8002166:	bf00      	nop
 8002168:	20000414 	.word	0x20000414

0800216c <UNER_RegisterMotorSpeed>:
 800216c:	4b02      	ldr	r3, [pc, #8]	@ (8002178 <UNER_RegisterMotorSpeed+0xc>)
 800216e:	6018      	str	r0, [r3, #0]
 8002170:	4b02      	ldr	r3, [pc, #8]	@ (800217c <UNER_RegisterMotorSpeed+0x10>)
 8002172:	6019      	str	r1, [r3, #0]
 8002174:	4770      	bx	lr
 8002176:	bf00      	nop
 8002178:	20000410 	.word	0x20000410
 800217c:	2000040c 	.word	0x2000040c

08002180 <UNER_RegisterProportionalControl>:
 8002180:	4b02      	ldr	r3, [pc, #8]	@ (800218c <UNER_RegisterProportionalControl+0xc>)
 8002182:	6018      	str	r0, [r3, #0]
 8002184:	4b02      	ldr	r3, [pc, #8]	@ (8002190 <UNER_RegisterProportionalControl+0x10>)
 8002186:	6019      	str	r1, [r3, #0]
 8002188:	4770      	bx	lr
 800218a:	bf00      	nop
 800218c:	20000408 	.word	0x20000408
 8002190:	20000404 	.word	0x20000404

08002194 <UNER_RegisterAngle>:
 8002194:	4b02      	ldr	r3, [pc, #8]	@ (80021a0 <UNER_RegisterAngle+0xc>)
 8002196:	6018      	str	r0, [r3, #0]
 8002198:	4b02      	ldr	r3, [pc, #8]	@ (80021a4 <UNER_RegisterAngle+0x10>)
 800219a:	6019      	str	r1, [r3, #0]
 800219c:	4770      	bx	lr
 800219e:	bf00      	nop
 80021a0:	20000400 	.word	0x20000400
 80021a4:	200003fc 	.word	0x200003fc

080021a8 <UNER_RegisterFlags>:
 80021a8:	4b01      	ldr	r3, [pc, #4]	@ (80021b0 <UNER_RegisterFlags+0x8>)
 80021aa:	6018      	str	r0, [r3, #0]
 80021ac:	4770      	bx	lr
 80021ae:	bf00      	nop
 80021b0:	200003f8 	.word	0x200003f8

080021b4 <UNER_SendData>:
 80021b4:	b538      	push	{r3, r4, r5, lr}
 80021b6:	4d15      	ldr	r5, [pc, #84]	@ (800220c <UNER_SendData+0x58>)
 80021b8:	682a      	ldr	r2, [r5, #0]
 80021ba:	7994      	ldrb	r4, [r2, #6]
 80021bc:	7953      	ldrb	r3, [r2, #5]
 80021be:	7910      	ldrb	r0, [r2, #4]
 80021c0:	4423      	add	r3, r4
 80021c2:	3301      	adds	r3, #1
 80021c4:	1a1b      	subs	r3, r3, r0
 80021c6:	401c      	ands	r4, r3
 80021c8:	d01e      	beq.n	8002208 <UNER_SendData+0x54>
 80021ca:	4b11      	ldr	r3, [pc, #68]	@ (8002210 <UNER_SendData+0x5c>)
 80021cc:	f893 329c 	ldrb.w	r3, [r3, #668]	@ 0x29c
 80021d0:	2b03      	cmp	r3, #3
 80021d2:	d104      	bne.n	80021de <UNER_SendData+0x2a>
 80021d4:	6813      	ldr	r3, [r2, #0]
 80021d6:	4621      	mov	r1, r4
 80021d8:	4418      	add	r0, r3
 80021da:	f000 fdb7 	bl	8002d4c <usb_enqueue_tx>
 80021de:	f7fe fe5f 	bl	8000ea0 <ESP01_StateUDPTCP>
 80021e2:	2808      	cmp	r0, #8
 80021e4:	d10a      	bne.n	80021fc <UNER_SendData+0x48>
 80021e6:	f7ff fd0f 	bl	8001c08 <ESP01_IsSending>
 80021ea:	b938      	cbnz	r0, 80021fc <UNER_SendData+0x48>
 80021ec:	6828      	ldr	r0, [r5, #0]
 80021ee:	f44f 7380 	mov.w	r3, #256	@ 0x100
 80021f2:	7901      	ldrb	r1, [r0, #4]
 80021f4:	6800      	ldr	r0, [r0, #0]
 80021f6:	4622      	mov	r2, r4
 80021f8:	f7fe fe7a 	bl	8000ef0 <ESP01_Send>
 80021fc:	682a      	ldr	r2, [r5, #0]
 80021fe:	7913      	ldrb	r3, [r2, #4]
 8002200:	7991      	ldrb	r1, [r2, #6]
 8002202:	4423      	add	r3, r4
 8002204:	400b      	ands	r3, r1
 8002206:	7113      	strb	r3, [r2, #4]
 8002208:	bd38      	pop	{r3, r4, r5, pc}
 800220a:	bf00      	nop
 800220c:	20000438 	.word	0x20000438
 8002210:	200012dc 	.word	0x200012dc

08002214 <decodeCommand>:
 8002214:	b570      	push	{r4, r5, r6, lr}
 8002216:	6802      	ldr	r2, [r0, #0]
 8002218:	7983      	ldrb	r3, [r0, #6]
 800221a:	460c      	mov	r4, r1
 800221c:	5cd1      	ldrb	r1, [r2, r3]
 800221e:	29b4      	cmp	r1, #180	@ 0xb4
 8002220:	4605      	mov	r5, r0
 8002222:	b2ce      	uxtb	r6, r1
 8002224:	d81a      	bhi.n	800225c <decodeCommand+0x48>
 8002226:	2ea0      	cmp	r6, #160	@ 0xa0
 8002228:	d91c      	bls.n	8002264 <decodeCommand+0x50>
 800222a:	3ea1      	subs	r6, #161	@ 0xa1
 800222c:	2e13      	cmp	r6, #19
 800222e:	d819      	bhi.n	8002264 <decodeCommand+0x50>
 8002230:	e8df f016 	tbh	[pc, r6, lsl #1]
 8002234:	0018010b 	.word	0x0018010b
 8002238:	00180018 	.word	0x00180018
 800223c:	008e0035 	.word	0x008e0035
 8002240:	001800da 	.word	0x001800da
 8002244:	001801e1 	.word	0x001801e1
 8002248:	00180018 	.word	0x00180018
 800224c:	00180018 	.word	0x00180018
 8002250:	00180018 	.word	0x00180018
 8002254:	01b00163 	.word	0x01b00163
 8002258:	01d70018 	.word	0x01d70018
 800225c:	2ef0      	cmp	r6, #240	@ 0xf0
 800225e:	d008      	beq.n	8002272 <decodeCommand+0x5e>
 8002260:	2ef1      	cmp	r6, #241	@ 0xf1
 8002262:	d010      	beq.n	8002286 <decodeCommand+0x72>
 8002264:	5cd1      	ldrb	r1, [r2, r3]
 8002266:	4620      	mov	r0, r4
 8002268:	2202      	movs	r2, #2
 800226a:	f7ff fef1 	bl	8002050 <putHeaderOnTx>
 800226e:	21ff      	movs	r1, #255	@ 0xff
 8002270:	e06a      	b.n	8002348 <decodeCommand+0x134>
 8002272:	48b9      	ldr	r0, [pc, #740]	@ (8002558 <decodeCommand+0x344>)
 8002274:	f000 fde6 	bl	8002e44 <USB_Debug>
 8002278:	2202      	movs	r2, #2
 800227a:	4631      	mov	r1, r6
 800227c:	4620      	mov	r0, r4
 800227e:	f7ff fee7 	bl	8002050 <putHeaderOnTx>
 8002282:	210d      	movs	r1, #13
 8002284:	e060      	b.n	8002348 <decodeCommand+0x134>
 8002286:	4631      	mov	r1, r6
 8002288:	220c      	movs	r2, #12
 800228a:	4620      	mov	r0, r4
 800228c:	f7ff fee0 	bl	8002050 <putHeaderOnTx>
 8002290:	4bb2      	ldr	r3, [pc, #712]	@ (800255c <decodeCommand+0x348>)
 8002292:	4620      	mov	r0, r4
 8002294:	6819      	ldr	r1, [r3, #0]
 8002296:	f7ff ff31 	bl	80020fc <putStrOntx>
 800229a:	79e1      	ldrb	r1, [r4, #7]
 800229c:	e282      	b.n	80027a4 <decodeCommand+0x590>
 800229e:	2211      	movs	r2, #17
 80022a0:	21a5      	movs	r1, #165	@ 0xa5
 80022a2:	4620      	mov	r0, r4
 80022a4:	f7ff fed4 	bl	8002050 <putHeaderOnTx>
 80022a8:	4bad      	ldr	r3, [pc, #692]	@ (8002560 <decodeCommand+0x34c>)
 80022aa:	4dae      	ldr	r5, [pc, #696]	@ (8002564 <decodeCommand+0x350>)
 80022ac:	681e      	ldr	r6, [r3, #0]
 80022ae:	8831      	ldrh	r1, [r6, #0]
 80022b0:	8029      	strh	r1, [r5, #0]
 80022b2:	4620      	mov	r0, r4
 80022b4:	b2c9      	uxtb	r1, r1
 80022b6:	f7ff ff10 	bl	80020da <putByteOnTx>
 80022ba:	7869      	ldrb	r1, [r5, #1]
 80022bc:	4620      	mov	r0, r4
 80022be:	f7ff ff0c 	bl	80020da <putByteOnTx>
 80022c2:	8871      	ldrh	r1, [r6, #2]
 80022c4:	8029      	strh	r1, [r5, #0]
 80022c6:	4620      	mov	r0, r4
 80022c8:	b2c9      	uxtb	r1, r1
 80022ca:	f7ff ff06 	bl	80020da <putByteOnTx>
 80022ce:	7869      	ldrb	r1, [r5, #1]
 80022d0:	4620      	mov	r0, r4
 80022d2:	f7ff ff02 	bl	80020da <putByteOnTx>
 80022d6:	88b1      	ldrh	r1, [r6, #4]
 80022d8:	8029      	strh	r1, [r5, #0]
 80022da:	4620      	mov	r0, r4
 80022dc:	b2c9      	uxtb	r1, r1
 80022de:	f7ff fefc 	bl	80020da <putByteOnTx>
 80022e2:	7869      	ldrb	r1, [r5, #1]
 80022e4:	4620      	mov	r0, r4
 80022e6:	f7ff fef8 	bl	80020da <putByteOnTx>
 80022ea:	88f1      	ldrh	r1, [r6, #6]
 80022ec:	8029      	strh	r1, [r5, #0]
 80022ee:	4620      	mov	r0, r4
 80022f0:	b2c9      	uxtb	r1, r1
 80022f2:	f7ff fef2 	bl	80020da <putByteOnTx>
 80022f6:	7869      	ldrb	r1, [r5, #1]
 80022f8:	4620      	mov	r0, r4
 80022fa:	f7ff feee 	bl	80020da <putByteOnTx>
 80022fe:	8931      	ldrh	r1, [r6, #8]
 8002300:	8029      	strh	r1, [r5, #0]
 8002302:	4620      	mov	r0, r4
 8002304:	b2c9      	uxtb	r1, r1
 8002306:	f7ff fee8 	bl	80020da <putByteOnTx>
 800230a:	7869      	ldrb	r1, [r5, #1]
 800230c:	4620      	mov	r0, r4
 800230e:	f7ff fee4 	bl	80020da <putByteOnTx>
 8002312:	8971      	ldrh	r1, [r6, #10]
 8002314:	8029      	strh	r1, [r5, #0]
 8002316:	4620      	mov	r0, r4
 8002318:	b2c9      	uxtb	r1, r1
 800231a:	f7ff fede 	bl	80020da <putByteOnTx>
 800231e:	7869      	ldrb	r1, [r5, #1]
 8002320:	4620      	mov	r0, r4
 8002322:	f7ff feda 	bl	80020da <putByteOnTx>
 8002326:	89b1      	ldrh	r1, [r6, #12]
 8002328:	8029      	strh	r1, [r5, #0]
 800232a:	4620      	mov	r0, r4
 800232c:	b2c9      	uxtb	r1, r1
 800232e:	f7ff fed4 	bl	80020da <putByteOnTx>
 8002332:	7869      	ldrb	r1, [r5, #1]
 8002334:	4620      	mov	r0, r4
 8002336:	f7ff fed0 	bl	80020da <putByteOnTx>
 800233a:	89f1      	ldrh	r1, [r6, #14]
 800233c:	8029      	strh	r1, [r5, #0]
 800233e:	4620      	mov	r0, r4
 8002340:	b2c9      	uxtb	r1, r1
 8002342:	f7ff feca 	bl	80020da <putByteOnTx>
 8002346:	7869      	ldrb	r1, [r5, #1]
 8002348:	4620      	mov	r0, r4
 800234a:	f7ff fec6 	bl	80020da <putByteOnTx>
 800234e:	e7a4      	b.n	800229a <decodeCommand+0x86>
 8002350:	220d      	movs	r2, #13
 8002352:	21a6      	movs	r1, #166	@ 0xa6
 8002354:	4620      	mov	r0, r4
 8002356:	f7ff fe7b 	bl	8002050 <putHeaderOnTx>
 800235a:	4b83      	ldr	r3, [pc, #524]	@ (8002568 <decodeCommand+0x354>)
 800235c:	4d81      	ldr	r5, [pc, #516]	@ (8002564 <decodeCommand+0x350>)
 800235e:	681b      	ldr	r3, [r3, #0]
 8002360:	f9b3 1000 	ldrsh.w	r1, [r3]
 8002364:	8029      	strh	r1, [r5, #0]
 8002366:	4620      	mov	r0, r4
 8002368:	b2c9      	uxtb	r1, r1
 800236a:	f7ff feb6 	bl	80020da <putByteOnTx>
 800236e:	7869      	ldrb	r1, [r5, #1]
 8002370:	4620      	mov	r0, r4
 8002372:	f7ff feb2 	bl	80020da <putByteOnTx>
 8002376:	4b7d      	ldr	r3, [pc, #500]	@ (800256c <decodeCommand+0x358>)
 8002378:	681b      	ldr	r3, [r3, #0]
 800237a:	f9b3 1000 	ldrsh.w	r1, [r3]
 800237e:	8029      	strh	r1, [r5, #0]
 8002380:	4620      	mov	r0, r4
 8002382:	b2c9      	uxtb	r1, r1
 8002384:	f7ff fea9 	bl	80020da <putByteOnTx>
 8002388:	7869      	ldrb	r1, [r5, #1]
 800238a:	4620      	mov	r0, r4
 800238c:	f7ff fea5 	bl	80020da <putByteOnTx>
 8002390:	4b77      	ldr	r3, [pc, #476]	@ (8002570 <decodeCommand+0x35c>)
 8002392:	681b      	ldr	r3, [r3, #0]
 8002394:	f9b3 1000 	ldrsh.w	r1, [r3]
 8002398:	8029      	strh	r1, [r5, #0]
 800239a:	4620      	mov	r0, r4
 800239c:	b2c9      	uxtb	r1, r1
 800239e:	f7ff fe9c 	bl	80020da <putByteOnTx>
 80023a2:	7869      	ldrb	r1, [r5, #1]
 80023a4:	4620      	mov	r0, r4
 80023a6:	f7ff fe98 	bl	80020da <putByteOnTx>
 80023aa:	4b72      	ldr	r3, [pc, #456]	@ (8002574 <decodeCommand+0x360>)
 80023ac:	681b      	ldr	r3, [r3, #0]
 80023ae:	f9b3 1000 	ldrsh.w	r1, [r3]
 80023b2:	8029      	strh	r1, [r5, #0]
 80023b4:	4620      	mov	r0, r4
 80023b6:	b2c9      	uxtb	r1, r1
 80023b8:	f7ff fe8f 	bl	80020da <putByteOnTx>
 80023bc:	7869      	ldrb	r1, [r5, #1]
 80023be:	4620      	mov	r0, r4
 80023c0:	f7ff fe8b 	bl	80020da <putByteOnTx>
 80023c4:	4b6c      	ldr	r3, [pc, #432]	@ (8002578 <decodeCommand+0x364>)
 80023c6:	681b      	ldr	r3, [r3, #0]
 80023c8:	f9b3 1000 	ldrsh.w	r1, [r3]
 80023cc:	8029      	strh	r1, [r5, #0]
 80023ce:	4620      	mov	r0, r4
 80023d0:	b2c9      	uxtb	r1, r1
 80023d2:	f7ff fe82 	bl	80020da <putByteOnTx>
 80023d6:	7869      	ldrb	r1, [r5, #1]
 80023d8:	4620      	mov	r0, r4
 80023da:	f7ff fe7e 	bl	80020da <putByteOnTx>
 80023de:	4b67      	ldr	r3, [pc, #412]	@ (800257c <decodeCommand+0x368>)
 80023e0:	681b      	ldr	r3, [r3, #0]
 80023e2:	f9b3 1000 	ldrsh.w	r1, [r3]
 80023e6:	e7a9      	b.n	800233c <decodeCommand+0x128>
 80023e8:	4b65      	ldr	r3, [pc, #404]	@ (8002580 <decodeCommand+0x36c>)
 80023ea:	681d      	ldr	r5, [r3, #0]
 80023ec:	b355      	cbz	r5, 8002444 <decodeCommand+0x230>
 80023ee:	4b65      	ldr	r3, [pc, #404]	@ (8002584 <decodeCommand+0x370>)
 80023f0:	681e      	ldr	r6, [r3, #0]
 80023f2:	b33e      	cbz	r6, 8002444 <decodeCommand+0x230>
 80023f4:	2209      	movs	r2, #9
 80023f6:	21a7      	movs	r1, #167	@ 0xa7
 80023f8:	4620      	mov	r0, r4
 80023fa:	f7ff fe29 	bl	8002050 <putHeaderOnTx>
 80023fe:	6829      	ldr	r1, [r5, #0]
 8002400:	4d58      	ldr	r5, [pc, #352]	@ (8002564 <decodeCommand+0x350>)
 8002402:	4620      	mov	r0, r4
 8002404:	6029      	str	r1, [r5, #0]
 8002406:	b2c9      	uxtb	r1, r1
 8002408:	f7ff fe67 	bl	80020da <putByteOnTx>
 800240c:	7869      	ldrb	r1, [r5, #1]
 800240e:	4620      	mov	r0, r4
 8002410:	f7ff fe63 	bl	80020da <putByteOnTx>
 8002414:	78a9      	ldrb	r1, [r5, #2]
 8002416:	4620      	mov	r0, r4
 8002418:	f7ff fe5f 	bl	80020da <putByteOnTx>
 800241c:	78e9      	ldrb	r1, [r5, #3]
 800241e:	4620      	mov	r0, r4
 8002420:	f7ff fe5b 	bl	80020da <putByteOnTx>
 8002424:	6831      	ldr	r1, [r6, #0]
 8002426:	6029      	str	r1, [r5, #0]
 8002428:	4620      	mov	r0, r4
 800242a:	b2c9      	uxtb	r1, r1
 800242c:	f7ff fe55 	bl	80020da <putByteOnTx>
 8002430:	7869      	ldrb	r1, [r5, #1]
 8002432:	4620      	mov	r0, r4
 8002434:	f7ff fe51 	bl	80020da <putByteOnTx>
 8002438:	78a9      	ldrb	r1, [r5, #2]
 800243a:	4620      	mov	r0, r4
 800243c:	f7ff fe4d 	bl	80020da <putByteOnTx>
 8002440:	78e9      	ldrb	r1, [r5, #3]
 8002442:	e781      	b.n	8002348 <decodeCommand+0x134>
 8002444:	2202      	movs	r2, #2
 8002446:	21a7      	movs	r1, #167	@ 0xa7
 8002448:	e718      	b.n	800227c <decodeCommand+0x68>
 800244a:	2202      	movs	r2, #2
 800244c:	21a1      	movs	r1, #161	@ 0xa1
 800244e:	4620      	mov	r0, r4
 8002450:	f7ff fdfe 	bl	8002050 <putHeaderOnTx>
 8002454:	210d      	movs	r1, #13
 8002456:	4620      	mov	r0, r4
 8002458:	f7ff fe3f 	bl	80020da <putByteOnTx>
 800245c:	79e1      	ldrb	r1, [r4, #7]
 800245e:	4620      	mov	r0, r4
 8002460:	f7ff fe3b 	bl	80020da <putByteOnTx>
 8002464:	2200      	movs	r2, #0
 8002466:	2101      	movs	r1, #1
 8002468:	4628      	mov	r0, r5
 800246a:	f7ff fe65 	bl	8002138 <getByteFromRx>
 800246e:	4c3d      	ldr	r4, [pc, #244]	@ (8002564 <decodeCommand+0x350>)
 8002470:	2101      	movs	r1, #1
 8002472:	7020      	strb	r0, [r4, #0]
 8002474:	4628      	mov	r0, r5
 8002476:	f7ff fe5f 	bl	8002138 <getByteFromRx>
 800247a:	2101      	movs	r1, #1
 800247c:	7060      	strb	r0, [r4, #1]
 800247e:	4628      	mov	r0, r5
 8002480:	f7ff fe5a 	bl	8002138 <getByteFromRx>
 8002484:	2101      	movs	r1, #1
 8002486:	70a0      	strb	r0, [r4, #2]
 8002488:	4628      	mov	r0, r5
 800248a:	f7ff fe55 	bl	8002138 <getByteFromRx>
 800248e:	4b3e      	ldr	r3, [pc, #248]	@ (8002588 <decodeCommand+0x374>)
 8002490:	70e0      	strb	r0, [r4, #3]
 8002492:	681a      	ldr	r2, [r3, #0]
 8002494:	b152      	cbz	r2, 80024ac <decodeCommand+0x298>
 8002496:	f9b4 3000 	ldrsh.w	r3, [r4]
 800249a:	f06f 0163 	mvn.w	r1, #99	@ 0x63
 800249e:	428b      	cmp	r3, r1
 80024a0:	bfb8      	it	lt
 80024a2:	460b      	movlt	r3, r1
 80024a4:	2b64      	cmp	r3, #100	@ 0x64
 80024a6:	bfa8      	it	ge
 80024a8:	2364      	movge	r3, #100	@ 0x64
 80024aa:	8013      	strh	r3, [r2, #0]
 80024ac:	2200      	movs	r2, #0
 80024ae:	2101      	movs	r1, #1
 80024b0:	4628      	mov	r0, r5
 80024b2:	f7ff fe41 	bl	8002138 <getByteFromRx>
 80024b6:	2101      	movs	r1, #1
 80024b8:	7020      	strb	r0, [r4, #0]
 80024ba:	4628      	mov	r0, r5
 80024bc:	f7ff fe3c 	bl	8002138 <getByteFromRx>
 80024c0:	2101      	movs	r1, #1
 80024c2:	7060      	strb	r0, [r4, #1]
 80024c4:	4628      	mov	r0, r5
 80024c6:	f7ff fe37 	bl	8002138 <getByteFromRx>
 80024ca:	2101      	movs	r1, #1
 80024cc:	70a0      	strb	r0, [r4, #2]
 80024ce:	4628      	mov	r0, r5
 80024d0:	f7ff fe32 	bl	8002138 <getByteFromRx>
 80024d4:	4a2d      	ldr	r2, [pc, #180]	@ (800258c <decodeCommand+0x378>)
 80024d6:	70e0      	strb	r0, [r4, #3]
 80024d8:	6812      	ldr	r2, [r2, #0]
 80024da:	6823      	ldr	r3, [r4, #0]
 80024dc:	b14a      	cbz	r2, 80024f2 <decodeCommand+0x2de>
 80024de:	b21b      	sxth	r3, r3
 80024e0:	f06f 0163 	mvn.w	r1, #99	@ 0x63
 80024e4:	428b      	cmp	r3, r1
 80024e6:	bfb8      	it	lt
 80024e8:	460b      	movlt	r3, r1
 80024ea:	2b64      	cmp	r3, #100	@ 0x64
 80024ec:	bfa8      	it	ge
 80024ee:	2364      	movge	r3, #100	@ 0x64
 80024f0:	8013      	strh	r3, [r2, #0]
 80024f2:	e8bd 4070 	ldmia.w	sp!, {r4, r5, r6, lr}
 80024f6:	f7ff be5d 	b.w	80021b4 <UNER_SendData>
 80024fa:	2202      	movs	r2, #2
 80024fc:	21b1      	movs	r1, #177	@ 0xb1
 80024fe:	4620      	mov	r0, r4
 8002500:	f7ff fda6 	bl	8002050 <putHeaderOnTx>
 8002504:	210d      	movs	r1, #13
 8002506:	4620      	mov	r0, r4
 8002508:	f7ff fde7 	bl	80020da <putByteOnTx>
 800250c:	79e1      	ldrb	r1, [r4, #7]
 800250e:	4620      	mov	r0, r4
 8002510:	f7ff fde3 	bl	80020da <putByteOnTx>
 8002514:	2200      	movs	r2, #0
 8002516:	2101      	movs	r1, #1
 8002518:	4628      	mov	r0, r5
 800251a:	f7ff fe0d 	bl	8002138 <getByteFromRx>
 800251e:	4c11      	ldr	r4, [pc, #68]	@ (8002564 <decodeCommand+0x350>)
 8002520:	2101      	movs	r1, #1
 8002522:	7020      	strb	r0, [r4, #0]
 8002524:	4628      	mov	r0, r5
 8002526:	f7ff fe07 	bl	8002138 <getByteFromRx>
 800252a:	2101      	movs	r1, #1
 800252c:	7060      	strb	r0, [r4, #1]
 800252e:	4628      	mov	r0, r5
 8002530:	f7ff fe02 	bl	8002138 <getByteFromRx>
 8002534:	2101      	movs	r1, #1
 8002536:	70a0      	strb	r0, [r4, #2]
 8002538:	4628      	mov	r0, r5
 800253a:	f7ff fdfd 	bl	8002138 <getByteFromRx>
 800253e:	70e0      	strb	r0, [r4, #3]
 8002540:	edd4 7a00 	vldr	s15, [r4]
 8002544:	4b12      	ldr	r3, [pc, #72]	@ (8002590 <decodeCommand+0x37c>)
 8002546:	681b      	ldr	r3, [r3, #0]
 8002548:	2b00      	cmp	r3, #0
 800254a:	d0d2      	beq.n	80024f2 <decodeCommand+0x2de>
 800254c:	eef8 7ae7 	vcvt.f32.s32	s15, s15
 8002550:	edc3 7a00 	vstr	s15, [r3]
 8002554:	e7cd      	b.n	80024f2 <decodeCommand+0x2de>
 8002556:	bf00      	nop
 8002558:	0800bac7 	.word	0x0800bac7
 800255c:	20000004 	.word	0x20000004
 8002560:	20000414 	.word	0x20000414
 8002564:	20000434 	.word	0x20000434
 8002568:	20000430 	.word	0x20000430
 800256c:	2000042c 	.word	0x2000042c
 8002570:	20000428 	.word	0x20000428
 8002574:	20000424 	.word	0x20000424
 8002578:	20000420 	.word	0x20000420
 800257c:	2000041c 	.word	0x2000041c
 8002580:	20000400 	.word	0x20000400
 8002584:	200003fc 	.word	0x200003fc
 8002588:	2000040c 	.word	0x2000040c
 800258c:	20000410 	.word	0x20000410
 8002590:	20000408 	.word	0x20000408
 8002594:	2202      	movs	r2, #2
 8002596:	21b2      	movs	r1, #178	@ 0xb2
 8002598:	4620      	mov	r0, r4
 800259a:	f7ff fd59 	bl	8002050 <putHeaderOnTx>
 800259e:	210d      	movs	r1, #13
 80025a0:	4620      	mov	r0, r4
 80025a2:	f7ff fd9a 	bl	80020da <putByteOnTx>
 80025a6:	79e1      	ldrb	r1, [r4, #7]
 80025a8:	4620      	mov	r0, r4
 80025aa:	f7ff fd96 	bl	80020da <putByteOnTx>
 80025ae:	2200      	movs	r2, #0
 80025b0:	2101      	movs	r1, #1
 80025b2:	4628      	mov	r0, r5
 80025b4:	f7ff fdc0 	bl	8002138 <getByteFromRx>
 80025b8:	4c7c      	ldr	r4, [pc, #496]	@ (80027ac <decodeCommand+0x598>)
 80025ba:	2101      	movs	r1, #1
 80025bc:	7020      	strb	r0, [r4, #0]
 80025be:	4628      	mov	r0, r5
 80025c0:	f7ff fdba 	bl	8002138 <getByteFromRx>
 80025c4:	2101      	movs	r1, #1
 80025c6:	7060      	strb	r0, [r4, #1]
 80025c8:	4628      	mov	r0, r5
 80025ca:	f7ff fdb5 	bl	8002138 <getByteFromRx>
 80025ce:	2101      	movs	r1, #1
 80025d0:	70a0      	strb	r0, [r4, #2]
 80025d2:	4628      	mov	r0, r5
 80025d4:	f7ff fdb0 	bl	8002138 <getByteFromRx>
 80025d8:	70e0      	strb	r0, [r4, #3]
 80025da:	edd4 7a00 	vldr	s15, [r4]
 80025de:	4b74      	ldr	r3, [pc, #464]	@ (80027b0 <decodeCommand+0x59c>)
 80025e0:	e7b1      	b.n	8002546 <decodeCommand+0x332>
 80025e2:	4b74      	ldr	r3, [pc, #464]	@ (80027b4 <decodeCommand+0x5a0>)
 80025e4:	681a      	ldr	r2, [r3, #0]
 80025e6:	2a00      	cmp	r2, #0
 80025e8:	d083      	beq.n	80024f2 <decodeCommand+0x2de>
 80025ea:	7813      	ldrb	r3, [r2, #0]
 80025ec:	fab3 f383 	clz	r3, r3
 80025f0:	095b      	lsrs	r3, r3, #5
 80025f2:	7013      	strb	r3, [r2, #0]
 80025f4:	e77d      	b.n	80024f2 <decodeCommand+0x2de>
 80025f6:	4a70      	ldr	r2, [pc, #448]	@ (80027b8 <decodeCommand+0x5a4>)
 80025f8:	4d6c      	ldr	r5, [pc, #432]	@ (80027ac <decodeCommand+0x598>)
 80025fa:	7813      	ldrb	r3, [r2, #0]
 80025fc:	fab3 f383 	clz	r3, r3
 8002600:	095b      	lsrs	r3, r3, #5
 8002602:	7013      	strb	r3, [r2, #0]
 8002604:	21a9      	movs	r1, #169	@ 0xa9
 8002606:	2225      	movs	r2, #37	@ 0x25
 8002608:	4620      	mov	r0, r4
 800260a:	f7ff fd21 	bl	8002050 <putHeaderOnTx>
 800260e:	4b6b      	ldr	r3, [pc, #428]	@ (80027bc <decodeCommand+0x5a8>)
 8002610:	681e      	ldr	r6, [r3, #0]
 8002612:	8831      	ldrh	r1, [r6, #0]
 8002614:	8029      	strh	r1, [r5, #0]
 8002616:	4620      	mov	r0, r4
 8002618:	b2c9      	uxtb	r1, r1
 800261a:	f7ff fd5e 	bl	80020da <putByteOnTx>
 800261e:	7869      	ldrb	r1, [r5, #1]
 8002620:	4620      	mov	r0, r4
 8002622:	f7ff fd5a 	bl	80020da <putByteOnTx>
 8002626:	8871      	ldrh	r1, [r6, #2]
 8002628:	8029      	strh	r1, [r5, #0]
 800262a:	4620      	mov	r0, r4
 800262c:	b2c9      	uxtb	r1, r1
 800262e:	f7ff fd54 	bl	80020da <putByteOnTx>
 8002632:	7869      	ldrb	r1, [r5, #1]
 8002634:	4620      	mov	r0, r4
 8002636:	f7ff fd50 	bl	80020da <putByteOnTx>
 800263a:	88b1      	ldrh	r1, [r6, #4]
 800263c:	8029      	strh	r1, [r5, #0]
 800263e:	4620      	mov	r0, r4
 8002640:	b2c9      	uxtb	r1, r1
 8002642:	f7ff fd4a 	bl	80020da <putByteOnTx>
 8002646:	7869      	ldrb	r1, [r5, #1]
 8002648:	4620      	mov	r0, r4
 800264a:	f7ff fd46 	bl	80020da <putByteOnTx>
 800264e:	88f1      	ldrh	r1, [r6, #6]
 8002650:	8029      	strh	r1, [r5, #0]
 8002652:	4620      	mov	r0, r4
 8002654:	b2c9      	uxtb	r1, r1
 8002656:	f7ff fd40 	bl	80020da <putByteOnTx>
 800265a:	7869      	ldrb	r1, [r5, #1]
 800265c:	4620      	mov	r0, r4
 800265e:	f7ff fd3c 	bl	80020da <putByteOnTx>
 8002662:	8931      	ldrh	r1, [r6, #8]
 8002664:	8029      	strh	r1, [r5, #0]
 8002666:	4620      	mov	r0, r4
 8002668:	b2c9      	uxtb	r1, r1
 800266a:	f7ff fd36 	bl	80020da <putByteOnTx>
 800266e:	7869      	ldrb	r1, [r5, #1]
 8002670:	4620      	mov	r0, r4
 8002672:	f7ff fd32 	bl	80020da <putByteOnTx>
 8002676:	8971      	ldrh	r1, [r6, #10]
 8002678:	8029      	strh	r1, [r5, #0]
 800267a:	4620      	mov	r0, r4
 800267c:	b2c9      	uxtb	r1, r1
 800267e:	f7ff fd2c 	bl	80020da <putByteOnTx>
 8002682:	7869      	ldrb	r1, [r5, #1]
 8002684:	4620      	mov	r0, r4
 8002686:	f7ff fd28 	bl	80020da <putByteOnTx>
 800268a:	89b1      	ldrh	r1, [r6, #12]
 800268c:	8029      	strh	r1, [r5, #0]
 800268e:	4620      	mov	r0, r4
 8002690:	b2c9      	uxtb	r1, r1
 8002692:	f7ff fd22 	bl	80020da <putByteOnTx>
 8002696:	7869      	ldrb	r1, [r5, #1]
 8002698:	4620      	mov	r0, r4
 800269a:	f7ff fd1e 	bl	80020da <putByteOnTx>
 800269e:	89f1      	ldrh	r1, [r6, #14]
 80026a0:	8029      	strh	r1, [r5, #0]
 80026a2:	4620      	mov	r0, r4
 80026a4:	b2c9      	uxtb	r1, r1
 80026a6:	f7ff fd18 	bl	80020da <putByteOnTx>
 80026aa:	7869      	ldrb	r1, [r5, #1]
 80026ac:	4620      	mov	r0, r4
 80026ae:	f7ff fd14 	bl	80020da <putByteOnTx>
 80026b2:	4b43      	ldr	r3, [pc, #268]	@ (80027c0 <decodeCommand+0x5ac>)
 80026b4:	681b      	ldr	r3, [r3, #0]
 80026b6:	f9b3 1000 	ldrsh.w	r1, [r3]
 80026ba:	8029      	strh	r1, [r5, #0]
 80026bc:	4620      	mov	r0, r4
 80026be:	b2c9      	uxtb	r1, r1
 80026c0:	f7ff fd0b 	bl	80020da <putByteOnTx>
 80026c4:	7869      	ldrb	r1, [r5, #1]
 80026c6:	4620      	mov	r0, r4
 80026c8:	f7ff fd07 	bl	80020da <putByteOnTx>
 80026cc:	4b3d      	ldr	r3, [pc, #244]	@ (80027c4 <decodeCommand+0x5b0>)
 80026ce:	681b      	ldr	r3, [r3, #0]
 80026d0:	f9b3 1000 	ldrsh.w	r1, [r3]
 80026d4:	8029      	strh	r1, [r5, #0]
 80026d6:	4620      	mov	r0, r4
 80026d8:	b2c9      	uxtb	r1, r1
 80026da:	f7ff fcfe 	bl	80020da <putByteOnTx>
 80026de:	7869      	ldrb	r1, [r5, #1]
 80026e0:	4620      	mov	r0, r4
 80026e2:	f7ff fcfa 	bl	80020da <putByteOnTx>
 80026e6:	4b38      	ldr	r3, [pc, #224]	@ (80027c8 <decodeCommand+0x5b4>)
 80026e8:	681b      	ldr	r3, [r3, #0]
 80026ea:	f9b3 1000 	ldrsh.w	r1, [r3]
 80026ee:	8029      	strh	r1, [r5, #0]
 80026f0:	4620      	mov	r0, r4
 80026f2:	b2c9      	uxtb	r1, r1
 80026f4:	f7ff fcf1 	bl	80020da <putByteOnTx>
 80026f8:	7869      	ldrb	r1, [r5, #1]
 80026fa:	4620      	mov	r0, r4
 80026fc:	f7ff fced 	bl	80020da <putByteOnTx>
 8002700:	4b32      	ldr	r3, [pc, #200]	@ (80027cc <decodeCommand+0x5b8>)
 8002702:	681b      	ldr	r3, [r3, #0]
 8002704:	f9b3 1000 	ldrsh.w	r1, [r3]
 8002708:	8029      	strh	r1, [r5, #0]
 800270a:	4620      	mov	r0, r4
 800270c:	b2c9      	uxtb	r1, r1
 800270e:	f7ff fce4 	bl	80020da <putByteOnTx>
 8002712:	7869      	ldrb	r1, [r5, #1]
 8002714:	4620      	mov	r0, r4
 8002716:	f7ff fce0 	bl	80020da <putByteOnTx>
 800271a:	4b2d      	ldr	r3, [pc, #180]	@ (80027d0 <decodeCommand+0x5bc>)
 800271c:	681b      	ldr	r3, [r3, #0]
 800271e:	f9b3 1000 	ldrsh.w	r1, [r3]
 8002722:	8029      	strh	r1, [r5, #0]
 8002724:	4620      	mov	r0, r4
 8002726:	b2c9      	uxtb	r1, r1
 8002728:	f7ff fcd7 	bl	80020da <putByteOnTx>
 800272c:	7869      	ldrb	r1, [r5, #1]
 800272e:	4620      	mov	r0, r4
 8002730:	f7ff fcd3 	bl	80020da <putByteOnTx>
 8002734:	4b27      	ldr	r3, [pc, #156]	@ (80027d4 <decodeCommand+0x5c0>)
 8002736:	681b      	ldr	r3, [r3, #0]
 8002738:	f9b3 1000 	ldrsh.w	r1, [r3]
 800273c:	8029      	strh	r1, [r5, #0]
 800273e:	4620      	mov	r0, r4
 8002740:	b2c9      	uxtb	r1, r1
 8002742:	f7ff fcca 	bl	80020da <putByteOnTx>
 8002746:	7869      	ldrb	r1, [r5, #1]
 8002748:	4620      	mov	r0, r4
 800274a:	f7ff fcc6 	bl	80020da <putByteOnTx>
 800274e:	4b22      	ldr	r3, [pc, #136]	@ (80027d8 <decodeCommand+0x5c4>)
 8002750:	681b      	ldr	r3, [r3, #0]
 8002752:	6819      	ldr	r1, [r3, #0]
 8002754:	6029      	str	r1, [r5, #0]
 8002756:	4620      	mov	r0, r4
 8002758:	b2c9      	uxtb	r1, r1
 800275a:	f7ff fcbe 	bl	80020da <putByteOnTx>
 800275e:	7869      	ldrb	r1, [r5, #1]
 8002760:	4620      	mov	r0, r4
 8002762:	f7ff fcba 	bl	80020da <putByteOnTx>
 8002766:	78a9      	ldrb	r1, [r5, #2]
 8002768:	4620      	mov	r0, r4
 800276a:	f7ff fcb6 	bl	80020da <putByteOnTx>
 800276e:	78e9      	ldrb	r1, [r5, #3]
 8002770:	4620      	mov	r0, r4
 8002772:	f7ff fcb2 	bl	80020da <putByteOnTx>
 8002776:	4b19      	ldr	r3, [pc, #100]	@ (80027dc <decodeCommand+0x5c8>)
 8002778:	681b      	ldr	r3, [r3, #0]
 800277a:	6819      	ldr	r1, [r3, #0]
 800277c:	6029      	str	r1, [r5, #0]
 800277e:	4620      	mov	r0, r4
 8002780:	b2c9      	uxtb	r1, r1
 8002782:	f7ff fcaa 	bl	80020da <putByteOnTx>
 8002786:	7869      	ldrb	r1, [r5, #1]
 8002788:	4620      	mov	r0, r4
 800278a:	f7ff fca6 	bl	80020da <putByteOnTx>
 800278e:	78a9      	ldrb	r1, [r5, #2]
 8002790:	4620      	mov	r0, r4
 8002792:	f7ff fca2 	bl	80020da <putByteOnTx>
 8002796:	78e9      	ldrb	r1, [r5, #3]
 8002798:	4620      	mov	r0, r4
 800279a:	f7ff fc9e 	bl	80020da <putByteOnTx>
 800279e:	4b10      	ldr	r3, [pc, #64]	@ (80027e0 <decodeCommand+0x5cc>)
 80027a0:	681b      	ldr	r3, [r3, #0]
 80027a2:	79d9      	ldrb	r1, [r3, #7]
 80027a4:	4620      	mov	r0, r4
 80027a6:	f7ff fc98 	bl	80020da <putByteOnTx>
 80027aa:	e6a2      	b.n	80024f2 <decodeCommand+0x2de>
 80027ac:	20000434 	.word	0x20000434
 80027b0:	20000404 	.word	0x20000404
 80027b4:	200003f8 	.word	0x200003f8
 80027b8:	20000418 	.word	0x20000418
 80027bc:	20000414 	.word	0x20000414
 80027c0:	20000430 	.word	0x20000430
 80027c4:	2000042c 	.word	0x2000042c
 80027c8:	20000428 	.word	0x20000428
 80027cc:	20000424 	.word	0x20000424
 80027d0:	20000420 	.word	0x20000420
 80027d4:	2000041c 	.word	0x2000041c
 80027d8:	20000400 	.word	0x20000400
 80027dc:	200003fc 	.word	0x200003fc
 80027e0:	20000438 	.word	0x20000438

080027e4 <UNER_Task>:
 80027e4:	b5f8      	push	{r3, r4, r5, r6, r7, lr}
 80027e6:	4c33      	ldr	r4, [pc, #204]	@ (80028b4 <UNER_Task+0xd0>)
 80027e8:	6823      	ldr	r3, [r4, #0]
 80027ea:	795d      	ldrb	r5, [r3, #5]
 80027ec:	2605      	movs	r6, #5
 80027ee:	6820      	ldr	r0, [r4, #0]
 80027f0:	7903      	ldrb	r3, [r0, #4]
 80027f2:	42ab      	cmp	r3, r5
 80027f4:	d100      	bne.n	80027f8 <UNER_Task+0x14>
 80027f6:	bdf8      	pop	{r3, r4, r5, r6, r7, pc}
 80027f8:	7a02      	ldrb	r2, [r0, #8]
 80027fa:	2a06      	cmp	r2, #6
 80027fc:	d858      	bhi.n	80028b0 <UNER_Task+0xcc>
 80027fe:	e8df f002 	tbb	[pc, r2]
 8002802:	1304      	.short	0x1304
 8002804:	332e2822 	.word	0x332e2822
 8002808:	42          	.byte	0x42
 8002809:	00          	.byte	0x00
 800280a:	6802      	ldr	r2, [r0, #0]
 800280c:	5cd3      	ldrb	r3, [r2, r3]
 800280e:	2b55      	cmp	r3, #85	@ 0x55
 8002810:	d103      	bne.n	800281a <UNER_Task+0x36>
 8002812:	2301      	movs	r3, #1
 8002814:	7203      	strb	r3, [r0, #8]
 8002816:	2305      	movs	r3, #5
 8002818:	7303      	strb	r3, [r0, #12]
 800281a:	6822      	ldr	r2, [r4, #0]
 800281c:	7913      	ldrb	r3, [r2, #4]
 800281e:	7a91      	ldrb	r1, [r2, #10]
 8002820:	3301      	adds	r3, #1
 8002822:	400b      	ands	r3, r1
 8002824:	7113      	strb	r3, [r2, #4]
 8002826:	e7e2      	b.n	80027ee <UNER_Task+0xa>
 8002828:	6802      	ldr	r2, [r0, #0]
 800282a:	5cd1      	ldrb	r1, [r2, r3]
 800282c:	294e      	cmp	r1, #78	@ 0x4e
 800282e:	d102      	bne.n	8002836 <UNER_Task+0x52>
 8002830:	2302      	movs	r3, #2
 8002832:	7203      	strb	r3, [r0, #8]
 8002834:	e7f1      	b.n	800281a <UNER_Task+0x36>
 8002836:	5cd2      	ldrb	r2, [r2, r3]
 8002838:	2a55      	cmp	r2, #85	@ 0x55
 800283a:	d0ee      	beq.n	800281a <UNER_Task+0x36>
 800283c:	2200      	movs	r2, #0
 800283e:	3b01      	subs	r3, #1
 8002840:	7202      	strb	r2, [r0, #8]
 8002842:	7103      	strb	r3, [r0, #4]
 8002844:	e7e9      	b.n	800281a <UNER_Task+0x36>
 8002846:	6802      	ldr	r2, [r0, #0]
 8002848:	5cd2      	ldrb	r2, [r2, r3]
 800284a:	2a45      	cmp	r2, #69	@ 0x45
 800284c:	d1f6      	bne.n	800283c <UNER_Task+0x58>
 800284e:	2303      	movs	r3, #3
 8002850:	e7ef      	b.n	8002832 <UNER_Task+0x4e>
 8002852:	6802      	ldr	r2, [r0, #0]
 8002854:	5cd2      	ldrb	r2, [r2, r3]
 8002856:	2a52      	cmp	r2, #82	@ 0x52
 8002858:	d1f0      	bne.n	800283c <UNER_Task+0x58>
 800285a:	2304      	movs	r3, #4
 800285c:	e7e9      	b.n	8002832 <UNER_Task+0x4e>
 800285e:	6802      	ldr	r2, [r0, #0]
 8002860:	5cd3      	ldrb	r3, [r2, r3]
 8002862:	71c3      	strb	r3, [r0, #7]
 8002864:	7206      	strb	r6, [r0, #8]
 8002866:	e7d8      	b.n	800281a <UNER_Task+0x36>
 8002868:	6802      	ldr	r2, [r0, #0]
 800286a:	5cd1      	ldrb	r1, [r2, r3]
 800286c:	7a82      	ldrb	r2, [r0, #10]
 800286e:	293a      	cmp	r1, #58	@ 0x3a
 8002870:	d1e4      	bne.n	800283c <UNER_Task+0x58>
 8002872:	3301      	adds	r3, #1
 8002874:	4013      	ands	r3, r2
 8002876:	7183      	strb	r3, [r0, #6]
 8002878:	79c3      	ldrb	r3, [r0, #7]
 800287a:	2106      	movs	r1, #6
 800287c:	7201      	strb	r1, [r0, #8]
 800287e:	f083 0336 	eor.w	r3, r3, #54	@ 0x36
 8002882:	7243      	strb	r3, [r0, #9]
 8002884:	e7c9      	b.n	800281a <UNER_Task+0x36>
 8002886:	79c2      	ldrb	r2, [r0, #7]
 8002888:	6807      	ldr	r7, [r0, #0]
 800288a:	7a41      	ldrb	r1, [r0, #9]
 800288c:	3a01      	subs	r2, #1
 800288e:	b2d2      	uxtb	r2, r2
 8002890:	71c2      	strb	r2, [r0, #7]
 8002892:	b112      	cbz	r2, 800289a <UNER_Task+0xb6>
 8002894:	5cfb      	ldrb	r3, [r7, r3]
 8002896:	404b      	eors	r3, r1
 8002898:	e7f3      	b.n	8002882 <UNER_Task+0x9e>
 800289a:	7202      	strb	r2, [r0, #8]
 800289c:	5cfb      	ldrb	r3, [r7, r3]
 800289e:	428b      	cmp	r3, r1
 80028a0:	d1bb      	bne.n	800281a <UNER_Task+0x36>
 80028a2:	2301      	movs	r3, #1
 80028a4:	72c3      	strb	r3, [r0, #11]
 80028a6:	4b04      	ldr	r3, [pc, #16]	@ (80028b8 <UNER_Task+0xd4>)
 80028a8:	6819      	ldr	r1, [r3, #0]
 80028aa:	f7ff fcb3 	bl	8002214 <decodeCommand>
 80028ae:	e7b4      	b.n	800281a <UNER_Task+0x36>
 80028b0:	2300      	movs	r3, #0
 80028b2:	e7be      	b.n	8002832 <UNER_Task+0x4e>
 80028b4:	2000043c 	.word	0x2000043c
 80028b8:	20000438 	.word	0x20000438

080028bc <UNER_SendAlive>:
 80028bc:	b510      	push	{r4, lr}
 80028be:	4c15      	ldr	r4, [pc, #84]	@ (8002914 <UNER_SendAlive+0x58>)
 80028c0:	4815      	ldr	r0, [pc, #84]	@ (8002918 <UNER_SendAlive+0x5c>)
 80028c2:	f000 fabf 	bl	8002e44 <USB_Debug>
 80028c6:	6823      	ldr	r3, [r4, #0]
 80028c8:	791a      	ldrb	r2, [r3, #4]
 80028ca:	795b      	ldrb	r3, [r3, #5]
 80028cc:	429a      	cmp	r2, r3
 80028ce:	d004      	beq.n	80028da <UNER_SendAlive+0x1e>
 80028d0:	4812      	ldr	r0, [pc, #72]	@ (800291c <UNER_SendAlive+0x60>)
 80028d2:	e8bd 4010 	ldmia.w	sp!, {r4, lr}
 80028d6:	f000 ba70 	b.w	8002dba <USB_DebugStr>
 80028da:	f7ff f995 	bl	8001c08 <ESP01_IsSending>
 80028de:	b108      	cbz	r0, 80028e4 <UNER_SendAlive+0x28>
 80028e0:	480f      	ldr	r0, [pc, #60]	@ (8002920 <UNER_SendAlive+0x64>)
 80028e2:	e7f6      	b.n	80028d2 <UNER_SendAlive+0x16>
 80028e4:	f7fe fadc 	bl	8000ea0 <ESP01_StateUDPTCP>
 80028e8:	2808      	cmp	r0, #8
 80028ea:	d001      	beq.n	80028f0 <UNER_SendAlive+0x34>
 80028ec:	480d      	ldr	r0, [pc, #52]	@ (8002924 <UNER_SendAlive+0x68>)
 80028ee:	e7f0      	b.n	80028d2 <UNER_SendAlive+0x16>
 80028f0:	6824      	ldr	r4, [r4, #0]
 80028f2:	2202      	movs	r2, #2
 80028f4:	21f0      	movs	r1, #240	@ 0xf0
 80028f6:	4620      	mov	r0, r4
 80028f8:	f7ff fbaa 	bl	8002050 <putHeaderOnTx>
 80028fc:	210d      	movs	r1, #13
 80028fe:	4620      	mov	r0, r4
 8002900:	f7ff fbeb 	bl	80020da <putByteOnTx>
 8002904:	79e1      	ldrb	r1, [r4, #7]
 8002906:	4620      	mov	r0, r4
 8002908:	f7ff fbe7 	bl	80020da <putByteOnTx>
 800290c:	e8bd 4010 	ldmia.w	sp!, {r4, lr}
 8002910:	f7ff bc50 	b.w	80021b4 <UNER_SendData>
 8002914:	20000438 	.word	0x20000438
 8002918:	0800bada 	.word	0x0800bada
 800291c:	0800baf6 	.word	0x0800baf6
 8002920:	0800bb1a 	.word	0x0800bb1a
 8002924:	0800bb3e 	.word	0x0800bb3e

08002928 <UNER_SendAllSensors>:
 8002928:	b570      	push	{r4, r5, r6, lr}
 800292a:	f7ff f96d 	bl	8001c08 <ESP01_IsSending>
 800292e:	2800      	cmp	r0, #0
 8002930:	f040 80da 	bne.w	8002ae8 <UNER_SendAllSensors+0x1c0>
 8002934:	4b6d      	ldr	r3, [pc, #436]	@ (8002aec <UNER_SendAllSensors+0x1c4>)
 8002936:	4d6e      	ldr	r5, [pc, #440]	@ (8002af0 <UNER_SendAllSensors+0x1c8>)
 8002938:	681c      	ldr	r4, [r3, #0]
 800293a:	2225      	movs	r2, #37	@ 0x25
 800293c:	80a0      	strh	r0, [r4, #4]
 800293e:	71e0      	strb	r0, [r4, #7]
 8002940:	21a9      	movs	r1, #169	@ 0xa9
 8002942:	4620      	mov	r0, r4
 8002944:	f7ff fb84 	bl	8002050 <putHeaderOnTx>
 8002948:	4b6a      	ldr	r3, [pc, #424]	@ (8002af4 <UNER_SendAllSensors+0x1cc>)
 800294a:	681e      	ldr	r6, [r3, #0]
 800294c:	8831      	ldrh	r1, [r6, #0]
 800294e:	8029      	strh	r1, [r5, #0]
 8002950:	4620      	mov	r0, r4
 8002952:	b2c9      	uxtb	r1, r1
 8002954:	f7ff fbc1 	bl	80020da <putByteOnTx>
 8002958:	7869      	ldrb	r1, [r5, #1]
 800295a:	4620      	mov	r0, r4
 800295c:	f7ff fbbd 	bl	80020da <putByteOnTx>
 8002960:	8871      	ldrh	r1, [r6, #2]
 8002962:	8029      	strh	r1, [r5, #0]
 8002964:	4620      	mov	r0, r4
 8002966:	b2c9      	uxtb	r1, r1
 8002968:	f7ff fbb7 	bl	80020da <putByteOnTx>
 800296c:	7869      	ldrb	r1, [r5, #1]
 800296e:	4620      	mov	r0, r4
 8002970:	f7ff fbb3 	bl	80020da <putByteOnTx>
 8002974:	88b1      	ldrh	r1, [r6, #4]
 8002976:	8029      	strh	r1, [r5, #0]
 8002978:	4620      	mov	r0, r4
 800297a:	b2c9      	uxtb	r1, r1
 800297c:	f7ff fbad 	bl	80020da <putByteOnTx>
 8002980:	7869      	ldrb	r1, [r5, #1]
 8002982:	4620      	mov	r0, r4
 8002984:	f7ff fba9 	bl	80020da <putByteOnTx>
 8002988:	88f1      	ldrh	r1, [r6, #6]
 800298a:	8029      	strh	r1, [r5, #0]
 800298c:	4620      	mov	r0, r4
 800298e:	b2c9      	uxtb	r1, r1
 8002990:	f7ff fba3 	bl	80020da <putByteOnTx>
 8002994:	7869      	ldrb	r1, [r5, #1]
 8002996:	4620      	mov	r0, r4
 8002998:	f7ff fb9f 	bl	80020da <putByteOnTx>
 800299c:	8931      	ldrh	r1, [r6, #8]
 800299e:	8029      	strh	r1, [r5, #0]
 80029a0:	4620      	mov	r0, r4
 80029a2:	b2c9      	uxtb	r1, r1
 80029a4:	f7ff fb99 	bl	80020da <putByteOnTx>
 80029a8:	7869      	ldrb	r1, [r5, #1]
 80029aa:	4620      	mov	r0, r4
 80029ac:	f7ff fb95 	bl	80020da <putByteOnTx>
 80029b0:	8971      	ldrh	r1, [r6, #10]
 80029b2:	8029      	strh	r1, [r5, #0]
 80029b4:	4620      	mov	r0, r4
 80029b6:	b2c9      	uxtb	r1, r1
 80029b8:	f7ff fb8f 	bl	80020da <putByteOnTx>
 80029bc:	7869      	ldrb	r1, [r5, #1]
 80029be:	4620      	mov	r0, r4
 80029c0:	f7ff fb8b 	bl	80020da <putByteOnTx>
 80029c4:	89b1      	ldrh	r1, [r6, #12]
 80029c6:	8029      	strh	r1, [r5, #0]
 80029c8:	4620      	mov	r0, r4
 80029ca:	b2c9      	uxtb	r1, r1
 80029cc:	f7ff fb85 	bl	80020da <putByteOnTx>
 80029d0:	7869      	ldrb	r1, [r5, #1]
 80029d2:	4620      	mov	r0, r4
 80029d4:	f7ff fb81 	bl	80020da <putByteOnTx>
 80029d8:	89f1      	ldrh	r1, [r6, #14]
 80029da:	8029      	strh	r1, [r5, #0]
 80029dc:	4620      	mov	r0, r4
 80029de:	b2c9      	uxtb	r1, r1
 80029e0:	f7ff fb7b 	bl	80020da <putByteOnTx>
 80029e4:	7869      	ldrb	r1, [r5, #1]
 80029e6:	4620      	mov	r0, r4
 80029e8:	f7ff fb77 	bl	80020da <putByteOnTx>
 80029ec:	4b42      	ldr	r3, [pc, #264]	@ (8002af8 <UNER_SendAllSensors+0x1d0>)
 80029ee:	681b      	ldr	r3, [r3, #0]
 80029f0:	f9b3 1000 	ldrsh.w	r1, [r3]
 80029f4:	8029      	strh	r1, [r5, #0]
 80029f6:	4620      	mov	r0, r4
 80029f8:	b2c9      	uxtb	r1, r1
 80029fa:	f7ff fb6e 	bl	80020da <putByteOnTx>
 80029fe:	7869      	ldrb	r1, [r5, #1]
 8002a00:	4620      	mov	r0, r4
 8002a02:	f7ff fb6a 	bl	80020da <putByteOnTx>
 8002a06:	4b3d      	ldr	r3, [pc, #244]	@ (8002afc <UNER_SendAllSensors+0x1d4>)
 8002a08:	681b      	ldr	r3, [r3, #0]
 8002a0a:	f9b3 1000 	ldrsh.w	r1, [r3]
 8002a0e:	8029      	strh	r1, [r5, #0]
 8002a10:	4620      	mov	r0, r4
 8002a12:	b2c9      	uxtb	r1, r1
 8002a14:	f7ff fb61 	bl	80020da <putByteOnTx>
 8002a18:	7869      	ldrb	r1, [r5, #1]
 8002a1a:	4620      	mov	r0, r4
 8002a1c:	f7ff fb5d 	bl	80020da <putByteOnTx>
 8002a20:	4b37      	ldr	r3, [pc, #220]	@ (8002b00 <UNER_SendAllSensors+0x1d8>)
 8002a22:	681b      	ldr	r3, [r3, #0]
 8002a24:	f9b3 1000 	ldrsh.w	r1, [r3]
 8002a28:	8029      	strh	r1, [r5, #0]
 8002a2a:	4620      	mov	r0, r4
 8002a2c:	b2c9      	uxtb	r1, r1
 8002a2e:	f7ff fb54 	bl	80020da <putByteOnTx>
 8002a32:	7869      	ldrb	r1, [r5, #1]
 8002a34:	4620      	mov	r0, r4
 8002a36:	f7ff fb50 	bl	80020da <putByteOnTx>
 8002a3a:	4b32      	ldr	r3, [pc, #200]	@ (8002b04 <UNER_SendAllSensors+0x1dc>)
 8002a3c:	681b      	ldr	r3, [r3, #0]
 8002a3e:	f9b3 1000 	ldrsh.w	r1, [r3]
 8002a42:	8029      	strh	r1, [r5, #0]
 8002a44:	4620      	mov	r0, r4
 8002a46:	b2c9      	uxtb	r1, r1
 8002a48:	f7ff fb47 	bl	80020da <putByteOnTx>
 8002a4c:	7869      	ldrb	r1, [r5, #1]
 8002a4e:	4620      	mov	r0, r4
 8002a50:	f7ff fb43 	bl	80020da <putByteOnTx>
 8002a54:	4b2c      	ldr	r3, [pc, #176]	@ (8002b08 <UNER_SendAllSensors+0x1e0>)
 8002a56:	681b      	ldr	r3, [r3, #0]
 8002a58:	f9b3 1000 	ldrsh.w	r1, [r3]
 8002a5c:	8029      	strh	r1, [r5, #0]
 8002a5e:	4620      	mov	r0, r4
 8002a60:	b2c9      	uxtb	r1, r1
 8002a62:	f7ff fb3a 	bl	80020da <putByteOnTx>
 8002a66:	7869      	ldrb	r1, [r5, #1]
 8002a68:	4620      	mov	r0, r4
 8002a6a:	f7ff fb36 	bl	80020da <putByteOnTx>
 8002a6e:	4b27      	ldr	r3, [pc, #156]	@ (8002b0c <UNER_SendAllSensors+0x1e4>)
 8002a70:	681b      	ldr	r3, [r3, #0]
 8002a72:	f9b3 1000 	ldrsh.w	r1, [r3]
 8002a76:	8029      	strh	r1, [r5, #0]
 8002a78:	4620      	mov	r0, r4
 8002a7a:	b2c9      	uxtb	r1, r1
 8002a7c:	f7ff fb2d 	bl	80020da <putByteOnTx>
 8002a80:	7869      	ldrb	r1, [r5, #1]
 8002a82:	4620      	mov	r0, r4
 8002a84:	f7ff fb29 	bl	80020da <putByteOnTx>
 8002a88:	4b21      	ldr	r3, [pc, #132]	@ (8002b10 <UNER_SendAllSensors+0x1e8>)
 8002a8a:	681b      	ldr	r3, [r3, #0]
 8002a8c:	6819      	ldr	r1, [r3, #0]
 8002a8e:	6029      	str	r1, [r5, #0]
 8002a90:	4620      	mov	r0, r4
 8002a92:	b2c9      	uxtb	r1, r1
 8002a94:	f7ff fb21 	bl	80020da <putByteOnTx>
 8002a98:	7869      	ldrb	r1, [r5, #1]
 8002a9a:	4620      	mov	r0, r4
 8002a9c:	f7ff fb1d 	bl	80020da <putByteOnTx>
 8002aa0:	78a9      	ldrb	r1, [r5, #2]
 8002aa2:	4620      	mov	r0, r4
 8002aa4:	f7ff fb19 	bl	80020da <putByteOnTx>
 8002aa8:	78e9      	ldrb	r1, [r5, #3]
 8002aaa:	4620      	mov	r0, r4
 8002aac:	f7ff fb15 	bl	80020da <putByteOnTx>
 8002ab0:	4b18      	ldr	r3, [pc, #96]	@ (8002b14 <UNER_SendAllSensors+0x1ec>)
 8002ab2:	681b      	ldr	r3, [r3, #0]
 8002ab4:	6819      	ldr	r1, [r3, #0]
 8002ab6:	6029      	str	r1, [r5, #0]
 8002ab8:	4620      	mov	r0, r4
 8002aba:	b2c9      	uxtb	r1, r1
 8002abc:	f7ff fb0d 	bl	80020da <putByteOnTx>
 8002ac0:	7869      	ldrb	r1, [r5, #1]
 8002ac2:	4620      	mov	r0, r4
 8002ac4:	f7ff fb09 	bl	80020da <putByteOnTx>
 8002ac8:	78a9      	ldrb	r1, [r5, #2]
 8002aca:	4620      	mov	r0, r4
 8002acc:	f7ff fb05 	bl	80020da <putByteOnTx>
 8002ad0:	78e9      	ldrb	r1, [r5, #3]
 8002ad2:	4620      	mov	r0, r4
 8002ad4:	f7ff fb01 	bl	80020da <putByteOnTx>
 8002ad8:	79e1      	ldrb	r1, [r4, #7]
 8002ada:	4620      	mov	r0, r4
 8002adc:	f7ff fafd 	bl	80020da <putByteOnTx>
 8002ae0:	e8bd 4070 	ldmia.w	sp!, {r4, r5, r6, lr}
 8002ae4:	f7ff bb66 	b.w	80021b4 <UNER_SendData>
 8002ae8:	bd70      	pop	{r4, r5, r6, pc}
 8002aea:	bf00      	nop
 8002aec:	20000438 	.word	0x20000438
 8002af0:	20000434 	.word	0x20000434
 8002af4:	20000414 	.word	0x20000414
 8002af8:	20000430 	.word	0x20000430
 8002afc:	2000042c 	.word	0x2000042c
 8002b00:	20000428 	.word	0x20000428
 8002b04:	20000424 	.word	0x20000424
 8002b08:	20000420 	.word	0x20000420
 8002b0c:	2000041c 	.word	0x2000041c
 8002b10:	20000400 	.word	0x20000400
 8002b14:	200003fc 	.word	0x200003fc

08002b18 <USBRxData>:
 8002b18:	4770      	bx	lr

08002b1a <my_ssd1306_init>:
 8002b1a:	4770      	bx	lr

08002b1c <my_ssd1306_is_busy>:
 8002b1c:	4b02      	ldr	r3, [pc, #8]	@ (8002b28 <my_ssd1306_is_busy+0xc>)
 8002b1e:	7818      	ldrb	r0, [r3, #0]
 8002b20:	3800      	subs	r0, #0
 8002b22:	bf18      	it	ne
 8002b24:	2001      	movne	r0, #1
 8002b26:	4770      	bx	lr
 8002b28:	20000776 	.word	0x20000776

08002b2c <my_ssd1306_delay_ms>:
 8002b2c:	4608      	mov	r0, r1
 8002b2e:	f001 beff 	b.w	8004930 <HAL_Delay>
	...

08002b34 <mpu_writeReg>:
 8002b34:	b530      	push	{r4, r5, lr}
 8002b36:	b085      	sub	sp, #20
 8002b38:	f04f 34ff 	mov.w	r4, #4294967295
 8002b3c:	f8bd 5020 	ldrh.w	r5, [sp, #32]
 8002b40:	9402      	str	r4, [sp, #8]
 8002b42:	e9cd 3500 	strd	r3, r5, [sp]
 8002b46:	2301      	movs	r3, #1
 8002b48:	f003 f8f0 	bl	8005d2c <HAL_I2C_Mem_Write>
 8002b4c:	4601      	mov	r1, r0
 8002b4e:	b120      	cbz	r0, 8002b5a <mpu_writeReg+0x26>
 8002b50:	4b03      	ldr	r3, [pc, #12]	@ (8002b60 <mpu_writeReg+0x2c>)
 8002b52:	6818      	ldr	r0, [r3, #0]
 8002b54:	695a      	ldr	r2, [r3, #20]
 8002b56:	4790      	blx	r2
 8002b58:	4620      	mov	r0, r4
 8002b5a:	b005      	add	sp, #20
 8002b5c:	bd30      	pop	{r4, r5, pc}
 8002b5e:	bf00      	nop
 8002b60:	2000002c 	.word	0x2000002c

08002b64 <mpu_readReg>:
 8002b64:	b530      	push	{r4, r5, lr}
 8002b66:	b085      	sub	sp, #20
 8002b68:	f04f 34ff 	mov.w	r4, #4294967295
 8002b6c:	f8bd 5020 	ldrh.w	r5, [sp, #32]
 8002b70:	9402      	str	r4, [sp, #8]
 8002b72:	e9cd 3500 	strd	r3, r5, [sp]
 8002b76:	2301      	movs	r3, #1
 8002b78:	f003 f968 	bl	8005e4c <HAL_I2C_Mem_Read>
 8002b7c:	4601      	mov	r1, r0
 8002b7e:	b120      	cbz	r0, 8002b8a <mpu_readReg+0x26>
 8002b80:	4b03      	ldr	r3, [pc, #12]	@ (8002b90 <mpu_readReg+0x2c>)
 8002b82:	6818      	ldr	r0, [r3, #0]
 8002b84:	695a      	ldr	r2, [r3, #20]
 8002b86:	4790      	blx	r2
 8002b88:	4620      	mov	r0, r4
 8002b8a:	b005      	add	sp, #20
 8002b8c:	bd30      	pop	{r4, r5, pc}
 8002b8e:	bf00      	nop
 8002b90:	2000002c 	.word	0x2000002c

08002b94 <mpu_readRegDMA>:
 8002b94:	b5f7      	push	{r0, r1, r2, r4, r5, r6, r7, lr}
 8002b96:	4c0b      	ldr	r4, [pc, #44]	@ (8002bc4 <mpu_readRegDMA+0x30>)
 8002b98:	7826      	ldrb	r6, [r4, #0]
 8002b9a:	461d      	mov	r5, r3
 8002b9c:	b976      	cbnz	r6, 8002bbc <mpu_readRegDMA+0x28>
 8002b9e:	f8bd 7020 	ldrh.w	r7, [sp, #32]
 8002ba2:	2301      	movs	r3, #1
 8002ba4:	7023      	strb	r3, [r4, #0]
 8002ba6:	e9cd 5700 	strd	r5, r7, [sp]
 8002baa:	f003 fa5f 	bl	800606c <HAL_I2C_Mem_Read_DMA>
 8002bae:	4601      	mov	r1, r0
 8002bb0:	b130      	cbz	r0, 8002bc0 <mpu_readRegDMA+0x2c>
 8002bb2:	4b05      	ldr	r3, [pc, #20]	@ (8002bc8 <mpu_readRegDMA+0x34>)
 8002bb4:	7026      	strb	r6, [r4, #0]
 8002bb6:	695a      	ldr	r2, [r3, #20]
 8002bb8:	6818      	ldr	r0, [r3, #0]
 8002bba:	4790      	blx	r2
 8002bbc:	f04f 30ff 	mov.w	r0, #4294967295
 8002bc0:	b003      	add	sp, #12
 8002bc2:	bdf0      	pop	{r4, r5, r6, r7, pc}
 8002bc4:	20000776 	.word	0x20000776
 8002bc8:	2000002c 	.word	0x2000002c

08002bcc <uart_send_byte>:
 8002bcc:	b507      	push	{r0, r1, r2, lr}
 8002bce:	2364      	movs	r3, #100	@ 0x64
 8002bd0:	f88d 0007 	strb.w	r0, [sp, #7]
 8002bd4:	2201      	movs	r2, #1
 8002bd6:	f10d 0107 	add.w	r1, sp, #7
 8002bda:	4804      	ldr	r0, [pc, #16]	@ (8002bec <uart_send_byte+0x20>)
 8002bdc:	f005 feb7 	bl	800894e <HAL_UART_Transmit>
 8002be0:	fab0 f080 	clz	r0, r0
 8002be4:	0940      	lsrs	r0, r0, #5
 8002be6:	b003      	add	sp, #12
 8002be8:	f85d fb04 	ldr.w	pc, [sp], #4
 8002bec:	20000b54 	.word	0x20000b54

08002bf0 <esp01_chpd>:
 8002bf0:	1e02      	subs	r2, r0, #0
 8002bf2:	bf18      	it	ne
 8002bf4:	2201      	movne	r2, #1
 8002bf6:	4802      	ldr	r0, [pc, #8]	@ (8002c00 <esp01_chpd+0x10>)
 8002bf8:	2104      	movs	r1, #4
 8002bfa:	f002 bc67 	b.w	80054cc <HAL_GPIO_WritePin>
 8002bfe:	bf00      	nop
 8002c00:	40020400 	.word	0x40020400

08002c04 <appOnESP01ChangeState>:
 8002c04:	2805      	cmp	r0, #5
 8002c06:	d107      	bne.n	8002c18 <appOnESP01ChangeState+0x14>
 8002c08:	4b04      	ldr	r3, [pc, #16]	@ (8002c1c <appOnESP01ChangeState+0x18>)
 8002c0a:	f247 5230 	movw	r2, #30000	@ 0x7530
 8002c0e:	6818      	ldr	r0, [r3, #0]
 8002c10:	f247 513a 	movw	r1, #30010	@ 0x753a
 8002c14:	f7fe b860 	b.w	8000cd8 <ESP01_StartUDP>
 8002c18:	4770      	bx	lr
 8002c1a:	bf00      	nop
 8002c1c:	20000050 	.word	0x20000050

08002c20 <mpu_delayMs>:
 8002c20:	4608      	mov	r0, r1
 8002c22:	f001 be85 	b.w	8004930 <HAL_Delay>
	...

08002c28 <HAL_TIM_PeriodElapsedCallback>:
 8002c28:	6803      	ldr	r3, [r0, #0]
 8002c2a:	4a08      	ldr	r2, [pc, #32]	@ (8002c4c <HAL_TIM_PeriodElapsedCallback+0x24>)
 8002c2c:	4293      	cmp	r3, r2
 8002c2e:	d103      	bne.n	8002c38 <HAL_TIM_PeriodElapsedCallback+0x10>
 8002c30:	4b07      	ldr	r3, [pc, #28]	@ (8002c50 <HAL_TIM_PeriodElapsedCallback+0x28>)
 8002c32:	2201      	movs	r2, #1
 8002c34:	701a      	strb	r2, [r3, #0]
 8002c36:	4770      	bx	lr
 8002c38:	f1b3 4f80 	cmp.w	r3, #1073741824	@ 0x40000000
 8002c3c:	d101      	bne.n	8002c42 <HAL_TIM_PeriodElapsedCallback+0x1a>
 8002c3e:	4b05      	ldr	r3, [pc, #20]	@ (8002c54 <HAL_TIM_PeriodElapsedCallback+0x2c>)
 8002c40:	e7f7      	b.n	8002c32 <HAL_TIM_PeriodElapsedCallback+0xa>
 8002c42:	4a05      	ldr	r2, [pc, #20]	@ (8002c58 <HAL_TIM_PeriodElapsedCallback+0x30>)
 8002c44:	4293      	cmp	r3, r2
 8002c46:	d1f6      	bne.n	8002c36 <HAL_TIM_PeriodElapsedCallback+0xe>
 8002c48:	4b04      	ldr	r3, [pc, #16]	@ (8002c5c <HAL_TIM_PeriodElapsedCallback+0x34>)
 8002c4a:	e7f2      	b.n	8002c32 <HAL_TIM_PeriodElapsedCallback+0xa>
 8002c4c:	40010000 	.word	0x40010000
 8002c50:	20000b4e 	.word	0x20000b4e
 8002c54:	20000b50 	.word	0x20000b50
 8002c58:	40000c00 	.word	0x40000c00
 8002c5c:	20000b4d 	.word	0x20000b4d

08002c60 <HAL_I2C_MemRxCpltCallback>:
 8002c60:	6802      	ldr	r2, [r0, #0]
 8002c62:	4b04      	ldr	r3, [pc, #16]	@ (8002c74 <HAL_I2C_MemRxCpltCallback+0x14>)
 8002c64:	429a      	cmp	r2, r3
 8002c66:	d104      	bne.n	8002c72 <HAL_I2C_MemRxCpltCallback+0x12>
 8002c68:	4b03      	ldr	r3, [pc, #12]	@ (8002c78 <HAL_I2C_MemRxCpltCallback+0x18>)
 8002c6a:	2200      	movs	r2, #0
 8002c6c:	701a      	strb	r2, [r3, #0]
 8002c6e:	f7ff b867 	b.w	8001d40 <MPU6050_ProcessDMA>
 8002c72:	4770      	bx	lr
 8002c74:	40005400 	.word	0x40005400
 8002c78:	20000776 	.word	0x20000776

08002c7c <HAL_I2C_MasterTxCpltCallback>:
 8002c7c:	6802      	ldr	r2, [r0, #0]
 8002c7e:	4b03      	ldr	r3, [pc, #12]	@ (8002c8c <HAL_I2C_MasterTxCpltCallback+0x10>)
 8002c80:	429a      	cmp	r2, r3
 8002c82:	bf02      	ittt	eq
 8002c84:	4b02      	ldreq	r3, [pc, #8]	@ (8002c90 <HAL_I2C_MasterTxCpltCallback+0x14>)
 8002c86:	2200      	moveq	r2, #0
 8002c88:	701a      	strbeq	r2, [r3, #0]
 8002c8a:	4770      	bx	lr
 8002c8c:	40005400 	.word	0x40005400
 8002c90:	20000776 	.word	0x20000776

08002c94 <HAL_I2C_ErrorCallback>:
 8002c94:	f7ff bff2 	b.w	8002c7c <HAL_I2C_MasterTxCpltCallback>

08002c98 <HAL_UART_RxCpltCallback>:
 8002c98:	6802      	ldr	r2, [r0, #0]
 8002c9a:	4b08      	ldr	r3, [pc, #32]	@ (8002cbc <HAL_UART_RxCpltCallback+0x24>)
 8002c9c:	429a      	cmp	r2, r3
 8002c9e:	b510      	push	{r4, lr}
 8002ca0:	d10a      	bne.n	8002cb8 <HAL_UART_RxCpltCallback+0x20>
 8002ca2:	4c07      	ldr	r4, [pc, #28]	@ (8002cc0 <HAL_UART_RxCpltCallback+0x28>)
 8002ca4:	7820      	ldrb	r0, [r4, #0]
 8002ca6:	f7fe f90d 	bl	8000ec4 <ESP01_WriteRX>
 8002caa:	4621      	mov	r1, r4
 8002cac:	4805      	ldr	r0, [pc, #20]	@ (8002cc4 <HAL_UART_RxCpltCallback+0x2c>)
 8002cae:	e8bd 4010 	ldmia.w	sp!, {r4, lr}
 8002cb2:	2201      	movs	r2, #1
 8002cb4:	f006 b867 	b.w	8008d86 <HAL_UART_Receive_IT>
 8002cb8:	bd10      	pop	{r4, pc}
 8002cba:	bf00      	nop
 8002cbc:	40011000 	.word	0x40011000
 8002cc0:	20000774 	.word	0x20000774
 8002cc4:	20000b54 	.word	0x20000b54

08002cc8 <usb_service_tx>:
 8002cc8:	b5f0      	push	{r4, r5, r6, r7, lr}
 8002cca:	4c1b      	ldr	r4, [pc, #108]	@ (8002d38 <usb_service_tx+0x70>)
 8002ccc:	7823      	ldrb	r3, [r4, #0]
 8002cce:	b091      	sub	sp, #68	@ 0x44
 8002cd0:	b133      	cbz	r3, 8002ce0 <usb_service_tx+0x18>
 8002cd2:	4b1a      	ldr	r3, [pc, #104]	@ (8002d3c <usb_service_tx+0x74>)
 8002cd4:	f8d3 32bc 	ldr.w	r3, [r3, #700]	@ 0x2bc
 8002cd8:	f8d3 3214 	ldr.w	r3, [r3, #532]	@ 0x214
 8002cdc:	b903      	cbnz	r3, 8002ce0 <usb_service_tx+0x18>
 8002cde:	7023      	strb	r3, [r4, #0]
 8002ce0:	7823      	ldrb	r3, [r4, #0]
 8002ce2:	f003 01ff 	and.w	r1, r3, #255	@ 0xff
 8002ce6:	b99b      	cbnz	r3, 8002d10 <usb_service_tx+0x48>
 8002ce8:	4f15      	ldr	r7, [pc, #84]	@ (8002d40 <usb_service_tx+0x78>)
 8002cea:	4b16      	ldr	r3, [pc, #88]	@ (8002d44 <usb_service_tx+0x7c>)
 8002cec:	8838      	ldrh	r0, [r7, #0]
 8002cee:	881a      	ldrh	r2, [r3, #0]
 8002cf0:	b280      	uxth	r0, r0
 8002cf2:	b292      	uxth	r2, r2
 8002cf4:	4290      	cmp	r0, r2
 8002cf6:	d00b      	beq.n	8002d10 <usb_service_tx+0x48>
 8002cf8:	466e      	mov	r6, sp
 8002cfa:	f8df c04c 	ldr.w	ip, [pc, #76]	@ 8002d48 <usb_service_tx+0x80>
 8002cfe:	4630      	mov	r0, r6
 8002d00:	881d      	ldrh	r5, [r3, #0]
 8002d02:	883a      	ldrh	r2, [r7, #0]
 8002d04:	b2ad      	uxth	r5, r5
 8002d06:	b292      	uxth	r2, r2
 8002d08:	4295      	cmp	r5, r2
 8002d0a:	d103      	bne.n	8002d14 <usb_service_tx+0x4c>
 8002d0c:	b289      	uxth	r1, r1
 8002d0e:	b971      	cbnz	r1, 8002d2e <usb_service_tx+0x66>
 8002d10:	b011      	add	sp, #68	@ 0x44
 8002d12:	bdf0      	pop	{r4, r5, r6, r7, pc}
 8002d14:	881a      	ldrh	r2, [r3, #0]
 8002d16:	b292      	uxth	r2, r2
 8002d18:	3101      	adds	r1, #1
 8002d1a:	f81c 2002 	ldrb.w	r2, [ip, r2]
 8002d1e:	f806 2b01 	strb.w	r2, [r6], #1
 8002d22:	881a      	ldrh	r2, [r3, #0]
 8002d24:	3201      	adds	r2, #1
 8002d26:	b2d2      	uxtb	r2, r2
 8002d28:	2940      	cmp	r1, #64	@ 0x40
 8002d2a:	801a      	strh	r2, [r3, #0]
 8002d2c:	d1e8      	bne.n	8002d00 <usb_service_tx+0x38>
 8002d2e:	2301      	movs	r3, #1
 8002d30:	7023      	strb	r3, [r4, #0]
 8002d32:	f007 fc47 	bl	800a5c4 <CDC_Transmit_FS>
 8002d36:	e7eb      	b.n	8002d10 <usb_service_tx+0x48>
 8002d38:	20000a47 	.word	0x20000a47
 8002d3c:	200012dc 	.word	0x200012dc
 8002d40:	20000a4a 	.word	0x20000a4a
 8002d44:	20000a48 	.word	0x20000a48
 8002d48:	20000a4c 	.word	0x20000a4c

08002d4c <usb_enqueue_tx>:
 8002d4c:	b5f8      	push	{r3, r4, r5, r6, r7, lr}
 8002d4e:	4a0e      	ldr	r2, [pc, #56]	@ (8002d88 <usb_enqueue_tx+0x3c>)
 8002d50:	4d0e      	ldr	r5, [pc, #56]	@ (8002d8c <usb_enqueue_tx+0x40>)
 8002d52:	4e0f      	ldr	r6, [pc, #60]	@ (8002d90 <usb_enqueue_tx+0x44>)
 8002d54:	4401      	add	r1, r0
 8002d56:	4288      	cmp	r0, r1
 8002d58:	d106      	bne.n	8002d68 <usb_enqueue_tx+0x1c>
 8002d5a:	4b0e      	ldr	r3, [pc, #56]	@ (8002d94 <usb_enqueue_tx+0x48>)
 8002d5c:	781b      	ldrb	r3, [r3, #0]
 8002d5e:	b90b      	cbnz	r3, 8002d64 <usb_enqueue_tx+0x18>
 8002d60:	f7ff ffb2 	bl	8002cc8 <usb_service_tx>
 8002d64:	2001      	movs	r0, #1
 8002d66:	bdf8      	pop	{r3, r4, r5, r6, r7, pc}
 8002d68:	8813      	ldrh	r3, [r2, #0]
 8002d6a:	882c      	ldrh	r4, [r5, #0]
 8002d6c:	3301      	adds	r3, #1
 8002d6e:	b2db      	uxtb	r3, r3
 8002d70:	b2a4      	uxth	r4, r4
 8002d72:	429c      	cmp	r4, r3
 8002d74:	d006      	beq.n	8002d84 <usb_enqueue_tx+0x38>
 8002d76:	8814      	ldrh	r4, [r2, #0]
 8002d78:	f810 7b01 	ldrb.w	r7, [r0], #1
 8002d7c:	8013      	strh	r3, [r2, #0]
 8002d7e:	b2a4      	uxth	r4, r4
 8002d80:	5537      	strb	r7, [r6, r4]
 8002d82:	e7e8      	b.n	8002d56 <usb_enqueue_tx+0xa>
 8002d84:	2000      	movs	r0, #0
 8002d86:	e7ee      	b.n	8002d66 <usb_enqueue_tx+0x1a>
 8002d88:	20000a4a 	.word	0x20000a4a
 8002d8c:	20000a48 	.word	0x20000a48
 8002d90:	20000a4c 	.word	0x20000a4c
 8002d94:	20000a47 	.word	0x20000a47

08002d98 <USB_DebugSend>:
 8002d98:	b570      	push	{r4, r5, r6, lr}
 8002d9a:	4605      	mov	r5, r0
 8002d9c:	460c      	mov	r4, r1
 8002d9e:	b904      	cbnz	r4, 8002da2 <USB_DebugSend+0xa>
 8002da0:	bd70      	pop	{r4, r5, r6, pc}
 8002da2:	2c40      	cmp	r4, #64	@ 0x40
 8002da4:	4626      	mov	r6, r4
 8002da6:	bf28      	it	cs
 8002da8:	2640      	movcs	r6, #64	@ 0x40
 8002daa:	4628      	mov	r0, r5
 8002dac:	4631      	mov	r1, r6
 8002dae:	1ba4      	subs	r4, r4, r6
 8002db0:	f7ff ffcc 	bl	8002d4c <usb_enqueue_tx>
 8002db4:	4435      	add	r5, r6
 8002db6:	b2a4      	uxth	r4, r4
 8002db8:	e7f1      	b.n	8002d9e <USB_DebugSend+0x6>

08002dba <USB_DebugStr>:
 8002dba:	b510      	push	{r4, lr}
 8002dbc:	4604      	mov	r4, r0
 8002dbe:	f7fd fa19 	bl	80001f4 <strlen>
 8002dc2:	b281      	uxth	r1, r0
 8002dc4:	4620      	mov	r0, r4
 8002dc6:	e8bd 4010 	ldmia.w	sp!, {r4, lr}
 8002dca:	f7ff bfe5 	b.w	8002d98 <USB_DebugSend>
	...

08002dd0 <USB_DebugHex>:
 8002dd0:	b507      	push	{r0, r1, r2, lr}
 8002dd2:	4b08      	ldr	r3, [pc, #32]	@ (8002df4 <USB_DebugHex+0x24>)
 8002dd4:	0902      	lsrs	r2, r0, #4
 8002dd6:	f000 000f 	and.w	r0, r0, #15
 8002dda:	5c9a      	ldrb	r2, [r3, r2]
 8002ddc:	5c1b      	ldrb	r3, [r3, r0]
 8002dde:	f88d 2004 	strb.w	r2, [sp, #4]
 8002de2:	2102      	movs	r1, #2
 8002de4:	a801      	add	r0, sp, #4
 8002de6:	f88d 3005 	strb.w	r3, [sp, #5]
 8002dea:	f7ff ffd5 	bl	8002d98 <USB_DebugSend>
 8002dee:	b003      	add	sp, #12
 8002df0:	f85d fb04 	ldr.w	pc, [sp], #4
 8002df4:	0800ca8c 	.word	0x0800ca8c

08002df8 <USB_DebugUInt>:
 8002df8:	b57f      	push	{r0, r1, r2, r3, r4, r5, r6, lr}
 8002dfa:	b930      	cbnz	r0, 8002e0a <USB_DebugUInt+0x12>
 8002dfc:	4810      	ldr	r0, [pc, #64]	@ (8002e40 <USB_DebugUInt+0x48>)
 8002dfe:	2101      	movs	r1, #1
 8002e00:	b004      	add	sp, #16
 8002e02:	e8bd 4070 	ldmia.w	sp!, {r4, r5, r6, lr}
 8002e06:	f7ff bfc7 	b.w	8002d98 <USB_DebugSend>
 8002e0a:	a901      	add	r1, sp, #4
 8002e0c:	2600      	movs	r6, #0
 8002e0e:	250a      	movs	r5, #10
 8002e10:	fbb0 f2f5 	udiv	r2, r0, r5
 8002e14:	fb05 0312 	mls	r3, r5, r2, r0
 8002e18:	3330      	adds	r3, #48	@ 0x30
 8002e1a:	f801 3b01 	strb.w	r3, [r1], #1
 8002e1e:	4603      	mov	r3, r0
 8002e20:	2b09      	cmp	r3, #9
 8002e22:	4634      	mov	r4, r6
 8002e24:	4610      	mov	r0, r2
 8002e26:	f106 0601 	add.w	r6, r6, #1
 8002e2a:	d8f1      	bhi.n	8002e10 <USB_DebugUInt+0x18>
 8002e2c:	ab01      	add	r3, sp, #4
 8002e2e:	1918      	adds	r0, r3, r4
 8002e30:	2101      	movs	r1, #1
 8002e32:	f7ff ffb1 	bl	8002d98 <USB_DebugSend>
 8002e36:	3c01      	subs	r4, #1
 8002e38:	d2f8      	bcs.n	8002e2c <USB_DebugUInt+0x34>
 8002e3a:	b004      	add	sp, #16
 8002e3c:	bd70      	pop	{r4, r5, r6, pc}
 8002e3e:	bf00      	nop
 8002e40:	0800bb6c 	.word	0x0800bb6c

08002e44 <USB_Debug>:
 8002e44:	b40f      	push	{r0, r1, r2, r3}
 8002e46:	b537      	push	{r0, r1, r2, r4, r5, lr}
 8002e48:	ab06      	add	r3, sp, #24
 8002e4a:	f853 4b04 	ldr.w	r4, [r3], #4
 8002e4e:	9301      	str	r3, [sp, #4]
 8002e50:	7823      	ldrb	r3, [r4, #0]
 8002e52:	b923      	cbnz	r3, 8002e5e <USB_Debug+0x1a>
 8002e54:	b003      	add	sp, #12
 8002e56:	e8bd 4030 	ldmia.w	sp!, {r4, r5, lr}
 8002e5a:	b004      	add	sp, #16
 8002e5c:	4770      	bx	lr
 8002e5e:	2b25      	cmp	r3, #37	@ 0x25
 8002e60:	d137      	bne.n	8002ed2 <USB_Debug+0x8e>
 8002e62:	7863      	ldrb	r3, [r4, #1]
 8002e64:	2b63      	cmp	r3, #99	@ 0x63
 8002e66:	f104 0501 	add.w	r5, r4, #1
 8002e6a:	d01c      	beq.n	8002ea6 <USB_Debug+0x62>
 8002e6c:	d806      	bhi.n	8002e7c <USB_Debug+0x38>
 8002e6e:	2b25      	cmp	r3, #37	@ 0x25
 8002e70:	d02c      	beq.n	8002ecc <USB_Debug+0x88>
 8002e72:	2b58      	cmp	r3, #88	@ 0x58
 8002e74:	d023      	beq.n	8002ebe <USB_Debug+0x7a>
 8002e76:	2101      	movs	r1, #1
 8002e78:	4628      	mov	r0, r5
 8002e7a:	e01d      	b.n	8002eb8 <USB_Debug+0x74>
 8002e7c:	2b73      	cmp	r3, #115	@ 0x73
 8002e7e:	d00a      	beq.n	8002e96 <USB_Debug+0x52>
 8002e80:	2b75      	cmp	r3, #117	@ 0x75
 8002e82:	d001      	beq.n	8002e88 <USB_Debug+0x44>
 8002e84:	2b64      	cmp	r3, #100	@ 0x64
 8002e86:	d1f6      	bne.n	8002e76 <USB_Debug+0x32>
 8002e88:	9b01      	ldr	r3, [sp, #4]
 8002e8a:	1d1a      	adds	r2, r3, #4
 8002e8c:	6818      	ldr	r0, [r3, #0]
 8002e8e:	9201      	str	r2, [sp, #4]
 8002e90:	f7ff ffb2 	bl	8002df8 <USB_DebugUInt>
 8002e94:	e005      	b.n	8002ea2 <USB_Debug+0x5e>
 8002e96:	9b01      	ldr	r3, [sp, #4]
 8002e98:	1d1a      	adds	r2, r3, #4
 8002e9a:	6818      	ldr	r0, [r3, #0]
 8002e9c:	9201      	str	r2, [sp, #4]
 8002e9e:	f7ff ff8c 	bl	8002dba <USB_DebugStr>
 8002ea2:	1c6c      	adds	r4, r5, #1
 8002ea4:	e7d4      	b.n	8002e50 <USB_Debug+0xc>
 8002ea6:	9b01      	ldr	r3, [sp, #4]
 8002ea8:	1d1a      	adds	r2, r3, #4
 8002eaa:	681b      	ldr	r3, [r3, #0]
 8002eac:	9201      	str	r2, [sp, #4]
 8002eae:	f88d 3003 	strb.w	r3, [sp, #3]
 8002eb2:	2101      	movs	r1, #1
 8002eb4:	f10d 0003 	add.w	r0, sp, #3
 8002eb8:	f7ff ff6e 	bl	8002d98 <USB_DebugSend>
 8002ebc:	e7f1      	b.n	8002ea2 <USB_Debug+0x5e>
 8002ebe:	9b01      	ldr	r3, [sp, #4]
 8002ec0:	1d1a      	adds	r2, r3, #4
 8002ec2:	7818      	ldrb	r0, [r3, #0]
 8002ec4:	9201      	str	r2, [sp, #4]
 8002ec6:	f7ff ff83 	bl	8002dd0 <USB_DebugHex>
 8002eca:	e7ea      	b.n	8002ea2 <USB_Debug+0x5e>
 8002ecc:	4804      	ldr	r0, [pc, #16]	@ (8002ee0 <USB_Debug+0x9c>)
 8002ece:	2101      	movs	r1, #1
 8002ed0:	e7f2      	b.n	8002eb8 <USB_Debug+0x74>
 8002ed2:	2101      	movs	r1, #1
 8002ed4:	4620      	mov	r0, r4
 8002ed6:	f7ff ff5f 	bl	8002d98 <USB_DebugSend>
 8002eda:	4625      	mov	r5, r4
 8002edc:	e7e1      	b.n	8002ea2 <USB_Debug+0x5e>
 8002ede:	bf00      	nop
 8002ee0:	0800bb6e 	.word	0x0800bb6e

08002ee4 <my_ssd1306_errorCb>:
 8002ee4:	b510      	push	{r4, lr}
 8002ee6:	4808      	ldr	r0, [pc, #32]	@ (8002f08 <my_ssd1306_errorCb+0x24>)
 8002ee8:	460c      	mov	r4, r1
 8002eea:	f7ff ffab 	bl	8002e44 <USB_Debug>
 8002eee:	b2e0      	uxtb	r0, r4
 8002ef0:	f7ff ff6e 	bl	8002dd0 <USB_DebugHex>
 8002ef4:	4805      	ldr	r0, [pc, #20]	@ (8002f0c <my_ssd1306_errorCb+0x28>)
 8002ef6:	f7ff ffa5 	bl	8002e44 <USB_Debug>
 8002efa:	4b05      	ldr	r3, [pc, #20]	@ (8002f10 <my_ssd1306_errorCb+0x2c>)
 8002efc:	2200      	movs	r2, #0
 8002efe:	701a      	strb	r2, [r3, #0]
 8002f00:	e8bd 4010 	ldmia.w	sp!, {r4, lr}
 8002f04:	f001 b9aa 	b.w	800425c <SSD1306_ResetUpdateState>
 8002f08:	0800bb70 	.word	0x0800bb70
 8002f0c:	0800bac4 	.word	0x0800bac4
 8002f10:	20000776 	.word	0x20000776

08002f14 <my_ssd1306_write_cmd>:
 8002f14:	b530      	push	{r4, r5, lr}
 8002f16:	b085      	sub	sp, #20
 8002f18:	2300      	movs	r3, #0
 8002f1a:	f04f 35ff 	mov.w	r5, #4294967295
 8002f1e:	f88d 300c 	strb.w	r3, [sp, #12]
 8002f22:	f88d 100d 	strb.w	r1, [sp, #13]
 8002f26:	4604      	mov	r4, r0
 8002f28:	2178      	movs	r1, #120	@ 0x78
 8002f2a:	4807      	ldr	r0, [pc, #28]	@ (8002f48 <my_ssd1306_write_cmd+0x34>)
 8002f2c:	9500      	str	r5, [sp, #0]
 8002f2e:	2302      	movs	r3, #2
 8002f30:	aa03      	add	r2, sp, #12
 8002f32:	f002 fd81 	bl	8005a38 <HAL_I2C_Master_Transmit>
 8002f36:	4601      	mov	r1, r0
 8002f38:	b118      	cbz	r0, 8002f42 <my_ssd1306_write_cmd+0x2e>
 8002f3a:	4620      	mov	r0, r4
 8002f3c:	f7ff ffd2 	bl	8002ee4 <my_ssd1306_errorCb>
 8002f40:	4628      	mov	r0, r5
 8002f42:	b005      	add	sp, #20
 8002f44:	bd30      	pop	{r4, r5, pc}
 8002f46:	bf00      	nop
 8002f48:	20000dc4 	.word	0x20000dc4

08002f4c <my_ssd1306_write_data>:
 8002f4c:	b530      	push	{r4, r5, lr}
 8002f4e:	b0a5      	sub	sp, #148	@ 0x94
 8002f50:	4614      	mov	r4, r2
 8002f52:	2340      	movs	r3, #64	@ 0x40
 8002f54:	4605      	mov	r5, r0
 8002f56:	f10d 000d 	add.w	r0, sp, #13
 8002f5a:	f88d 300c 	strb.w	r3, [sp, #12]
 8002f5e:	f007 fdeb 	bl	800ab38 <memcpy>
 8002f62:	1c63      	adds	r3, r4, #1
 8002f64:	f04f 34ff 	mov.w	r4, #4294967295
 8002f68:	9400      	str	r4, [sp, #0]
 8002f6a:	2178      	movs	r1, #120	@ 0x78
 8002f6c:	6828      	ldr	r0, [r5, #0]
 8002f6e:	b29b      	uxth	r3, r3
 8002f70:	aa03      	add	r2, sp, #12
 8002f72:	f002 fd61 	bl	8005a38 <HAL_I2C_Master_Transmit>
 8002f76:	4601      	mov	r1, r0
 8002f78:	b118      	cbz	r0, 8002f82 <my_ssd1306_write_data+0x36>
 8002f7a:	4628      	mov	r0, r5
 8002f7c:	f7ff ffb2 	bl	8002ee4 <my_ssd1306_errorCb>
 8002f80:	4620      	mov	r0, r4
 8002f82:	b025      	add	sp, #148	@ 0x94
 8002f84:	bd30      	pop	{r4, r5, pc}
	...

08002f88 <my_ssd1306_write_data_async>:
 8002f88:	b5f8      	push	{r3, r4, r5, r6, r7, lr}
 8002f8a:	6843      	ldr	r3, [r0, #4]
 8002f8c:	781e      	ldrb	r6, [r3, #0]
 8002f8e:	4604      	mov	r4, r0
 8002f90:	4615      	mov	r5, r2
 8002f92:	b136      	cbz	r6, 8002fa2 <my_ssd1306_write_data_async+0x1a>
 8002f94:	f04f 31ff 	mov.w	r1, #4294967295
 8002f98:	f7ff ffa4 	bl	8002ee4 <my_ssd1306_errorCb>
 8002f9c:	f04f 30ff 	mov.w	r0, #4294967295
 8002fa0:	bdf8      	pop	{r3, r4, r5, r6, r7, pc}
 8002fa2:	4f0c      	ldr	r7, [pc, #48]	@ (8002fd4 <my_ssd1306_write_data_async+0x4c>)
 8002fa4:	4638      	mov	r0, r7
 8002fa6:	2340      	movs	r3, #64	@ 0x40
 8002fa8:	f800 3b01 	strb.w	r3, [r0], #1
 8002fac:	f007 fdc4 	bl	800ab38 <memcpy>
 8002fb0:	6863      	ldr	r3, [r4, #4]
 8002fb2:	2201      	movs	r2, #1
 8002fb4:	701a      	strb	r2, [r3, #0]
 8002fb6:	18ab      	adds	r3, r5, r2
 8002fb8:	2178      	movs	r1, #120	@ 0x78
 8002fba:	6820      	ldr	r0, [r4, #0]
 8002fbc:	b29b      	uxth	r3, r3
 8002fbe:	463a      	mov	r2, r7
 8002fc0:	f002 fe14 	bl	8005bec <HAL_I2C_Master_Transmit_DMA>
 8002fc4:	4601      	mov	r1, r0
 8002fc6:	2800      	cmp	r0, #0
 8002fc8:	d0ea      	beq.n	8002fa0 <my_ssd1306_write_data_async+0x18>
 8002fca:	6863      	ldr	r3, [r4, #4]
 8002fcc:	4620      	mov	r0, r4
 8002fce:	701e      	strb	r6, [r3, #0]
 8002fd0:	e7e2      	b.n	8002f98 <my_ssd1306_write_data_async+0x10>
 8002fd2:	bf00      	nop
 8002fd4:	20000443 	.word	0x20000443

08002fd8 <mpu_errorCb>:
 8002fd8:	4a05      	ldr	r2, [pc, #20]	@ (8002ff0 <mpu_errorCb+0x18>)
 8002fda:	7813      	ldrb	r3, [r2, #0]
 8002fdc:	b933      	cbnz	r3, 8002fec <mpu_errorCb+0x14>
 8002fde:	2001      	movs	r0, #1
 8002fe0:	7010      	strb	r0, [r2, #0]
 8002fe2:	4a04      	ldr	r2, [pc, #16]	@ (8002ff4 <mpu_errorCb+0x1c>)
 8002fe4:	4804      	ldr	r0, [pc, #16]	@ (8002ff8 <mpu_errorCb+0x20>)
 8002fe6:	7013      	strb	r3, [r2, #0]
 8002fe8:	f7ff bf2c 	b.w	8002e44 <USB_Debug>
 8002fec:	4770      	bx	lr
 8002fee:	bf00      	nop
 8002ff0:	20000442 	.word	0x20000442
 8002ff4:	20000a44 	.word	0x20000a44
 8002ff8:	0800bb82 	.word	0x0800bb82

08002ffc <PWM_init>:
 8002ffc:	b538      	push	{r3, r4, r5, lr}
 8002ffe:	4d10      	ldr	r5, [pc, #64]	@ (8003040 <PWM_init+0x44>)
 8003000:	4c10      	ldr	r4, [pc, #64]	@ (8003044 <PWM_init+0x48>)
 8003002:	4628      	mov	r0, r5
 8003004:	f005 f860 	bl	80080c8 <HAL_TIM_Base_Start>
 8003008:	4620      	mov	r0, r4
 800300a:	f005 f85d 	bl	80080c8 <HAL_TIM_Base_Start>
 800300e:	2100      	movs	r1, #0
 8003010:	4628      	mov	r0, r5
 8003012:	f005 fb75 	bl	8008700 <HAL_TIM_PWM_Start>
 8003016:	2104      	movs	r1, #4
 8003018:	4628      	mov	r0, r5
 800301a:	f005 fb71 	bl	8008700 <HAL_TIM_PWM_Start>
 800301e:	2100      	movs	r1, #0
 8003020:	4620      	mov	r0, r4
 8003022:	f005 fb6d 	bl	8008700 <HAL_TIM_PWM_Start>
 8003026:	2104      	movs	r1, #4
 8003028:	4620      	mov	r0, r4
 800302a:	f005 fb69 	bl	8008700 <HAL_TIM_PWM_Start>
 800302e:	682a      	ldr	r2, [r5, #0]
 8003030:	2300      	movs	r3, #0
 8003032:	6353      	str	r3, [r2, #52]	@ 0x34
 8003034:	6393      	str	r3, [r2, #56]	@ 0x38
 8003036:	6822      	ldr	r2, [r4, #0]
 8003038:	6353      	str	r3, [r2, #52]	@ 0x34
 800303a:	6393      	str	r3, [r2, #56]	@ 0x38
 800303c:	bd38      	pop	{r3, r4, r5, pc}
 800303e:	bf00      	nop
 8003040:	20000c2c 	.word	0x20000c2c
 8003044:	20000be4 	.word	0x20000be4

08003048 <MotorControl>:
 8003048:	f06f 0363 	mvn.w	r3, #99	@ 0x63
 800304c:	4298      	cmp	r0, r3
 800304e:	4602      	mov	r2, r0
 8003050:	bfb8      	it	lt
 8003052:	461a      	movlt	r2, r3
 8003054:	b5f0      	push	{r4, r5, r6, r7, lr}
 8003056:	2a64      	cmp	r2, #100	@ 0x64
 8003058:	4c17      	ldr	r4, [pc, #92]	@ (80030b8 <MotorControl+0x70>)
 800305a:	bfa8      	it	ge
 800305c:	2264      	movge	r2, #100	@ 0x64
 800305e:	428b      	cmp	r3, r1
 8003060:	6825      	ldr	r5, [r4, #0]
 8003062:	4c16      	ldr	r4, [pc, #88]	@ (80030bc <MotorControl+0x74>)
 8003064:	6aee      	ldr	r6, [r5, #44]	@ 0x2c
 8003066:	6824      	ldr	r4, [r4, #0]
 8003068:	bfb8      	it	lt
 800306a:	460b      	movlt	r3, r1
 800306c:	2b64      	cmp	r3, #100	@ 0x64
 800306e:	bfa8      	it	ge
 8003070:	2364      	movge	r3, #100	@ 0x64
 8003072:	2800      	cmp	r0, #0
 8003074:	bfb8      	it	lt
 8003076:	4252      	neglt	r2, r2
 8003078:	2900      	cmp	r1, #0
 800307a:	6ae7      	ldr	r7, [r4, #44]	@ 0x2c
 800307c:	bfb8      	it	lt
 800307e:	425b      	neglt	r3, r3
 8003080:	2800      	cmp	r0, #0
 8003082:	f04f 0000 	mov.w	r0, #0
 8003086:	bfb8      	it	lt
 8003088:	6368      	strlt	r0, [r5, #52]	@ 0x34
 800308a:	fb06 f202 	mul.w	r2, r6, r2
 800308e:	f04f 0664 	mov.w	r6, #100	@ 0x64
 8003092:	fbb2 f2f6 	udiv	r2, r2, r6
 8003096:	bfaa      	itet	ge
 8003098:	636a      	strge	r2, [r5, #52]	@ 0x34
 800309a:	63aa      	strlt	r2, [r5, #56]	@ 0x38
 800309c:	63a8      	strge	r0, [r5, #56]	@ 0x38
 800309e:	2200      	movs	r2, #0
 80030a0:	2900      	cmp	r1, #0
 80030a2:	fb07 f303 	mul.w	r3, r7, r3
 80030a6:	bfa8      	it	ge
 80030a8:	6362      	strge	r2, [r4, #52]	@ 0x34
 80030aa:	fbb3 f3f6 	udiv	r3, r3, r6
 80030ae:	bfb6      	itet	lt
 80030b0:	6363      	strlt	r3, [r4, #52]	@ 0x34
 80030b2:	63a3      	strge	r3, [r4, #56]	@ 0x38
 80030b4:	63a2      	strlt	r2, [r4, #56]	@ 0x38
 80030b6:	bdf0      	pop	{r4, r5, r6, r7, pc}
 80030b8:	20000c2c 	.word	0x20000c2c
 80030bc:	20000be4 	.word	0x20000be4

080030c0 <UpdateADC_MovingAverage>:
 80030c0:	e92d 41f0 	stmdb	sp!, {r4, r5, r6, r7, r8, lr}
 80030c4:	4813      	ldr	r0, [pc, #76]	@ (8003114 <UpdateADC_MovingAverage+0x54>)
 80030c6:	4914      	ldr	r1, [pc, #80]	@ (8003118 <UpdateADC_MovingAverage+0x58>)
 80030c8:	7802      	ldrb	r2, [r0, #0]
 80030ca:	4e14      	ldr	r6, [pc, #80]	@ (800311c <UpdateADC_MovingAverage+0x5c>)
 80030cc:	f8df e054 	ldr.w	lr, [pc, #84]	@ 8003124 <UpdateADC_MovingAverage+0x64>
 80030d0:	4f13      	ldr	r7, [pc, #76]	@ (8003120 <UpdateADC_MovingAverage+0x60>)
 80030d2:	eb01 0142 	add.w	r1, r1, r2, lsl #1
 80030d6:	2500      	movs	r5, #0
 80030d8:	2428      	movs	r4, #40	@ 0x28
 80030da:	6833      	ldr	r3, [r6, #0]
 80030dc:	f83e cb02 	ldrh.w	ip, [lr], #2
 80030e0:	f8b1 8000 	ldrh.w	r8, [r1]
 80030e4:	f821 cb50 	strh.w	ip, [r1], #80
 80030e8:	4463      	add	r3, ip
 80030ea:	3528      	adds	r5, #40	@ 0x28
 80030ec:	eba3 0308 	sub.w	r3, r3, r8
 80030f0:	f5b5 7fa0 	cmp.w	r5, #320	@ 0x140
 80030f4:	f846 3b04 	str.w	r3, [r6], #4
 80030f8:	fbb3 f3f4 	udiv	r3, r3, r4
 80030fc:	f827 3b02 	strh.w	r3, [r7], #2
 8003100:	d1eb      	bne.n	80030da <UpdateADC_MovingAverage+0x1a>
 8003102:	1c53      	adds	r3, r2, #1
 8003104:	fbb3 f2f4 	udiv	r2, r3, r4
 8003108:	fb04 3312 	mls	r3, r4, r2, r3
 800310c:	7003      	strb	r3, [r0, #0]
 800310e:	e8bd 81f0 	ldmia.w	sp!, {r4, r5, r6, r7, r8, pc}
 8003112:	bf00      	nop
 8003114:	20000788 	.word	0x20000788
 8003118:	2000078a 	.word	0x2000078a
 800311c:	20000a0c 	.word	0x20000a0c
 8003120:	20000778 	.word	0x20000778
 8003124:	20000a2c 	.word	0x20000a2c

08003128 <updateDisplay>:
 8003128:	e92d 4ff0 	stmdb	sp!, {r4, r5, r6, r7, r8, r9, sl, fp, lr}
 800312c:	2000      	movs	r0, #0
 800312e:	b091      	sub	sp, #68	@ 0x44
 8003130:	f000 fe2e 	bl	8003d90 <SSD1306_Fill>
 8003134:	4d5a      	ldr	r5, [pc, #360]	@ (80032a0 <updateDisplay+0x178>)
 8003136:	f8df b170 	ldr.w	fp, [pc, #368]	@ 80032a8 <updateDisplay+0x180>
 800313a:	2240      	movs	r2, #64	@ 0x40
 800313c:	2301      	movs	r3, #1
 800313e:	9300      	str	r3, [sp, #0]
 8003140:	2100      	movs	r1, #0
 8003142:	233f      	movs	r3, #63	@ 0x3f
 8003144:	4610      	mov	r0, r2
 8003146:	f000 ffa5 	bl	8004094 <SSD1306_DrawLine>
 800314a:	cd0f      	ldmia	r5!, {r0, r1, r2, r3}
 800314c:	ac0a      	add	r4, sp, #40	@ 0x28
 800314e:	c40f      	stmia	r4!, {r0, r1, r2, r3}
 8003150:	e895 0003 	ldmia.w	r5, {r0, r1}
 8003154:	aa08      	add	r2, sp, #32
 8003156:	e884 0003 	stmia.w	r4, {r0, r1}
 800315a:	f10d 011e 	add.w	r1, sp, #30
 800315e:	a807      	add	r0, sp, #28
 8003160:	f7fe fdc2 	bl	8001ce8 <MPU6050_GetAccel>
 8003164:	f10d 0226 	add.w	r2, sp, #38	@ 0x26
 8003168:	a909      	add	r1, sp, #36	@ 0x24
 800316a:	f10d 0022 	add.w	r0, sp, #34	@ 0x22
 800316e:	f7fe fdd1 	bl	8001d14 <MPU6050_GetGyro>
 8003172:	4d4c      	ldr	r5, [pc, #304]	@ (80032a4 <updateDisplay+0x17c>)
 8003174:	f10d 0a28 	add.w	sl, sp, #40	@ 0x28
 8003178:	af07      	add	r7, sp, #28
 800317a:	2602      	movs	r6, #2
 800317c:	4631      	mov	r1, r6
 800317e:	2002      	movs	r0, #2
 8003180:	f000 ff24 	bl	8003fcc <SSD1306_GotoXY>
 8003184:	f85a 4b04 	ldr.w	r4, [sl], #4
 8003188:	4946      	ldr	r1, [pc, #280]	@ (80032a4 <updateDisplay+0x17c>)
 800318a:	2201      	movs	r2, #1
 800318c:	4620      	mov	r0, r4
 800318e:	f000 ff71 	bl	8004074 <SSD1306_Puts>
 8003192:	220a      	movs	r2, #10
 8003194:	a905      	add	r1, sp, #20
 8003196:	f937 0b02 	ldrsh.w	r0, [r7], #2
 800319a:	f007 fbf5 	bl	800a988 <itoa>
 800319e:	4620      	mov	r0, r4
 80031a0:	f7fd f828 	bl	80001f4 <strlen>
 80031a4:	782c      	ldrb	r4, [r5, #0]
 80031a6:	fb14 f400 	smulbb	r4, r4, r0
 80031aa:	3402      	adds	r4, #2
 80031ac:	f106 0903 	add.w	r9, r6, #3
 80031b0:	b2a4      	uxth	r4, r4
 80031b2:	f10d 0814 	add.w	r8, sp, #20
 80031b6:	fa1f f989 	uxth.w	r9, r9
 80031ba:	f818 0b01 	ldrb.w	r0, [r8], #1
 80031be:	2800      	cmp	r0, #0
 80031c0:	d153      	bne.n	800326a <updateDisplay+0x142>
 80031c2:	360a      	adds	r6, #10
 80031c4:	b2b6      	uxth	r6, r6
 80031c6:	2e3e      	cmp	r6, #62	@ 0x3e
 80031c8:	d1d8      	bne.n	800317c <updateDisplay+0x54>
 80031ca:	7828      	ldrb	r0, [r5, #0]
 80031cc:	4f36      	ldr	r7, [pc, #216]	@ (80032a8 <updateDisplay+0x180>)
 80031ce:	f8df 80e0 	ldr.w	r8, [pc, #224]	@ 80032b0 <updateDisplay+0x188>
 80031d2:	00c0      	lsls	r0, r0, #3
 80031d4:	f1c0 0040 	rsb	r0, r0, #64	@ 0x40
 80031d8:	1040      	asrs	r0, r0, #1
 80031da:	3040      	adds	r0, #64	@ 0x40
 80031dc:	b280      	uxth	r0, r0
 80031de:	2101      	movs	r1, #1
 80031e0:	f000 fef4 	bl	8003fcc <SSD1306_GotoXY>
 80031e4:	492f      	ldr	r1, [pc, #188]	@ (80032a4 <updateDisplay+0x17c>)
 80031e6:	4831      	ldr	r0, [pc, #196]	@ (80032ac <updateDisplay+0x184>)
 80031e8:	2201      	movs	r2, #1
 80031ea:	f000 ff43 	bl	8004074 <SSD1306_Puts>
 80031ee:	787e      	ldrb	r6, [r7, #1]
 80031f0:	786b      	ldrb	r3, [r5, #1]
 80031f2:	f1c6 0640 	rsb	r6, r6, #64	@ 0x40
 80031f6:	b2b6      	uxth	r6, r6
 80031f8:	1af4      	subs	r4, r6, r3
 80031fa:	3c02      	subs	r4, #2
 80031fc:	3303      	adds	r3, #3
 80031fe:	fa1f fb84 	uxth.w	fp, r4
 8003202:	2501      	movs	r5, #1
 8003204:	fa13 f484 	uxtah	r4, r3, r4
 8003208:	f44f 6a7a 	mov.w	sl, #4000	@ 0xfa0
 800320c:	46a9      	mov	r9, r5
 800320e:	b2a4      	uxth	r4, r4
 8003210:	f838 3b02 	ldrh.w	r3, [r8], #2
 8003214:	f8cd 9000 	str.w	r9, [sp]
 8003218:	f5b3 6f7a 	cmp.w	r3, #4000	@ 0xfa0
 800321c:	bf28      	it	cs
 800321e:	f44f 637a 	movcs.w	r3, #4000	@ 0xfa0
 8003222:	ebc5 00c5 	rsb	r0, r5, r5, lsl #3
 8003226:	fb0b f303 	mul.w	r3, fp, r3
 800322a:	fbb3 f3fa 	udiv	r3, r3, sl
 800322e:	b29b      	uxth	r3, r3
 8003230:	1af1      	subs	r1, r6, r3
 8003232:	303b      	adds	r0, #59	@ 0x3b
 8003234:	b280      	uxth	r0, r0
 8003236:	2205      	movs	r2, #5
 8003238:	b289      	uxth	r1, r1
 800323a:	9003      	str	r0, [sp, #12]
 800323c:	f000 ffc4 	bl	80041c8 <SSD1306_DrawFilledRectangle>
 8003240:	7839      	ldrb	r1, [r7, #0]
 8003242:	9803      	ldr	r0, [sp, #12]
 8003244:	f1c1 0105 	rsb	r1, r1, #5
 8003248:	eb01 71d1 	add.w	r1, r1, r1, lsr #31
 800324c:	eb00 0161 	add.w	r1, r0, r1, asr #1
 8003250:	4622      	mov	r2, r4
 8003252:	b2e8      	uxtb	r0, r5
 8003254:	b289      	uxth	r1, r1
 8003256:	3501      	adds	r5, #1
 8003258:	f001 f810 	bl	800427c <SSD1306_DrawDigit5x7>
 800325c:	2d09      	cmp	r5, #9
 800325e:	d1d7      	bne.n	8003210 <updateDisplay+0xe8>
 8003260:	b011      	add	sp, #68	@ 0x44
 8003262:	e8bd 4ff0 	ldmia.w	sp!, {r4, r5, r6, r7, r8, r9, sl, fp, lr}
 8003266:	f000 bfe1 	b.w	800422c <SSD1306_RequestUpdate>
 800326a:	282d      	cmp	r0, #45	@ 0x2d
 800326c:	d10b      	bne.n	8003286 <updateDisplay+0x15e>
 800326e:	1d22      	adds	r2, r4, #4
 8003270:	2301      	movs	r3, #1
 8003272:	9300      	str	r3, [sp, #0]
 8003274:	4620      	mov	r0, r4
 8003276:	464b      	mov	r3, r9
 8003278:	b292      	uxth	r2, r2
 800327a:	4649      	mov	r1, r9
 800327c:	3406      	adds	r4, #6
 800327e:	f000 ff09 	bl	8004094 <SSD1306_DrawLine>
 8003282:	b2a4      	uxth	r4, r4
 8003284:	e799      	b.n	80031ba <updateDisplay+0x92>
 8003286:	3830      	subs	r0, #48	@ 0x30
 8003288:	4621      	mov	r1, r4
 800328a:	4632      	mov	r2, r6
 800328c:	b2c0      	uxtb	r0, r0
 800328e:	f000 fff5 	bl	800427c <SSD1306_DrawDigit5x7>
 8003292:	f89b 3000 	ldrb.w	r3, [fp]
 8003296:	3301      	adds	r3, #1
 8003298:	4423      	add	r3, r4
 800329a:	b29c      	uxth	r4, r3
 800329c:	e78d      	b.n	80031ba <updateDisplay+0x92>
 800329e:	bf00      	nop
 80032a0:	0800b6e0 	.word	0x0800b6e0
 80032a4:	20000010 	.word	0x20000010
 80032a8:	20000008 	.word	0x20000008
 80032ac:	0800bb9a 	.word	0x0800bb9a
 80032b0:	20000778 	.word	0x20000778

080032b4 <SystemClock_Config>:
 80032b4:	b510      	push	{r4, lr}
 80032b6:	b094      	sub	sp, #80	@ 0x50
 80032b8:	2210      	movs	r2, #16
 80032ba:	2100      	movs	r1, #0
 80032bc:	a80a      	add	r0, sp, #40	@ 0x28
 80032be:	f007 fbff 	bl	800aac0 <memset>
 80032c2:	2214      	movs	r2, #20
 80032c4:	2100      	movs	r1, #0
 80032c6:	a803      	add	r0, sp, #12
 80032c8:	f007 fbfa 	bl	800aac0 <memset>
 80032cc:	4b1f      	ldr	r3, [pc, #124]	@ (800334c <SystemClock_Config+0x98>)
 80032ce:	2100      	movs	r1, #0
 80032d0:	9101      	str	r1, [sp, #4]
 80032d2:	6c1a      	ldr	r2, [r3, #64]	@ 0x40
 80032d4:	f042 5280 	orr.w	r2, r2, #268435456	@ 0x10000000
 80032d8:	641a      	str	r2, [r3, #64]	@ 0x40
 80032da:	6c1b      	ldr	r3, [r3, #64]	@ 0x40
 80032dc:	f003 5380 	and.w	r3, r3, #268435456	@ 0x10000000
 80032e0:	9301      	str	r3, [sp, #4]
 80032e2:	9b01      	ldr	r3, [sp, #4]
 80032e4:	4b1a      	ldr	r3, [pc, #104]	@ (8003350 <SystemClock_Config+0x9c>)
 80032e6:	9102      	str	r1, [sp, #8]
 80032e8:	681a      	ldr	r2, [r3, #0]
 80032ea:	f442 4240 	orr.w	r2, r2, #49152	@ 0xc000
 80032ee:	601a      	str	r2, [r3, #0]
 80032f0:	681b      	ldr	r3, [r3, #0]
 80032f2:	f403 4340 	and.w	r3, r3, #49152	@ 0xc000
 80032f6:	9302      	str	r3, [sp, #8]
 80032f8:	9b02      	ldr	r3, [sp, #8]
 80032fa:	2201      	movs	r2, #1
 80032fc:	f44f 3380 	mov.w	r3, #65536	@ 0x10000
 8003300:	2402      	movs	r4, #2
 8003302:	e9cd 2308 	strd	r2, r3, [sp, #32]
 8003306:	f44f 0380 	mov.w	r3, #4194304	@ 0x400000
 800330a:	e9cd 430e 	strd	r4, r3, [sp, #56]	@ 0x38
 800330e:	2119      	movs	r1, #25
 8003310:	23c0      	movs	r3, #192	@ 0xc0
 8003312:	e9cd 1310 	strd	r1, r3, [sp, #64]	@ 0x40
 8003316:	a808      	add	r0, sp, #32
 8003318:	2304      	movs	r3, #4
 800331a:	9412      	str	r4, [sp, #72]	@ 0x48
 800331c:	9313      	str	r3, [sp, #76]	@ 0x4c
 800331e:	f004 fbc3 	bl	8007aa8 <HAL_RCC_OscConfig>
 8003322:	b108      	cbz	r0, 8003328 <SystemClock_Config+0x74>
 8003324:	b672      	cpsid	i
 8003326:	e7fe      	b.n	8003326 <SystemClock_Config+0x72>
 8003328:	230f      	movs	r3, #15
 800332a:	e9cd 3403 	strd	r3, r4, [sp, #12]
 800332e:	f44f 5380 	mov.w	r3, #4096	@ 0x1000
 8003332:	e9cd 3006 	strd	r3, r0, [sp, #24]
 8003336:	9005      	str	r0, [sp, #20]
 8003338:	2103      	movs	r1, #3
 800333a:	a803      	add	r0, sp, #12
 800333c:	f004 fd90 	bl	8007e60 <HAL_RCC_ClockConfig>
 8003340:	b108      	cbz	r0, 8003346 <SystemClock_Config+0x92>
 8003342:	b672      	cpsid	i
 8003344:	e7fe      	b.n	8003344 <SystemClock_Config+0x90>
 8003346:	b014      	add	sp, #80	@ 0x50
 8003348:	bd10      	pop	{r4, pc}
 800334a:	bf00      	nop
 800334c:	40023800 	.word	0x40023800
 8003350:	40007000 	.word	0x40007000
 8003354:	00000000 	.word	0x00000000

08003358 <main>:
 8003358:	e92d 4ff0 	stmdb	sp!, {r4, r5, r6, r7, r8, r9, sl, fp, lr}
 800335c:	b09b      	sub	sp, #108	@ 0x6c
 800335e:	2400      	movs	r4, #0
 8003360:	4dad      	ldr	r5, [pc, #692]	@ (8003618 <main+0x2c0>)
 8003362:	f001 fab9 	bl	80048d8 <HAL_Init>
 8003366:	f7ff ffa5 	bl	80032b4 <SystemClock_Config>
 800336a:	2214      	movs	r2, #20
 800336c:	2100      	movs	r1, #0
 800336e:	a813      	add	r0, sp, #76	@ 0x4c
 8003370:	f007 fba6 	bl	800aac0 <memset>
 8003374:	9409      	str	r4, [sp, #36]	@ 0x24
 8003376:	6b2b      	ldr	r3, [r5, #48]	@ 0x30
 8003378:	48a8      	ldr	r0, [pc, #672]	@ (800361c <main+0x2c4>)
 800337a:	f043 0304 	orr.w	r3, r3, #4
 800337e:	632b      	str	r3, [r5, #48]	@ 0x30
 8003380:	6b2b      	ldr	r3, [r5, #48]	@ 0x30
 8003382:	f003 0304 	and.w	r3, r3, #4
 8003386:	9309      	str	r3, [sp, #36]	@ 0x24
 8003388:	9b09      	ldr	r3, [sp, #36]	@ 0x24
 800338a:	940a      	str	r4, [sp, #40]	@ 0x28
 800338c:	6b2b      	ldr	r3, [r5, #48]	@ 0x30
 800338e:	f043 0380 	orr.w	r3, r3, #128	@ 0x80
 8003392:	632b      	str	r3, [r5, #48]	@ 0x30
 8003394:	6b2b      	ldr	r3, [r5, #48]	@ 0x30
 8003396:	f003 0380 	and.w	r3, r3, #128	@ 0x80
 800339a:	930a      	str	r3, [sp, #40]	@ 0x28
 800339c:	9b0a      	ldr	r3, [sp, #40]	@ 0x28
 800339e:	940b      	str	r4, [sp, #44]	@ 0x2c
 80033a0:	6b2b      	ldr	r3, [r5, #48]	@ 0x30
 80033a2:	f043 0301 	orr.w	r3, r3, #1
 80033a6:	632b      	str	r3, [r5, #48]	@ 0x30
 80033a8:	6b2b      	ldr	r3, [r5, #48]	@ 0x30
 80033aa:	f003 0301 	and.w	r3, r3, #1
 80033ae:	930b      	str	r3, [sp, #44]	@ 0x2c
 80033b0:	9b0b      	ldr	r3, [sp, #44]	@ 0x2c
 80033b2:	940c      	str	r4, [sp, #48]	@ 0x30
 80033b4:	6b2b      	ldr	r3, [r5, #48]	@ 0x30
 80033b6:	f043 0302 	orr.w	r3, r3, #2
 80033ba:	632b      	str	r3, [r5, #48]	@ 0x30
 80033bc:	6b2b      	ldr	r3, [r5, #48]	@ 0x30
 80033be:	f003 0302 	and.w	r3, r3, #2
 80033c2:	930c      	str	r3, [sp, #48]	@ 0x30
 80033c4:	4622      	mov	r2, r4
 80033c6:	f44f 5100 	mov.w	r1, #8192	@ 0x2000
 80033ca:	9b0c      	ldr	r3, [sp, #48]	@ 0x30
 80033cc:	f002 f87e 	bl	80054cc <HAL_GPIO_WritePin>
 80033d0:	4622      	mov	r2, r4
 80033d2:	4893      	ldr	r0, [pc, #588]	@ (8003620 <main+0x2c8>)
 80033d4:	2104      	movs	r1, #4
 80033d6:	f002 f879 	bl	80054cc <HAL_GPIO_WritePin>
 80033da:	2601      	movs	r6, #1
 80033dc:	f44f 5300 	mov.w	r3, #8192	@ 0x2000
 80033e0:	488e      	ldr	r0, [pc, #568]	@ (800361c <main+0x2c4>)
 80033e2:	a913      	add	r1, sp, #76	@ 0x4c
 80033e4:	e9cd 3613 	strd	r3, r6, [sp, #76]	@ 0x4c
 80033e8:	e9cd 4415 	strd	r4, r4, [sp, #84]	@ 0x54
 80033ec:	2704      	movs	r7, #4
 80033ee:	f001 ffa7 	bl	8005340 <HAL_GPIO_Init>
 80033f2:	488b      	ldr	r0, [pc, #556]	@ (8003620 <main+0x2c8>)
 80033f4:	a913      	add	r1, sp, #76	@ 0x4c
 80033f6:	e9cd 7613 	strd	r7, r6, [sp, #76]	@ 0x4c
 80033fa:	e9cd 4415 	strd	r4, r4, [sp, #84]	@ 0x54
 80033fe:	f001 ff9f 	bl	8005340 <HAL_GPIO_Init>
 8003402:	9407      	str	r4, [sp, #28]
 8003404:	6b2b      	ldr	r3, [r5, #48]	@ 0x30
 8003406:	f443 1300 	orr.w	r3, r3, #2097152	@ 0x200000
 800340a:	632b      	str	r3, [r5, #48]	@ 0x30
 800340c:	6b2b      	ldr	r3, [r5, #48]	@ 0x30
 800340e:	f403 1300 	and.w	r3, r3, #2097152	@ 0x200000
 8003412:	9307      	str	r3, [sp, #28]
 8003414:	9b07      	ldr	r3, [sp, #28]
 8003416:	9408      	str	r4, [sp, #32]
 8003418:	6b2b      	ldr	r3, [r5, #48]	@ 0x30
 800341a:	f443 0380 	orr.w	r3, r3, #4194304	@ 0x400000
 800341e:	632b      	str	r3, [r5, #48]	@ 0x30
 8003420:	6b2b      	ldr	r3, [r5, #48]	@ 0x30
 8003422:	f403 0380 	and.w	r3, r3, #4194304	@ 0x400000
 8003426:	4622      	mov	r2, r4
 8003428:	4621      	mov	r1, r4
 800342a:	9308      	str	r3, [sp, #32]
 800342c:	200b      	movs	r0, #11
 800342e:	9b08      	ldr	r3, [sp, #32]
 8003430:	f001 fd50 	bl	8004ed4 <HAL_NVIC_SetPriority>
 8003434:	200b      	movs	r0, #11
 8003436:	f001 fd7f 	bl	8004f38 <HAL_NVIC_EnableIRQ>
 800343a:	4622      	mov	r2, r4
 800343c:	4621      	mov	r1, r4
 800343e:	200c      	movs	r0, #12
 8003440:	f001 fd48 	bl	8004ed4 <HAL_NVIC_SetPriority>
 8003444:	200c      	movs	r0, #12
 8003446:	f001 fd77 	bl	8004f38 <HAL_NVIC_EnableIRQ>
 800344a:	4622      	mov	r2, r4
 800344c:	4621      	mov	r1, r4
 800344e:	2038      	movs	r0, #56	@ 0x38
 8003450:	f001 fd40 	bl	8004ed4 <HAL_NVIC_SetPriority>
 8003454:	2038      	movs	r0, #56	@ 0x38
 8003456:	f001 fd6f 	bl	8004f38 <HAL_NVIC_EnableIRQ>
 800345a:	4872      	ldr	r0, [pc, #456]	@ (8003624 <main+0x2cc>)
 800345c:	f8df e1e4 	ldr.w	lr, [pc, #484]	@ 8003644 <main+0x2ec>
 8003460:	4b71      	ldr	r3, [pc, #452]	@ (8003628 <main+0x2d0>)
 8003462:	6204      	str	r4, [r0, #32]
 8003464:	e9c0 e300 	strd	lr, r3, [r0]
 8003468:	f44f 4380 	mov.w	r3, #16384	@ 0x4000
 800346c:	e9c0 4402 	strd	r4, r4, [r0, #8]
 8003470:	e9c0 3404 	strd	r3, r4, [r0, #16]
 8003474:	e9c0 4406 	strd	r4, r4, [r0, #24]
 8003478:	f002 fa36 	bl	80058e8 <HAL_I2C_Init>
 800347c:	4605      	mov	r5, r0
 800347e:	b108      	cbz	r0, 8003484 <main+0x12c>
 8003480:	b672      	cpsid	i
 8003482:	e7fe      	b.n	8003482 <main+0x12a>
 8003484:	4601      	mov	r1, r0
 8003486:	2210      	movs	r2, #16
 8003488:	a813      	add	r0, sp, #76	@ 0x4c
 800348a:	f007 fb19 	bl	800aac0 <memset>
 800348e:	4c67      	ldr	r4, [pc, #412]	@ (800362c <main+0x2d4>)
 8003490:	4867      	ldr	r0, [pc, #412]	@ (8003630 <main+0x2d8>)
 8003492:	60a5      	str	r5, [r4, #8]
 8003494:	f44f 3380 	mov.w	r3, #65536	@ 0x10000
 8003498:	e9c4 0300 	strd	r0, r3, [r4]
 800349c:	f04f 5c80 	mov.w	ip, #268435456	@ 0x10000000
 80034a0:	f04f 63c0 	mov.w	r3, #100663296	@ 0x6000000
 80034a4:	f04f 0808 	mov.w	r8, #8
 80034a8:	4620      	mov	r0, r4
 80034aa:	e9c4 3c0a 	strd	r3, ip, [r4, #40]	@ 0x28
 80034ae:	6126      	str	r6, [r4, #16]
 80034b0:	7625      	strb	r5, [r4, #24]
 80034b2:	f884 5020 	strb.w	r5, [r4, #32]
 80034b6:	60e5      	str	r5, [r4, #12]
 80034b8:	f8c4 801c 	str.w	r8, [r4, #28]
 80034bc:	f884 6030 	strb.w	r6, [r4, #48]	@ 0x30
 80034c0:	6165      	str	r5, [r4, #20]
 80034c2:	f001 fa49 	bl	8004958 <HAL_ADC_Init>
 80034c6:	b108      	cbz	r0, 80034cc <main+0x174>
 80034c8:	b672      	cpsid	i
 80034ca:	e7fe      	b.n	80034ca <main+0x172>
 80034cc:	a913      	add	r1, sp, #76	@ 0x4c
 80034ce:	4620      	mov	r0, r4
 80034d0:	e9cd 6613 	strd	r6, r6, [sp, #76]	@ 0x4c
 80034d4:	9615      	str	r6, [sp, #84]	@ 0x54
 80034d6:	f001 fc4d 	bl	8004d74 <HAL_ADC_ConfigChannel>
 80034da:	b108      	cbz	r0, 80034e0 <main+0x188>
 80034dc:	b672      	cpsid	i
 80034de:	e7fe      	b.n	80034de <main+0x186>
 80034e0:	2302      	movs	r3, #2
 80034e2:	a913      	add	r1, sp, #76	@ 0x4c
 80034e4:	4620      	mov	r0, r4
 80034e6:	e9cd 3313 	strd	r3, r3, [sp, #76]	@ 0x4c
 80034ea:	f001 fc43 	bl	8004d74 <HAL_ADC_ConfigChannel>
 80034ee:	b108      	cbz	r0, 80034f4 <main+0x19c>
 80034f0:	b672      	cpsid	i
 80034f2:	e7fe      	b.n	80034f2 <main+0x19a>
 80034f4:	2303      	movs	r3, #3
 80034f6:	a913      	add	r1, sp, #76	@ 0x4c
 80034f8:	4620      	mov	r0, r4
 80034fa:	e9cd 3313 	strd	r3, r3, [sp, #76]	@ 0x4c
 80034fe:	f001 fc39 	bl	8004d74 <HAL_ADC_ConfigChannel>
 8003502:	b108      	cbz	r0, 8003508 <main+0x1b0>
 8003504:	b672      	cpsid	i
 8003506:	e7fe      	b.n	8003506 <main+0x1ae>
 8003508:	a913      	add	r1, sp, #76	@ 0x4c
 800350a:	4620      	mov	r0, r4
 800350c:	e9cd 7713 	strd	r7, r7, [sp, #76]	@ 0x4c
 8003510:	f001 fc30 	bl	8004d74 <HAL_ADC_ConfigChannel>
 8003514:	b108      	cbz	r0, 800351a <main+0x1c2>
 8003516:	b672      	cpsid	i
 8003518:	e7fe      	b.n	8003518 <main+0x1c0>
 800351a:	2305      	movs	r3, #5
 800351c:	a913      	add	r1, sp, #76	@ 0x4c
 800351e:	4620      	mov	r0, r4
 8003520:	e9cd 3313 	strd	r3, r3, [sp, #76]	@ 0x4c
 8003524:	f001 fc26 	bl	8004d74 <HAL_ADC_ConfigChannel>
 8003528:	b108      	cbz	r0, 800352e <main+0x1d6>
 800352a:	b672      	cpsid	i
 800352c:	e7fe      	b.n	800352c <main+0x1d4>
 800352e:	2306      	movs	r3, #6
 8003530:	a913      	add	r1, sp, #76	@ 0x4c
 8003532:	4620      	mov	r0, r4
 8003534:	e9cd 3313 	strd	r3, r3, [sp, #76]	@ 0x4c
 8003538:	f001 fc1c 	bl	8004d74 <HAL_ADC_ConfigChannel>
 800353c:	b108      	cbz	r0, 8003542 <main+0x1ea>
 800353e:	b672      	cpsid	i
 8003540:	e7fe      	b.n	8003540 <main+0x1e8>
 8003542:	2307      	movs	r3, #7
 8003544:	a913      	add	r1, sp, #76	@ 0x4c
 8003546:	4620      	mov	r0, r4
 8003548:	e9cd 3313 	strd	r3, r3, [sp, #76]	@ 0x4c
 800354c:	f001 fc12 	bl	8004d74 <HAL_ADC_ConfigChannel>
 8003550:	b108      	cbz	r0, 8003556 <main+0x1fe>
 8003552:	b672      	cpsid	i
 8003554:	e7fe      	b.n	8003554 <main+0x1fc>
 8003556:	a913      	add	r1, sp, #76	@ 0x4c
 8003558:	4620      	mov	r0, r4
 800355a:	e9cd 8813 	strd	r8, r8, [sp, #76]	@ 0x4c
 800355e:	f001 fc09 	bl	8004d74 <HAL_ADC_ConfigChannel>
 8003562:	b108      	cbz	r0, 8003568 <main+0x210>
 8003564:	b672      	cpsid	i
 8003566:	e7fe      	b.n	8003566 <main+0x20e>
 8003568:	2210      	movs	r2, #16
 800356a:	2100      	movs	r1, #0
 800356c:	a813      	add	r0, sp, #76	@ 0x4c
 800356e:	f007 faa7 	bl	800aac0 <memset>
 8003572:	4d30      	ldr	r5, [pc, #192]	@ (8003634 <main+0x2dc>)
 8003574:	4930      	ldr	r1, [pc, #192]	@ (8003638 <main+0x2e0>)
 8003576:	ac0f      	add	r4, sp, #60	@ 0x3c
 8003578:	2300      	movs	r3, #0
 800357a:	f242 527f 	movw	r2, #9599	@ 0x257f
 800357e:	e9c5 1200 	strd	r1, r2, [r5]
 8003582:	930f      	str	r3, [sp, #60]	@ 0x3c
 8003584:	2263      	movs	r2, #99	@ 0x63
 8003586:	6063      	str	r3, [r4, #4]
 8003588:	4628      	mov	r0, r5
 800358a:	e9c5 2303 	strd	r2, r3, [r5, #12]
 800358e:	e9c5 3305 	strd	r3, r3, [r5, #20]
 8003592:	60ab      	str	r3, [r5, #8]
 8003594:	f004 fed0 	bl	8008338 <HAL_TIM_Base_Init>
 8003598:	b108      	cbz	r0, 800359e <main+0x246>
 800359a:	b672      	cpsid	i
 800359c:	e7fe      	b.n	800359c <main+0x244>
 800359e:	f44f 5980 	mov.w	r9, #4096	@ 0x1000
 80035a2:	a913      	add	r1, sp, #76	@ 0x4c
 80035a4:	4628      	mov	r0, r5
 80035a6:	f8cd 904c 	str.w	r9, [sp, #76]	@ 0x4c
 80035aa:	f004 ffab 	bl	8008504 <HAL_TIM_ConfigClockSource>
 80035ae:	b108      	cbz	r0, 80035b4 <main+0x25c>
 80035b0:	b672      	cpsid	i
 80035b2:	e7fe      	b.n	80035b2 <main+0x25a>
 80035b4:	e9cd 000f 	strd	r0, r0, [sp, #60]	@ 0x3c
 80035b8:	4621      	mov	r1, r4
 80035ba:	4628      	mov	r0, r5
 80035bc:	f005 f8a2 	bl	8008704 <HAL_TIMEx_MasterConfigSynchronization>
 80035c0:	4607      	mov	r7, r0
 80035c2:	b108      	cbz	r0, 80035c8 <main+0x270>
 80035c4:	b672      	cpsid	i
 80035c6:	e7fe      	b.n	80035c6 <main+0x26e>
 80035c8:	ae0d      	add	r6, sp, #52	@ 0x34
 80035ca:	4601      	mov	r1, r0
 80035cc:	2210      	movs	r2, #16
 80035ce:	4620      	mov	r0, r4
 80035d0:	f007 fa76 	bl	800aac0 <memset>
 80035d4:	970d      	str	r7, [sp, #52]	@ 0x34
 80035d6:	221c      	movs	r2, #28
 80035d8:	6077      	str	r7, [r6, #4]
 80035da:	4639      	mov	r1, r7
 80035dc:	a813      	add	r0, sp, #76	@ 0x4c
 80035de:	f007 fa6f 	bl	800aac0 <memset>
 80035e2:	4d16      	ldr	r5, [pc, #88]	@ (800363c <main+0x2e4>)
 80035e4:	4b16      	ldr	r3, [pc, #88]	@ (8003640 <main+0x2e8>)
 80035e6:	60af      	str	r7, [r5, #8]
 80035e8:	f04f 085f 	mov.w	r8, #95	@ 0x5f
 80035ec:	e9c5 3800 	strd	r3, r8, [r5]
 80035f0:	4628      	mov	r0, r5
 80035f2:	f240 33e7 	movw	r3, #999	@ 0x3e7
 80035f6:	e9c5 3703 	strd	r3, r7, [r5, #12]
 80035fa:	61af      	str	r7, [r5, #24]
 80035fc:	f004 fe9c 	bl	8008338 <HAL_TIM_Base_Init>
 8003600:	b108      	cbz	r0, 8003606 <main+0x2ae>
 8003602:	b672      	cpsid	i
 8003604:	e7fe      	b.n	8003604 <main+0x2ac>
 8003606:	4621      	mov	r1, r4
 8003608:	4628      	mov	r0, r5
 800360a:	f8cd 903c 	str.w	r9, [sp, #60]	@ 0x3c
 800360e:	f004 ff79 	bl	8008504 <HAL_TIM_ConfigClockSource>
 8003612:	b1c8      	cbz	r0, 8003648 <main+0x2f0>
 8003614:	b672      	cpsid	i
 8003616:	e7fe      	b.n	8003616 <main+0x2be>
 8003618:	40023800 	.word	0x40023800
 800361c:	40020800 	.word	0x40020800
 8003620:	40020400 	.word	0x40020400
 8003624:	20000dc4 	.word	0x20000dc4
 8003628:	00061a80 	.word	0x00061a80
 800362c:	20000e78 	.word	0x20000e78
 8003630:	40012000 	.word	0x40012000
 8003634:	20000cbc 	.word	0x20000cbc
 8003638:	40010000 	.word	0x40010000
 800363c:	20000c2c 	.word	0x20000c2c
 8003640:	40000400 	.word	0x40000400
 8003644:	40005400 	.word	0x40005400
 8003648:	4628      	mov	r0, r5
 800364a:	f004 fea1 	bl	8008390 <HAL_TIM_PWM_Init>
 800364e:	b108      	cbz	r0, 8003654 <main+0x2fc>
 8003650:	b672      	cpsid	i
 8003652:	e7fe      	b.n	8003652 <main+0x2fa>
 8003654:	e9cd 000d 	strd	r0, r0, [sp, #52]	@ 0x34
 8003658:	4631      	mov	r1, r6
 800365a:	4628      	mov	r0, r5
 800365c:	f005 f852 	bl	8008704 <HAL_TIMEx_MasterConfigSynchronization>
 8003660:	4602      	mov	r2, r0
 8003662:	b108      	cbz	r0, 8003668 <main+0x310>
 8003664:	b672      	cpsid	i
 8003666:	e7fe      	b.n	8003666 <main+0x30e>
 8003668:	2360      	movs	r3, #96	@ 0x60
 800366a:	e9cd 3013 	strd	r3, r0, [sp, #76]	@ 0x4c
 800366e:	9015      	str	r0, [sp, #84]	@ 0x54
 8003670:	9017      	str	r0, [sp, #92]	@ 0x5c
 8003672:	a913      	add	r1, sp, #76	@ 0x4c
 8003674:	4628      	mov	r0, r5
 8003676:	f004 fee3 	bl	8008440 <HAL_TIM_PWM_ConfigChannel>
 800367a:	b108      	cbz	r0, 8003680 <main+0x328>
 800367c:	b672      	cpsid	i
 800367e:	e7fe      	b.n	800367e <main+0x326>
 8003680:	2204      	movs	r2, #4
 8003682:	a913      	add	r1, sp, #76	@ 0x4c
 8003684:	4628      	mov	r0, r5
 8003686:	f004 fedb 	bl	8008440 <HAL_TIM_PWM_ConfigChannel>
 800368a:	4607      	mov	r7, r0
 800368c:	b108      	cbz	r0, 8003692 <main+0x33a>
 800368e:	b672      	cpsid	i
 8003690:	e7fe      	b.n	8003690 <main+0x338>
 8003692:	4628      	mov	r0, r5
 8003694:	f000 ffd0 	bl	8004638 <HAL_TIM_MspPostInit>
 8003698:	f006 ff1a 	bl	800a4d0 <MX_USB_DEVICE_Init>
 800369c:	2210      	movs	r2, #16
 800369e:	4639      	mov	r1, r7
 80036a0:	a813      	add	r0, sp, #76	@ 0x4c
 80036a2:	f007 fa0d 	bl	800aac0 <memset>
 80036a6:	484f      	ldr	r0, [pc, #316]	@ (80037e4 <main+0x48c>)
 80036a8:	970f      	str	r7, [sp, #60]	@ 0x3c
 80036aa:	f04f 4380 	mov.w	r3, #1073741824	@ 0x40000000
 80036ae:	e9c0 3800 	strd	r3, r8, [r0]
 80036b2:	6067      	str	r7, [r4, #4]
 80036b4:	23f9      	movs	r3, #249	@ 0xf9
 80036b6:	e9c0 3703 	strd	r3, r7, [r0, #12]
 80036ba:	6087      	str	r7, [r0, #8]
 80036bc:	6187      	str	r7, [r0, #24]
 80036be:	f004 fe3b 	bl	8008338 <HAL_TIM_Base_Init>
 80036c2:	b108      	cbz	r0, 80036c8 <main+0x370>
 80036c4:	b672      	cpsid	i
 80036c6:	e7fe      	b.n	80036c6 <main+0x36e>
 80036c8:	f44f 5880 	mov.w	r8, #4096	@ 0x1000
 80036cc:	4845      	ldr	r0, [pc, #276]	@ (80037e4 <main+0x48c>)
 80036ce:	f8cd 804c 	str.w	r8, [sp, #76]	@ 0x4c
 80036d2:	a913      	add	r1, sp, #76	@ 0x4c
 80036d4:	f004 ff16 	bl	8008504 <HAL_TIM_ConfigClockSource>
 80036d8:	b108      	cbz	r0, 80036de <main+0x386>
 80036da:	b672      	cpsid	i
 80036dc:	e7fe      	b.n	80036dc <main+0x384>
 80036de:	2320      	movs	r3, #32
 80036e0:	e9cd 300f 	strd	r3, r0, [sp, #60]	@ 0x3c
 80036e4:	4621      	mov	r1, r4
 80036e6:	483f      	ldr	r0, [pc, #252]	@ (80037e4 <main+0x48c>)
 80036e8:	f005 f80c 	bl	8008704 <HAL_TIMEx_MasterConfigSynchronization>
 80036ec:	4607      	mov	r7, r0
 80036ee:	b108      	cbz	r0, 80036f4 <main+0x39c>
 80036f0:	b672      	cpsid	i
 80036f2:	e7fe      	b.n	80036f2 <main+0x39a>
 80036f4:	900f      	str	r0, [sp, #60]	@ 0x3c
 80036f6:	4601      	mov	r1, r0
 80036f8:	6060      	str	r0, [r4, #4]
 80036fa:	221c      	movs	r2, #28
 80036fc:	a813      	add	r0, sp, #76	@ 0x4c
 80036fe:	f007 f9df 	bl	800aac0 <memset>
 8003702:	4d39      	ldr	r5, [pc, #228]	@ (80037e8 <main+0x490>)
 8003704:	4b39      	ldr	r3, [pc, #228]	@ (80037ec <main+0x494>)
 8003706:	60af      	str	r7, [r5, #8]
 8003708:	f04f 095f 	mov.w	r9, #95	@ 0x5f
 800370c:	e9c5 3900 	strd	r3, r9, [r5]
 8003710:	4628      	mov	r0, r5
 8003712:	f240 33e7 	movw	r3, #999	@ 0x3e7
 8003716:	e9c5 3703 	strd	r3, r7, [r5, #12]
 800371a:	61af      	str	r7, [r5, #24]
 800371c:	f004 fe38 	bl	8008390 <HAL_TIM_PWM_Init>
 8003720:	b108      	cbz	r0, 8003726 <main+0x3ce>
 8003722:	b672      	cpsid	i
 8003724:	e7fe      	b.n	8003724 <main+0x3cc>
 8003726:	e9cd 000f 	strd	r0, r0, [sp, #60]	@ 0x3c
 800372a:	4621      	mov	r1, r4
 800372c:	4628      	mov	r0, r5
 800372e:	f004 ffe9 	bl	8008704 <HAL_TIMEx_MasterConfigSynchronization>
 8003732:	4602      	mov	r2, r0
 8003734:	b108      	cbz	r0, 800373a <main+0x3e2>
 8003736:	b672      	cpsid	i
 8003738:	e7fe      	b.n	8003738 <main+0x3e0>
 800373a:	2360      	movs	r3, #96	@ 0x60
 800373c:	e9cd 3013 	strd	r3, r0, [sp, #76]	@ 0x4c
 8003740:	9015      	str	r0, [sp, #84]	@ 0x54
 8003742:	9017      	str	r0, [sp, #92]	@ 0x5c
 8003744:	a913      	add	r1, sp, #76	@ 0x4c
 8003746:	4628      	mov	r0, r5
 8003748:	f004 fe7a 	bl	8008440 <HAL_TIM_PWM_ConfigChannel>
 800374c:	b108      	cbz	r0, 8003752 <main+0x3fa>
 800374e:	b672      	cpsid	i
 8003750:	e7fe      	b.n	8003750 <main+0x3f8>
 8003752:	2204      	movs	r2, #4
 8003754:	a913      	add	r1, sp, #76	@ 0x4c
 8003756:	4628      	mov	r0, r5
 8003758:	f004 fe72 	bl	8008440 <HAL_TIM_PWM_ConfigChannel>
 800375c:	4607      	mov	r7, r0
 800375e:	b108      	cbz	r0, 8003764 <main+0x40c>
 8003760:	b672      	cpsid	i
 8003762:	e7fe      	b.n	8003762 <main+0x40a>
 8003764:	4628      	mov	r0, r5
 8003766:	f000 ff67 	bl	8004638 <HAL_TIM_MspPostInit>
 800376a:	4821      	ldr	r0, [pc, #132]	@ (80037f0 <main+0x498>)
 800376c:	4a21      	ldr	r2, [pc, #132]	@ (80037f4 <main+0x49c>)
 800376e:	6107      	str	r7, [r0, #16]
 8003770:	f44f 33e1 	mov.w	r3, #115200	@ 0x1c200
 8003774:	e9c0 2300 	strd	r2, r3, [r0]
 8003778:	230c      	movs	r3, #12
 800377a:	e9c0 7702 	strd	r7, r7, [r0, #8]
 800377e:	e9c0 3705 	strd	r3, r7, [r0, #20]
 8003782:	61c7      	str	r7, [r0, #28]
 8003784:	f005 f8b4 	bl	80088f0 <HAL_UART_Init>
 8003788:	4607      	mov	r7, r0
 800378a:	b108      	cbz	r0, 8003790 <main+0x438>
 800378c:	b672      	cpsid	i
 800378e:	e7fe      	b.n	800378e <main+0x436>
 8003790:	4601      	mov	r1, r0
 8003792:	2210      	movs	r2, #16
 8003794:	a813      	add	r0, sp, #76	@ 0x4c
 8003796:	f007 f993 	bl	800aac0 <memset>
 800379a:	4d17      	ldr	r5, [pc, #92]	@ (80037f8 <main+0x4a0>)
 800379c:	4b17      	ldr	r3, [pc, #92]	@ (80037fc <main+0x4a4>)
 800379e:	970f      	str	r7, [sp, #60]	@ 0x3c
 80037a0:	e9c5 3900 	strd	r3, r9, [r5]
 80037a4:	f240 73cf 	movw	r3, #1999	@ 0x7cf
 80037a8:	e9c5 3703 	strd	r3, r7, [r5, #12]
 80037ac:	6067      	str	r7, [r4, #4]
 80037ae:	2380      	movs	r3, #128	@ 0x80
 80037b0:	4628      	mov	r0, r5
 80037b2:	60af      	str	r7, [r5, #8]
 80037b4:	61ab      	str	r3, [r5, #24]
 80037b6:	f004 fdbf 	bl	8008338 <HAL_TIM_Base_Init>
 80037ba:	b108      	cbz	r0, 80037c0 <main+0x468>
 80037bc:	b672      	cpsid	i
 80037be:	e7fe      	b.n	80037be <main+0x466>
 80037c0:	a913      	add	r1, sp, #76	@ 0x4c
 80037c2:	4628      	mov	r0, r5
 80037c4:	f8cd 804c 	str.w	r8, [sp, #76]	@ 0x4c
 80037c8:	f004 fe9c 	bl	8008504 <HAL_TIM_ConfigClockSource>
 80037cc:	b108      	cbz	r0, 80037d2 <main+0x47a>
 80037ce:	b672      	cpsid	i
 80037d0:	e7fe      	b.n	80037d0 <main+0x478>
 80037d2:	e9cd 000f 	strd	r0, r0, [sp, #60]	@ 0x3c
 80037d6:	4621      	mov	r1, r4
 80037d8:	4628      	mov	r0, r5
 80037da:	f004 ff93 	bl	8008704 <HAL_TIMEx_MasterConfigSynchronization>
 80037de:	b178      	cbz	r0, 8003800 <main+0x4a8>
 80037e0:	b672      	cpsid	i
 80037e2:	e7fe      	b.n	80037e2 <main+0x48a>
 80037e4:	20000c74 	.word	0x20000c74
 80037e8:	20000be4 	.word	0x20000be4
 80037ec:	40000800 	.word	0x40000800
 80037f0:	20000b54 	.word	0x20000b54
 80037f4:	40011000 	.word	0x40011000
 80037f8:	20000b9c 	.word	0x20000b9c
 80037fc:	40000c00 	.word	0x40000c00
 8003800:	48bd      	ldr	r0, [pc, #756]	@ (8003af8 <main+0x7a0>)
 8003802:	f8df 83b8 	ldr.w	r8, [pc, #952]	@ 8003bbc <main+0x864>
 8003806:	f006 fef3 	bl	800a5f0 <CDC_Attach_Rx>
 800380a:	4bbc      	ldr	r3, [pc, #752]	@ (8003afc <main+0x7a4>)
 800380c:	49bc      	ldr	r1, [pc, #752]	@ (8003b00 <main+0x7a8>)
 800380e:	48bd      	ldr	r0, [pc, #756]	@ (8003b04 <main+0x7ac>)
 8003810:	2500      	movs	r5, #0
 8003812:	2201      	movs	r2, #1
 8003814:	701d      	strb	r5, [r3, #0]
 8003816:	f005 fab6 	bl	8008d86 <HAL_UART_Receive_IT>
 800381a:	2208      	movs	r2, #8
 800381c:	49ba      	ldr	r1, [pc, #744]	@ (8003b08 <main+0x7b0>)
 800381e:	48bb      	ldr	r0, [pc, #748]	@ (8003b0c <main+0x7b4>)
 8003820:	f001 f940 	bl	8004aa4 <HAL_ADC_Start_DMA>
 8003824:	48ba      	ldr	r0, [pc, #744]	@ (8003b10 <main+0x7b8>)
 8003826:	f004 fc7d 	bl	8008124 <HAL_TIM_Base_Start_IT>
 800382a:	48ba      	ldr	r0, [pc, #744]	@ (8003b14 <main+0x7bc>)
 800382c:	f004 fc7a 	bl	8008124 <HAL_TIM_Base_Start_IT>
 8003830:	48b9      	ldr	r0, [pc, #740]	@ (8003b18 <main+0x7c0>)
 8003832:	f004 fc77 	bl	8008124 <HAL_TIM_Base_Start_IT>
 8003836:	f7ff fbe1 	bl	8002ffc <PWM_init>
 800383a:	48b8      	ldr	r0, [pc, #736]	@ (8003b1c <main+0x7c4>)
 800383c:	f7fd fbd6 	bl	8000fec <ESP01_Init>
 8003840:	48b7      	ldr	r0, [pc, #732]	@ (8003b20 <main+0x7c8>)
 8003842:	f7fe f9d5 	bl	8001bf0 <ESP01_AttachChangeState>
 8003846:	2001      	movs	r0, #1
 8003848:	f7ff f9d2 	bl	8002bf0 <esp01_chpd>
 800384c:	2064      	movs	r0, #100	@ 0x64
 800384e:	f001 f86f 	bl	8004930 <HAL_Delay>
 8003852:	48b4      	ldr	r0, [pc, #720]	@ (8003b24 <main+0x7cc>)
 8003854:	f7fe f9d2 	bl	8001bfc <ESP01_AttachDebugStr>
 8003858:	4bb3      	ldr	r3, [pc, #716]	@ (8003b28 <main+0x7d0>)
 800385a:	6819      	ldr	r1, [r3, #0]
 800385c:	4bb3      	ldr	r3, [pc, #716]	@ (8003b2c <main+0x7d4>)
 800385e:	6818      	ldr	r0, [r3, #0]
 8003860:	f7fd fa1e 	bl	8000ca0 <ESP01_SetWIFI>
 8003864:	48b2      	ldr	r0, [pc, #712]	@ (8003b30 <main+0x7d8>)
 8003866:	49b3      	ldr	r1, [pc, #716]	@ (8003b34 <main+0x7dc>)
 8003868:	4bb3      	ldr	r3, [pc, #716]	@ (8003b38 <main+0x7e0>)
 800386a:	6003      	str	r3, [r0, #0]
 800386c:	23ff      	movs	r3, #255	@ 0xff
 800386e:	7283      	strb	r3, [r0, #10]
 8003870:	718b      	strb	r3, [r1, #6]
 8003872:	4ab2      	ldr	r2, [pc, #712]	@ (8003b3c <main+0x7e4>)
 8003874:	600a      	str	r2, [r1, #0]
 8003876:	ab06      	add	r3, sp, #24
 8003878:	f10d 0b1a 	add.w	fp, sp, #26
 800387c:	aa05      	add	r2, sp, #20
 800387e:	9300      	str	r3, [sp, #0]
 8003880:	e9cd 6402 	strd	r6, r4, [sp, #8]
 8003884:	f10d 0316 	add.w	r3, sp, #22
 8003888:	f8cd b004 	str.w	fp, [sp, #4]
 800388c:	f7fe fb9e 	bl	8001fcc <UNER_Init>
 8003890:	48ab      	ldr	r0, [pc, #684]	@ (8003b40 <main+0x7e8>)
 8003892:	2108      	movs	r1, #8
 8003894:	f7fe fc64 	bl	8002160 <UNER_RegisterADCBuffer>
 8003898:	49aa      	ldr	r1, [pc, #680]	@ (8003b44 <main+0x7ec>)
 800389a:	48ab      	ldr	r0, [pc, #684]	@ (8003b48 <main+0x7f0>)
 800389c:	f7fe fc66 	bl	800216c <UNER_RegisterMotorSpeed>
 80038a0:	49aa      	ldr	r1, [pc, #680]	@ (8003b4c <main+0x7f4>)
 80038a2:	48ab      	ldr	r0, [pc, #684]	@ (8003b50 <main+0x7f8>)
 80038a4:	f7fe fc76 	bl	8002194 <UNER_RegisterAngle>
 80038a8:	49aa      	ldr	r1, [pc, #680]	@ (8003b54 <main+0x7fc>)
 80038aa:	48ab      	ldr	r0, [pc, #684]	@ (8003b58 <main+0x800>)
 80038ac:	f7fe fc68 	bl	8002180 <UNER_RegisterProportionalControl>
 80038b0:	48aa      	ldr	r0, [pc, #680]	@ (8003b5c <main+0x804>)
 80038b2:	f7fe fc79 	bl	80021a8 <UNER_RegisterFlags>
 80038b6:	48aa      	ldr	r0, [pc, #680]	@ (8003b60 <main+0x808>)
 80038b8:	f000 f99e 	bl	8003bf8 <SSD1306_RegisterPlatform>
 80038bc:	2701      	movs	r7, #1
 80038be:	f000 fa73 	bl	8003da8 <SSD1306_Init>
 80038c2:	2340      	movs	r3, #64	@ 0x40
 80038c4:	4aa7      	ldr	r2, [pc, #668]	@ (8003b64 <main+0x80c>)
 80038c6:	4629      	mov	r1, r5
 80038c8:	4628      	mov	r0, r5
 80038ca:	e9cd 3700 	strd	r3, r7, [sp]
 80038ce:	2380      	movs	r3, #128	@ 0x80
 80038d0:	f000 fb38 	bl	8003f44 <SSD1306_DrawBitmap>
 80038d4:	f000 f9bc 	bl	8003c50 <SSD1306_UpdateScreen_Blocking>
 80038d8:	48a3      	ldr	r0, [pc, #652]	@ (8003b68 <main+0x810>)
 80038da:	f7fe f99f 	bl	8001c1c <MPU6050_RegisterPlatform>
 80038de:	f7fe f9a3 	bl	8001c28 <MPU6050_Init>
 80038e2:	2800      	cmp	r0, #0
 80038e4:	f000 8098 	beq.w	8003a18 <main+0x6c0>
 80038e8:	48a0      	ldr	r0, [pc, #640]	@ (8003b6c <main+0x814>)
 80038ea:	f888 5000 	strb.w	r5, [r8]
 80038ee:	f7ff faa9 	bl	8002e44 <USB_Debug>
 80038f2:	4f9f      	ldr	r7, [pc, #636]	@ (8003b70 <main+0x818>)
 80038f4:	4a9f      	ldr	r2, [pc, #636]	@ (8003b74 <main+0x81c>)
 80038f6:	f8df 9260 	ldr.w	r9, [pc, #608]	@ 8003b58 <main+0x800>
 80038fa:	230a      	movs	r3, #10
 80038fc:	703b      	strb	r3, [r7, #0]
 80038fe:	2300      	movs	r3, #0
 8003900:	7013      	strb	r3, [r2, #0]
 8003902:	4a9d      	ldr	r2, [pc, #628]	@ (8003b78 <main+0x820>)
 8003904:	7013      	strb	r3, [r2, #0]
 8003906:	4a90      	ldr	r2, [pc, #576]	@ (8003b48 <main+0x7f0>)
 8003908:	8013      	strh	r3, [r2, #0]
 800390a:	4a8e      	ldr	r2, [pc, #568]	@ (8003b44 <main+0x7ec>)
 800390c:	8013      	strh	r3, [r2, #0]
 800390e:	4a9b      	ldr	r2, [pc, #620]	@ (8003b7c <main+0x824>)
 8003910:	8013      	strh	r3, [r2, #0]
 8003912:	4a9b      	ldr	r2, [pc, #620]	@ (8003b80 <main+0x828>)
 8003914:	f44f 70fa 	mov.w	r0, #500	@ 0x1f4
 8003918:	8013      	strh	r3, [r2, #0]
 800391a:	4b9a      	ldr	r3, [pc, #616]	@ (8003b84 <main+0x82c>)
 800391c:	f8c9 3000 	str.w	r3, [r9]
 8003920:	f001 f806 	bl	8004930 <HAL_Delay>
 8003924:	4b98      	ldr	r3, [pc, #608]	@ (8003b88 <main+0x830>)
 8003926:	781a      	ldrb	r2, [r3, #0]
 8003928:	2a00      	cmp	r2, #0
 800392a:	f000 808b 	beq.w	8003a44 <main+0x6ec>
 800392e:	2200      	movs	r2, #0
 8003930:	701a      	strb	r2, [r3, #0]
 8003932:	f898 3000 	ldrb.w	r3, [r8]
 8003936:	b123      	cbz	r3, 8003942 <main+0x5ea>
 8003938:	4b94      	ldr	r3, [pc, #592]	@ (8003b8c <main+0x834>)
 800393a:	781b      	ldrb	r3, [r3, #0]
 800393c:	b90b      	cbnz	r3, 8003942 <main+0x5ea>
 800393e:	f7fe f9b1 	bl	8001ca4 <MPU6050_StartRead_DMA>
 8003942:	f7fe f9c5 	bl	8001cd0 <MPU6050_IsDataReady>
 8003946:	4d92      	ldr	r5, [pc, #584]	@ (8003b90 <main+0x838>)
 8003948:	2800      	cmp	r0, #0
 800394a:	d06c      	beq.n	8003a26 <main+0x6ce>
 800394c:	f7fe f9c6 	bl	8001cdc <MPU6050_ClearDataReady>
 8003950:	2300      	movs	r3, #0
 8003952:	aa06      	add	r2, sp, #24
 8003954:	f10d 0116 	add.w	r1, sp, #22
 8003958:	a805      	add	r0, sp, #20
 800395a:	702b      	strb	r3, [r5, #0]
 800395c:	f7fe f9c4 	bl	8001ce8 <MPU6050_GetAccel>
 8003960:	4622      	mov	r2, r4
 8003962:	4631      	mov	r1, r6
 8003964:	4658      	mov	r0, fp
 8003966:	f7fe f9d5 	bl	8001d14 <MPU6050_GetGyro>
 800396a:	f9bd 3018 	ldrsh.w	r3, [sp, #24]
 800396e:	ee00 3a90 	vmov	s1, r3
 8003972:	f9bd 3016 	ldrsh.w	r3, [sp, #22]
 8003976:	ee00 3a10 	vmov	s0, r3
 800397a:	eef8 0ae0 	vcvt.f32.s32	s1, s1
 800397e:	eeb8 0ac0 	vcvt.f32.s32	s0, s0
 8003982:	f007 fd23 	bl	800b3cc <atan2f>
 8003986:	ee10 0a10 	vmov	r0, s0
 800398a:	f7fc ff1f 	bl	80007cc <__aeabi_f2d>
 800398e:	a358      	add	r3, pc, #352	@ (adr r3, 8003af0 <main+0x798>)
 8003990:	e9d3 2300 	ldrd	r2, r3, [r3]
 8003994:	f7fc fc8c 	bl	80002b0 <__aeabi_dmul>
 8003998:	f7fc ff70 	bl	800087c <__aeabi_d2f>
 800399c:	f9bd 3034 	ldrsh.w	r3, [sp, #52]	@ 0x34
 80039a0:	eddf 6a7c 	vldr	s13, [pc, #496]	@ 8003b94 <main+0x83c>
 80039a4:	4a6b      	ldr	r2, [pc, #428]	@ (8003b54 <main+0x7fc>)
 80039a6:	ee07 3a90 	vmov	s15, r3
 80039aa:	eef8 7ae7 	vcvt.f32.s32	s15, s15
 80039ae:	4b7a      	ldr	r3, [pc, #488]	@ (8003b98 <main+0x840>)
 80039b0:	ee87 6aa6 	vdiv.f32	s12, s15, s13
 80039b4:	edd3 7a00 	vldr	s15, [r3]
 80039b8:	eddf 6a78 	vldr	s13, [pc, #480]	@ 8003b9c <main+0x844>
 80039bc:	ee07 0a10 	vmov	s14, r0
 80039c0:	eee6 7a26 	vfma.f32	s15, s12, s13
 80039c4:	eddf 6a76 	vldr	s13, [pc, #472]	@ 8003ba0 <main+0x848>
 80039c8:	ed92 6a00 	vldr	s12, [r2]
 80039cc:	4a5e      	ldr	r2, [pc, #376]	@ (8003b48 <main+0x7f0>)
 80039ce:	ee27 7a26 	vmul.f32	s14, s14, s13
 80039d2:	eddf 6a74 	vldr	s13, [pc, #464]	@ 8003ba4 <main+0x84c>
 80039d6:	eea7 7aa6 	vfma.f32	s14, s15, s13
 80039da:	eddf 6a73 	vldr	s13, [pc, #460]	@ 8003ba8 <main+0x850>
 80039de:	ed83 7a00 	vstr	s14, [r3]
 80039e2:	4b72      	ldr	r3, [pc, #456]	@ (8003bac <main+0x854>)
 80039e4:	ee76 6ac7 	vsub.f32	s13, s13, s14
 80039e8:	edd3 7a00 	vldr	s15, [r3]
 80039ec:	edc3 6a00 	vstr	s13, [r3]
 80039f0:	ee76 7ae7 	vsub.f32	s15, s13, s15
 80039f4:	ee67 7a86 	vmul.f32	s15, s15, s12
 80039f8:	ed99 6a00 	vldr	s12, [r9]
 80039fc:	eee6 7a26 	vfma.f32	s15, s12, s13
 8003a00:	eefd 7ae7 	vcvt.s32.f32	s15, s15
 8003a04:	ee17 3a90 	vmov	r3, s15
 8003a08:	b21b      	sxth	r3, r3
 8003a0a:	8013      	strh	r3, [r2, #0]
 8003a0c:	4a4d      	ldr	r2, [pc, #308]	@ (8003b44 <main+0x7ec>)
 8003a0e:	8013      	strh	r3, [r2, #0]
 8003a10:	4b4f      	ldr	r3, [pc, #316]	@ (8003b50 <main+0x7f8>)
 8003a12:	ed83 7a00 	vstr	s14, [r3]
 8003a16:	e009      	b.n	8003a2c <main+0x6d4>
 8003a18:	f888 7000 	strb.w	r7, [r8]
 8003a1c:	f7fe fa5e 	bl	8001edc <MPU6050_Calibrate>
 8003a20:	f7fe f940 	bl	8001ca4 <MPU6050_StartRead_DMA>
 8003a24:	e765      	b.n	80038f2 <main+0x59a>
 8003a26:	782b      	ldrb	r3, [r5, #0]
 8003a28:	2b00      	cmp	r3, #0
 8003a2a:	d191      	bne.n	8003950 <main+0x5f8>
 8003a2c:	4b4b      	ldr	r3, [pc, #300]	@ (8003b5c <main+0x804>)
 8003a2e:	7819      	ldrb	r1, [r3, #0]
 8003a30:	2900      	cmp	r1, #0
 8003a32:	d058      	beq.n	8003ae6 <main+0x78e>
 8003a34:	4b43      	ldr	r3, [pc, #268]	@ (8003b44 <main+0x7ec>)
 8003a36:	f9b3 1000 	ldrsh.w	r1, [r3]
 8003a3a:	4b43      	ldr	r3, [pc, #268]	@ (8003b48 <main+0x7f0>)
 8003a3c:	f9b3 0000 	ldrsh.w	r0, [r3]
 8003a40:	f7ff fb02 	bl	8003048 <MotorControl>
 8003a44:	4b4b      	ldr	r3, [pc, #300]	@ (8003b74 <main+0x81c>)
 8003a46:	781a      	ldrb	r2, [r3, #0]
 8003a48:	b35a      	cbz	r2, 8003aa2 <main+0x74a>
 8003a4a:	2200      	movs	r2, #0
 8003a4c:	701a      	strb	r2, [r3, #0]
 8003a4e:	f7fd fb03 	bl	8001058 <ESP01_Timeout10ms>
 8003a52:	f7fd fb1d 	bl	8001090 <ESP01_Task>
 8003a56:	783b      	ldrb	r3, [r7, #0]
 8003a58:	3b01      	subs	r3, #1
 8003a5a:	b2db      	uxtb	r3, r3
 8003a5c:	703b      	strb	r3, [r7, #0]
 8003a5e:	b95b      	cbnz	r3, 8003a78 <main+0x720>
 8003a60:	4853      	ldr	r0, [pc, #332]	@ (8003bb0 <main+0x858>)
 8003a62:	230a      	movs	r3, #10
 8003a64:	f44f 5100 	mov.w	r1, #8192	@ 0x2000
 8003a68:	703b      	strb	r3, [r7, #0]
 8003a6a:	f001 fd34 	bl	80054d6 <HAL_GPIO_TogglePin>
 8003a6e:	4851      	ldr	r0, [pc, #324]	@ (8003bb4 <main+0x85c>)
 8003a70:	f44f 6180 	mov.w	r1, #1024	@ 0x400
 8003a74:	f001 fd2f 	bl	80054d6 <HAL_GPIO_TogglePin>
 8003a78:	4a4f      	ldr	r2, [pc, #316]	@ (8003bb8 <main+0x860>)
 8003a7a:	7813      	ldrb	r3, [r2, #0]
 8003a7c:	3301      	adds	r3, #1
 8003a7e:	b2db      	uxtb	r3, r3
 8003a80:	2b13      	cmp	r3, #19
 8003a82:	7013      	strb	r3, [r2, #0]
 8003a84:	d906      	bls.n	8003a94 <main+0x73c>
 8003a86:	2300      	movs	r3, #0
 8003a88:	7013      	strb	r3, [r2, #0]
 8003a8a:	f7fe fb63 	bl	8002154 <UNER_ShouldSendAllSensors>
 8003a8e:	b108      	cbz	r0, 8003a94 <main+0x73c>
 8003a90:	f7fe ff4a 	bl	8002928 <UNER_SendAllSensors>
 8003a94:	f7ff fb14 	bl	80030c0 <UpdateADC_MovingAverage>
 8003a98:	f000 fbda 	bl	8004250 <SSD1306_IsUpdateDone>
 8003a9c:	b108      	cbz	r0, 8003aa2 <main+0x74a>
 8003a9e:	f7ff fb43 	bl	8003128 <updateDisplay>
 8003aa2:	f8df a0dc 	ldr.w	sl, [pc, #220]	@ 8003b80 <main+0x828>
 8003aa6:	4a35      	ldr	r2, [pc, #212]	@ (8003b7c <main+0x824>)
 8003aa8:	f8ba 3000 	ldrh.w	r3, [sl]
 8003aac:	8815      	ldrh	r5, [r2, #0]
 8003aae:	1aed      	subs	r5, r5, r3
 8003ab0:	f3c5 0508 	ubfx	r5, r5, #0, #9
 8003ab4:	2d00      	cmp	r5, #0
 8003ab6:	f040 8085 	bne.w	8003bc4 <main+0x86c>
 8003aba:	f8df a104 	ldr.w	sl, [pc, #260]	@ 8003bc0 <main+0x868>
 8003abe:	f7fe fe91 	bl	80027e4 <UNER_Task>
 8003ac2:	f7ff f901 	bl	8002cc8 <usb_service_tx>
 8003ac6:	f000 f8e7 	bl	8003c98 <SSD1306_UpdateScreen>
 8003aca:	f89a 3000 	ldrb.w	r3, [sl]
 8003ace:	2b00      	cmp	r3, #0
 8003ad0:	f43f af28 	beq.w	8003924 <main+0x5cc>
 8003ad4:	480b      	ldr	r0, [pc, #44]	@ (8003b04 <main+0x7ac>)
 8003ad6:	2364      	movs	r3, #100	@ 0x64
 8003ad8:	2201      	movs	r2, #1
 8003ada:	4651      	mov	r1, sl
 8003adc:	f004 ff37 	bl	800894e <HAL_UART_Transmit>
 8003ae0:	f88a 5000 	strb.w	r5, [sl]
 8003ae4:	e71e      	b.n	8003924 <main+0x5cc>
 8003ae6:	4608      	mov	r0, r1
 8003ae8:	e7aa      	b.n	8003a40 <main+0x6e8>
 8003aea:	bf00      	nop
 8003aec:	f3af 8000 	nop.w
 8003af0:	1a63c1f8 	.word	0x1a63c1f8
 8003af4:	404ca5dc 	.word	0x404ca5dc
 8003af8:	08002b19 	.word	0x08002b19
 8003afc:	20000b4c 	.word	0x20000b4c
 8003b00:	20000774 	.word	0x20000774
 8003b04:	20000b54 	.word	0x20000b54
 8003b08:	20000a2c 	.word	0x20000a2c
 8003b0c:	20000e78 	.word	0x20000e78
 8003b10:	20000cbc 	.word	0x20000cbc
 8003b14:	20000c74 	.word	0x20000c74
 8003b18:	20000b9c 	.word	0x20000b9c
 8003b1c:	20000018 	.word	0x20000018
 8003b20:	08002c05 	.word	0x08002c05
 8003b24:	08001c19 	.word	0x08001c19
 8003b28:	20000054 	.word	0x20000054
 8003b2c:	20000058 	.word	0x20000058
 8003b30:	20000564 	.word	0x20000564
 8003b34:	2000055c 	.word	0x2000055c
 8003b38:	20000674 	.word	0x20000674
 8003b3c:	20000574 	.word	0x20000574
 8003b40:	20000778 	.word	0x20000778
 8003b44:	200004d4 	.word	0x200004d4
 8003b48:	200004d6 	.word	0x200004d6
 8003b4c:	20000a3c 	.word	0x20000a3c
 8003b50:	20000a40 	.word	0x20000a40
 8003b54:	200004c4 	.word	0x200004c4
 8003b58:	200004c8 	.word	0x200004c8
 8003b5c:	2000004c 	.word	0x2000004c
 8003b60:	0800ca6c 	.word	0x0800ca6c
 8003b64:	0800be44 	.word	0x0800be44
 8003b68:	2000002c 	.word	0x2000002c
 8003b6c:	0800bba3 	.word	0x0800bba3
 8003b70:	20000b4f 	.word	0x20000b4f
 8003b74:	20000b4e 	.word	0x20000b4e
 8003b78:	20000b50 	.word	0x20000b50
 8003b7c:	200004da 	.word	0x200004da
 8003b80:	200004d8 	.word	0x200004d8
 8003b84:	42dc0000 	.word	0x42dc0000
 8003b88:	20000b4d 	.word	0x20000b4d
 8003b8c:	20000776 	.word	0x20000776
 8003b90:	20000a45 	.word	0x20000a45
 8003b94:	42c80000 	.word	0x42c80000
 8003b98:	200004cc 	.word	0x200004cc
 8003b9c:	3b03126f 	.word	0x3b03126f
 8003ba0:	3ca3d700 	.word	0x3ca3d700
 8003ba4:	3f7ae148 	.word	0x3f7ae148
 8003ba8:	00000000 	.word	0x00000000
 8003bac:	200004d0 	.word	0x200004d0
 8003bb0:	40020800 	.word	0x40020800
 8003bb4:	40020400 	.word	0x40020400
 8003bb8:	20000a46 	.word	0x20000a46
 8003bbc:	20000a44 	.word	0x20000a44
 8003bc0:	20000775 	.word	0x20000775
 8003bc4:	4a09      	ldr	r2, [pc, #36]	@ (8003bec <main+0x894>)
 8003bc6:	5cd5      	ldrb	r5, [r2, r3]
 8003bc8:	4a09      	ldr	r2, [pc, #36]	@ (8003bf0 <main+0x898>)
 8003bca:	3301      	adds	r3, #1
 8003bcc:	f3c3 0308 	ubfx	r3, r3, #0, #9
 8003bd0:	f8aa 3000 	strh.w	r3, [sl]
 8003bd4:	2106      	movs	r1, #6
 8003bd6:	462b      	mov	r3, r5
 8003bd8:	a813      	add	r0, sp, #76	@ 0x4c
 8003bda:	f006 ff19 	bl	800aa10 <sniprintf>
 8003bde:	a813      	add	r0, sp, #76	@ 0x4c
 8003be0:	f7ff f8eb 	bl	8002dba <USB_DebugStr>
 8003be4:	4628      	mov	r0, r5
 8003be6:	f7fe fa23 	bl	8002030 <UNER_PushByte>
 8003bea:	e75c      	b.n	8003aa6 <main+0x74e>
 8003bec:	200004dc 	.word	0x200004dc
 8003bf0:	0800bbe2 	.word	0x0800bbe2

08003bf4 <Error_Handler>:
 8003bf4:	b672      	cpsid	i
 8003bf6:	e7fe      	b.n	8003bf6 <Error_Handler+0x2>

08003bf8 <SSD1306_RegisterPlatform>:
 8003bf8:	4b01      	ldr	r3, [pc, #4]	@ (8003c00 <SSD1306_RegisterPlatform+0x8>)
 8003bfa:	6018      	str	r0, [r3, #0]
 8003bfc:	4770      	bx	lr
 8003bfe:	bf00      	nop
 8003c00:	200012cc 	.word	0x200012cc

08003c04 <SSD1306_Platform_Init>:
 8003c04:	4b02      	ldr	r3, [pc, #8]	@ (8003c10 <SSD1306_Platform_Init+0xc>)
 8003c06:	681b      	ldr	r3, [r3, #0]
 8003c08:	e9d3 0200 	ldrd	r0, r2, [r3]
 8003c0c:	4710      	bx	r2
 8003c0e:	bf00      	nop
 8003c10:	200012cc 	.word	0x200012cc

08003c14 <SSD1306_Platform_DelayMs>:
 8003c14:	4b02      	ldr	r3, [pc, #8]	@ (8003c20 <SSD1306_Platform_DelayMs+0xc>)
 8003c16:	681b      	ldr	r3, [r3, #0]
 8003c18:	4601      	mov	r1, r0
 8003c1a:	699a      	ldr	r2, [r3, #24]
 8003c1c:	6818      	ldr	r0, [r3, #0]
 8003c1e:	4710      	bx	r2
 8003c20:	200012cc 	.word	0x200012cc

08003c24 <SSD1306_Platform_IsBusy>:
 8003c24:	4b02      	ldr	r3, [pc, #8]	@ (8003c30 <SSD1306_Platform_IsBusy+0xc>)
 8003c26:	681b      	ldr	r3, [r3, #0]
 8003c28:	695a      	ldr	r2, [r3, #20]
 8003c2a:	6818      	ldr	r0, [r3, #0]
 8003c2c:	4710      	bx	r2
 8003c2e:	bf00      	nop
 8003c30:	200012cc 	.word	0x200012cc

08003c34 <SSD1306_Platform_WriteDataAsync>:
 8003c34:	4b05      	ldr	r3, [pc, #20]	@ (8003c4c <SSD1306_Platform_WriteDataAsync+0x18>)
 8003c36:	681b      	ldr	r3, [r3, #0]
 8003c38:	b410      	push	{r4}
 8003c3a:	691c      	ldr	r4, [r3, #16]
 8003c3c:	460a      	mov	r2, r1
 8003c3e:	4601      	mov	r1, r0
 8003c40:	6818      	ldr	r0, [r3, #0]
 8003c42:	4623      	mov	r3, r4
 8003c44:	f85d 4b04 	ldr.w	r4, [sp], #4
 8003c48:	4718      	bx	r3
 8003c4a:	bf00      	nop
 8003c4c:	200012cc 	.word	0x200012cc

08003c50 <SSD1306_UpdateScreen_Blocking>:
 8003c50:	b5f8      	push	{r3, r4, r5, r6, r7, lr}
 8003c52:	4e0f      	ldr	r6, [pc, #60]	@ (8003c90 <SSD1306_UpdateScreen_Blocking+0x40>)
 8003c54:	4d0f      	ldr	r5, [pc, #60]	@ (8003c94 <SSD1306_UpdateScreen_Blocking+0x44>)
 8003c56:	24b0      	movs	r4, #176	@ 0xb0
 8003c58:	682b      	ldr	r3, [r5, #0]
 8003c5a:	4621      	mov	r1, r4
 8003c5c:	689a      	ldr	r2, [r3, #8]
 8003c5e:	6818      	ldr	r0, [r3, #0]
 8003c60:	4790      	blx	r2
 8003c62:	682b      	ldr	r3, [r5, #0]
 8003c64:	2100      	movs	r1, #0
 8003c66:	689a      	ldr	r2, [r3, #8]
 8003c68:	6818      	ldr	r0, [r3, #0]
 8003c6a:	4790      	blx	r2
 8003c6c:	682b      	ldr	r3, [r5, #0]
 8003c6e:	2110      	movs	r1, #16
 8003c70:	689a      	ldr	r2, [r3, #8]
 8003c72:	6818      	ldr	r0, [r3, #0]
 8003c74:	4790      	blx	r2
 8003c76:	682b      	ldr	r3, [r5, #0]
 8003c78:	3401      	adds	r4, #1
 8003c7a:	4631      	mov	r1, r6
 8003c7c:	68df      	ldr	r7, [r3, #12]
 8003c7e:	6818      	ldr	r0, [r3, #0]
 8003c80:	2280      	movs	r2, #128	@ 0x80
 8003c82:	b2e4      	uxtb	r4, r4
 8003c84:	47b8      	blx	r7
 8003c86:	2cb8      	cmp	r4, #184	@ 0xb8
 8003c88:	f106 0680 	add.w	r6, r6, #128	@ 0x80
 8003c8c:	d1e4      	bne.n	8003c58 <SSD1306_UpdateScreen_Blocking+0x8>
 8003c8e:	bdf8      	pop	{r3, r4, r5, r6, r7, pc}
 8003c90:	20000ecc 	.word	0x20000ecc
 8003c94:	200012cc 	.word	0x200012cc

08003c98 <SSD1306_UpdateScreen>:
 8003c98:	e92d 41f0 	stmdb	sp!, {r4, r5, r6, r7, r8, lr}
 8003c9c:	4d34      	ldr	r5, [pc, #208]	@ (8003d70 <SSD1306_UpdateScreen+0xd8>)
 8003c9e:	782b      	ldrb	r3, [r5, #0]
 8003ca0:	b143      	cbz	r3, 8003cb4 <SSD1306_UpdateScreen+0x1c>
 8003ca2:	4b34      	ldr	r3, [pc, #208]	@ (8003d74 <SSD1306_UpdateScreen+0xdc>)
 8003ca4:	781b      	ldrb	r3, [r3, #0]
 8003ca6:	b12b      	cbz	r3, 8003cb4 <SSD1306_UpdateScreen+0x1c>
 8003ca8:	4b33      	ldr	r3, [pc, #204]	@ (8003d78 <SSD1306_UpdateScreen+0xe0>)
 8003caa:	781a      	ldrb	r2, [r3, #0]
 8003cac:	b912      	cbnz	r2, 8003cb4 <SSD1306_UpdateScreen+0x1c>
 8003cae:	702a      	strb	r2, [r5, #0]
 8003cb0:	2201      	movs	r2, #1
 8003cb2:	701a      	strb	r2, [r3, #0]
 8003cb4:	4c31      	ldr	r4, [pc, #196]	@ (8003d7c <SSD1306_UpdateScreen+0xe4>)
 8003cb6:	7823      	ldrb	r3, [r4, #0]
 8003cb8:	2b01      	cmp	r3, #1
 8003cba:	d00e      	beq.n	8003cda <SSD1306_UpdateScreen+0x42>
 8003cbc:	2b02      	cmp	r3, #2
 8003cbe:	d037      	beq.n	8003d30 <SSD1306_UpdateScreen+0x98>
 8003cc0:	2b00      	cmp	r3, #0
 8003cc2:	d12f      	bne.n	8003d24 <SSD1306_UpdateScreen+0x8c>
 8003cc4:	4a2c      	ldr	r2, [pc, #176]	@ (8003d78 <SSD1306_UpdateScreen+0xe0>)
 8003cc6:	7812      	ldrb	r2, [r2, #0]
 8003cc8:	b362      	cbz	r2, 8003d24 <SSD1306_UpdateScreen+0x8c>
 8003cca:	4a2d      	ldr	r2, [pc, #180]	@ (8003d80 <SSD1306_UpdateScreen+0xe8>)
 8003ccc:	7013      	strb	r3, [r2, #0]
 8003cce:	4a29      	ldr	r2, [pc, #164]	@ (8003d74 <SSD1306_UpdateScreen+0xdc>)
 8003cd0:	7013      	strb	r3, [r2, #0]
 8003cd2:	2201      	movs	r2, #1
 8003cd4:	7022      	strb	r2, [r4, #0]
 8003cd6:	4a2b      	ldr	r2, [pc, #172]	@ (8003d84 <SSD1306_UpdateScreen+0xec>)
 8003cd8:	7013      	strb	r3, [r2, #0]
 8003cda:	f7ff ffa3 	bl	8003c24 <SSD1306_Platform_IsBusy>
 8003cde:	4e29      	ldr	r6, [pc, #164]	@ (8003d84 <SSD1306_UpdateScreen+0xec>)
 8003ce0:	4605      	mov	r5, r0
 8003ce2:	bb08      	cbnz	r0, 8003d28 <SSD1306_UpdateScreen+0x90>
 8003ce4:	f8df 8098 	ldr.w	r8, [pc, #152]	@ 8003d80 <SSD1306_UpdateScreen+0xe8>
 8003ce8:	4f27      	ldr	r7, [pc, #156]	@ (8003d88 <SSD1306_UpdateScreen+0xf0>)
 8003cea:	f898 1000 	ldrb.w	r1, [r8]
 8003cee:	683b      	ldr	r3, [r7, #0]
 8003cf0:	3950      	subs	r1, #80	@ 0x50
 8003cf2:	689a      	ldr	r2, [r3, #8]
 8003cf4:	6818      	ldr	r0, [r3, #0]
 8003cf6:	b2c9      	uxtb	r1, r1
 8003cf8:	4790      	blx	r2
 8003cfa:	683b      	ldr	r3, [r7, #0]
 8003cfc:	4629      	mov	r1, r5
 8003cfe:	689a      	ldr	r2, [r3, #8]
 8003d00:	6818      	ldr	r0, [r3, #0]
 8003d02:	4790      	blx	r2
 8003d04:	683b      	ldr	r3, [r7, #0]
 8003d06:	2110      	movs	r1, #16
 8003d08:	689a      	ldr	r2, [r3, #8]
 8003d0a:	6818      	ldr	r0, [r3, #0]
 8003d0c:	4790      	blx	r2
 8003d0e:	4b1f      	ldr	r3, [pc, #124]	@ (8003d8c <SSD1306_UpdateScreen+0xf4>)
 8003d10:	f898 0000 	ldrb.w	r0, [r8]
 8003d14:	2180      	movs	r1, #128	@ 0x80
 8003d16:	eb03 10c0 	add.w	r0, r3, r0, lsl #7
 8003d1a:	f7ff ff8b 	bl	8003c34 <SSD1306_Platform_WriteDataAsync>
 8003d1e:	2302      	movs	r3, #2
 8003d20:	7023      	strb	r3, [r4, #0]
 8003d22:	7035      	strb	r5, [r6, #0]
 8003d24:	e8bd 81f0 	ldmia.w	sp!, {r4, r5, r6, r7, r8, pc}
 8003d28:	7833      	ldrb	r3, [r6, #0]
 8003d2a:	3301      	adds	r3, #1
 8003d2c:	7033      	strb	r3, [r6, #0]
 8003d2e:	e7f9      	b.n	8003d24 <SSD1306_UpdateScreen+0x8c>
 8003d30:	f7ff ff78 	bl	8003c24 <SSD1306_Platform_IsBusy>
 8003d34:	b9b8      	cbnz	r0, 8003d66 <SSD1306_UpdateScreen+0xce>
 8003d36:	4a12      	ldr	r2, [pc, #72]	@ (8003d80 <SSD1306_UpdateScreen+0xe8>)
 8003d38:	7813      	ldrb	r3, [r2, #0]
 8003d3a:	3301      	adds	r3, #1
 8003d3c:	b2db      	uxtb	r3, r3
 8003d3e:	2b07      	cmp	r3, #7
 8003d40:	7013      	strb	r3, [r2, #0]
 8003d42:	f04f 0301 	mov.w	r3, #1
 8003d46:	d803      	bhi.n	8003d50 <SSD1306_UpdateScreen+0xb8>
 8003d48:	7023      	strb	r3, [r4, #0]
 8003d4a:	4b0e      	ldr	r3, [pc, #56]	@ (8003d84 <SSD1306_UpdateScreen+0xec>)
 8003d4c:	7018      	strb	r0, [r3, #0]
 8003d4e:	e7e9      	b.n	8003d24 <SSD1306_UpdateScreen+0x8c>
 8003d50:	4a08      	ldr	r2, [pc, #32]	@ (8003d74 <SSD1306_UpdateScreen+0xdc>)
 8003d52:	7829      	ldrb	r1, [r5, #0]
 8003d54:	7013      	strb	r3, [r2, #0]
 8003d56:	4a08      	ldr	r2, [pc, #32]	@ (8003d78 <SSD1306_UpdateScreen+0xe0>)
 8003d58:	7020      	strb	r0, [r4, #0]
 8003d5a:	7010      	strb	r0, [r2, #0]
 8003d5c:	2900      	cmp	r1, #0
 8003d5e:	d0e1      	beq.n	8003d24 <SSD1306_UpdateScreen+0x8c>
 8003d60:	7028      	strb	r0, [r5, #0]
 8003d62:	7013      	strb	r3, [r2, #0]
 8003d64:	e7de      	b.n	8003d24 <SSD1306_UpdateScreen+0x8c>
 8003d66:	4a07      	ldr	r2, [pc, #28]	@ (8003d84 <SSD1306_UpdateScreen+0xec>)
 8003d68:	7813      	ldrb	r3, [r2, #0]
 8003d6a:	3301      	adds	r3, #1
 8003d6c:	e7f9      	b.n	8003d62 <SSD1306_UpdateScreen+0xca>
 8003d6e:	bf00      	nop
 8003d70:	20000eca 	.word	0x20000eca
 8003d74:	2000005c 	.word	0x2000005c
 8003d78:	20000ecb 	.word	0x20000ecb
 8003d7c:	20000ec2 	.word	0x20000ec2
 8003d80:	20000ec1 	.word	0x20000ec1
 8003d84:	20000ec0 	.word	0x20000ec0
 8003d88:	200012cc 	.word	0x200012cc
 8003d8c:	20000ecc 	.word	0x20000ecc

08003d90 <SSD1306_Fill>:
 8003d90:	2800      	cmp	r0, #0
 8003d92:	f44f 6280 	mov.w	r2, #1024	@ 0x400
 8003d96:	4803      	ldr	r0, [pc, #12]	@ (8003da4 <SSD1306_Fill+0x14>)
 8003d98:	bf14      	ite	ne
 8003d9a:	21ff      	movne	r1, #255	@ 0xff
 8003d9c:	2100      	moveq	r1, #0
 8003d9e:	f006 be8f 	b.w	800aac0 <memset>
 8003da2:	bf00      	nop
 8003da4:	20000ecc 	.word	0x20000ecc

08003da8 <SSD1306_Init>:
 8003da8:	b510      	push	{r4, lr}
 8003daa:	4c52      	ldr	r4, [pc, #328]	@ (8003ef4 <SSD1306_Init+0x14c>)
 8003dac:	f7ff ff2a 	bl	8003c04 <SSD1306_Platform_Init>
 8003db0:	200a      	movs	r0, #10
 8003db2:	f7ff ff2f 	bl	8003c14 <SSD1306_Platform_DelayMs>
 8003db6:	6823      	ldr	r3, [r4, #0]
 8003db8:	21ae      	movs	r1, #174	@ 0xae
 8003dba:	689a      	ldr	r2, [r3, #8]
 8003dbc:	6818      	ldr	r0, [r3, #0]
 8003dbe:	4790      	blx	r2
 8003dc0:	6823      	ldr	r3, [r4, #0]
 8003dc2:	2120      	movs	r1, #32
 8003dc4:	689a      	ldr	r2, [r3, #8]
 8003dc6:	6818      	ldr	r0, [r3, #0]
 8003dc8:	4790      	blx	r2
 8003dca:	6823      	ldr	r3, [r4, #0]
 8003dcc:	2110      	movs	r1, #16
 8003dce:	689a      	ldr	r2, [r3, #8]
 8003dd0:	6818      	ldr	r0, [r3, #0]
 8003dd2:	4790      	blx	r2
 8003dd4:	6823      	ldr	r3, [r4, #0]
 8003dd6:	21b0      	movs	r1, #176	@ 0xb0
 8003dd8:	689a      	ldr	r2, [r3, #8]
 8003dda:	6818      	ldr	r0, [r3, #0]
 8003ddc:	4790      	blx	r2
 8003dde:	6823      	ldr	r3, [r4, #0]
 8003de0:	21c8      	movs	r1, #200	@ 0xc8
 8003de2:	689a      	ldr	r2, [r3, #8]
 8003de4:	6818      	ldr	r0, [r3, #0]
 8003de6:	4790      	blx	r2
 8003de8:	6823      	ldr	r3, [r4, #0]
 8003dea:	2100      	movs	r1, #0
 8003dec:	689a      	ldr	r2, [r3, #8]
 8003dee:	6818      	ldr	r0, [r3, #0]
 8003df0:	4790      	blx	r2
 8003df2:	6823      	ldr	r3, [r4, #0]
 8003df4:	2110      	movs	r1, #16
 8003df6:	689a      	ldr	r2, [r3, #8]
 8003df8:	6818      	ldr	r0, [r3, #0]
 8003dfa:	4790      	blx	r2
 8003dfc:	6823      	ldr	r3, [r4, #0]
 8003dfe:	2140      	movs	r1, #64	@ 0x40
 8003e00:	689a      	ldr	r2, [r3, #8]
 8003e02:	6818      	ldr	r0, [r3, #0]
 8003e04:	4790      	blx	r2
 8003e06:	6823      	ldr	r3, [r4, #0]
 8003e08:	2181      	movs	r1, #129	@ 0x81
 8003e0a:	689a      	ldr	r2, [r3, #8]
 8003e0c:	6818      	ldr	r0, [r3, #0]
 8003e0e:	4790      	blx	r2
 8003e10:	6823      	ldr	r3, [r4, #0]
 8003e12:	21ff      	movs	r1, #255	@ 0xff
 8003e14:	689a      	ldr	r2, [r3, #8]
 8003e16:	6818      	ldr	r0, [r3, #0]
 8003e18:	4790      	blx	r2
 8003e1a:	6823      	ldr	r3, [r4, #0]
 8003e1c:	21a1      	movs	r1, #161	@ 0xa1
 8003e1e:	689a      	ldr	r2, [r3, #8]
 8003e20:	6818      	ldr	r0, [r3, #0]
 8003e22:	4790      	blx	r2
 8003e24:	6823      	ldr	r3, [r4, #0]
 8003e26:	21a6      	movs	r1, #166	@ 0xa6
 8003e28:	689a      	ldr	r2, [r3, #8]
 8003e2a:	6818      	ldr	r0, [r3, #0]
 8003e2c:	4790      	blx	r2
 8003e2e:	6823      	ldr	r3, [r4, #0]
 8003e30:	21a8      	movs	r1, #168	@ 0xa8
 8003e32:	689a      	ldr	r2, [r3, #8]
 8003e34:	6818      	ldr	r0, [r3, #0]
 8003e36:	4790      	blx	r2
 8003e38:	6823      	ldr	r3, [r4, #0]
 8003e3a:	213f      	movs	r1, #63	@ 0x3f
 8003e3c:	689a      	ldr	r2, [r3, #8]
 8003e3e:	6818      	ldr	r0, [r3, #0]
 8003e40:	4790      	blx	r2
 8003e42:	6823      	ldr	r3, [r4, #0]
 8003e44:	21a4      	movs	r1, #164	@ 0xa4
 8003e46:	689a      	ldr	r2, [r3, #8]
 8003e48:	6818      	ldr	r0, [r3, #0]
 8003e4a:	4790      	blx	r2
 8003e4c:	6823      	ldr	r3, [r4, #0]
 8003e4e:	21d3      	movs	r1, #211	@ 0xd3
 8003e50:	689a      	ldr	r2, [r3, #8]
 8003e52:	6818      	ldr	r0, [r3, #0]
 8003e54:	4790      	blx	r2
 8003e56:	6823      	ldr	r3, [r4, #0]
 8003e58:	2100      	movs	r1, #0
 8003e5a:	689a      	ldr	r2, [r3, #8]
 8003e5c:	6818      	ldr	r0, [r3, #0]
 8003e5e:	4790      	blx	r2
 8003e60:	6823      	ldr	r3, [r4, #0]
 8003e62:	21d5      	movs	r1, #213	@ 0xd5
 8003e64:	689a      	ldr	r2, [r3, #8]
 8003e66:	6818      	ldr	r0, [r3, #0]
 8003e68:	4790      	blx	r2
 8003e6a:	6823      	ldr	r3, [r4, #0]
 8003e6c:	21f0      	movs	r1, #240	@ 0xf0
 8003e6e:	689a      	ldr	r2, [r3, #8]
 8003e70:	6818      	ldr	r0, [r3, #0]
 8003e72:	4790      	blx	r2
 8003e74:	6823      	ldr	r3, [r4, #0]
 8003e76:	21d9      	movs	r1, #217	@ 0xd9
 8003e78:	689a      	ldr	r2, [r3, #8]
 8003e7a:	6818      	ldr	r0, [r3, #0]
 8003e7c:	4790      	blx	r2
 8003e7e:	6823      	ldr	r3, [r4, #0]
 8003e80:	2122      	movs	r1, #34	@ 0x22
 8003e82:	689a      	ldr	r2, [r3, #8]
 8003e84:	6818      	ldr	r0, [r3, #0]
 8003e86:	4790      	blx	r2
 8003e88:	6823      	ldr	r3, [r4, #0]
 8003e8a:	21da      	movs	r1, #218	@ 0xda
 8003e8c:	689a      	ldr	r2, [r3, #8]
 8003e8e:	6818      	ldr	r0, [r3, #0]
 8003e90:	4790      	blx	r2
 8003e92:	6823      	ldr	r3, [r4, #0]
 8003e94:	2112      	movs	r1, #18
 8003e96:	689a      	ldr	r2, [r3, #8]
 8003e98:	6818      	ldr	r0, [r3, #0]
 8003e9a:	4790      	blx	r2
 8003e9c:	6823      	ldr	r3, [r4, #0]
 8003e9e:	21db      	movs	r1, #219	@ 0xdb
 8003ea0:	689a      	ldr	r2, [r3, #8]
 8003ea2:	6818      	ldr	r0, [r3, #0]
 8003ea4:	4790      	blx	r2
 8003ea6:	6823      	ldr	r3, [r4, #0]
 8003ea8:	2120      	movs	r1, #32
 8003eaa:	689a      	ldr	r2, [r3, #8]
 8003eac:	6818      	ldr	r0, [r3, #0]
 8003eae:	4790      	blx	r2
 8003eb0:	6823      	ldr	r3, [r4, #0]
 8003eb2:	218d      	movs	r1, #141	@ 0x8d
 8003eb4:	689a      	ldr	r2, [r3, #8]
 8003eb6:	6818      	ldr	r0, [r3, #0]
 8003eb8:	4790      	blx	r2
 8003eba:	6823      	ldr	r3, [r4, #0]
 8003ebc:	2114      	movs	r1, #20
 8003ebe:	689a      	ldr	r2, [r3, #8]
 8003ec0:	6818      	ldr	r0, [r3, #0]
 8003ec2:	4790      	blx	r2
 8003ec4:	6823      	ldr	r3, [r4, #0]
 8003ec6:	21af      	movs	r1, #175	@ 0xaf
 8003ec8:	689a      	ldr	r2, [r3, #8]
 8003eca:	6818      	ldr	r0, [r3, #0]
 8003ecc:	4790      	blx	r2
 8003ece:	6823      	ldr	r3, [r4, #0]
 8003ed0:	212e      	movs	r1, #46	@ 0x2e
 8003ed2:	689a      	ldr	r2, [r3, #8]
 8003ed4:	6818      	ldr	r0, [r3, #0]
 8003ed6:	4790      	blx	r2
 8003ed8:	2000      	movs	r0, #0
 8003eda:	f7ff ff59 	bl	8003d90 <SSD1306_Fill>
 8003ede:	f7ff feb7 	bl	8003c50 <SSD1306_UpdateScreen_Blocking>
 8003ee2:	4b05      	ldr	r3, [pc, #20]	@ (8003ef8 <SSD1306_Init+0x150>)
 8003ee4:	2200      	movs	r2, #0
 8003ee6:	801a      	strh	r2, [r3, #0]
 8003ee8:	805a      	strh	r2, [r3, #2]
 8003eea:	f44f 7280 	mov.w	r2, #256	@ 0x100
 8003eee:	809a      	strh	r2, [r3, #4]
 8003ef0:	2001      	movs	r0, #1
 8003ef2:	bd10      	pop	{r4, pc}
 8003ef4:	200012cc 	.word	0x200012cc
 8003ef8:	20000ec4 	.word	0x20000ec4

08003efc <SSD1306_DrawPixel>:
 8003efc:	287f      	cmp	r0, #127	@ 0x7f
 8003efe:	b530      	push	{r4, r5, lr}
 8003f00:	d810      	bhi.n	8003f24 <SSD1306_DrawPixel+0x28>
 8003f02:	293f      	cmp	r1, #63	@ 0x3f
 8003f04:	d80e      	bhi.n	8003f24 <SSD1306_DrawPixel+0x28>
 8003f06:	4b0d      	ldr	r3, [pc, #52]	@ (8003f3c <SSD1306_DrawPixel+0x40>)
 8003f08:	4c0d      	ldr	r4, [pc, #52]	@ (8003f40 <SSD1306_DrawPixel+0x44>)
 8003f0a:	791d      	ldrb	r5, [r3, #4]
 8003f0c:	08cb      	lsrs	r3, r1, #3
 8003f0e:	f001 0107 	and.w	r1, r1, #7
 8003f12:	b145      	cbz	r5, 8003f26 <SSD1306_DrawPixel+0x2a>
 8003f14:	b94a      	cbnz	r2, 8003f2a <SSD1306_DrawPixel+0x2e>
 8003f16:	eb00 10c3 	add.w	r0, r0, r3, lsl #7
 8003f1a:	2301      	movs	r3, #1
 8003f1c:	5c22      	ldrb	r2, [r4, r0]
 8003f1e:	408b      	lsls	r3, r1
 8003f20:	4313      	orrs	r3, r2
 8003f22:	5423      	strb	r3, [r4, r0]
 8003f24:	bd30      	pop	{r4, r5, pc}
 8003f26:	2a01      	cmp	r2, #1
 8003f28:	d0f5      	beq.n	8003f16 <SSD1306_DrawPixel+0x1a>
 8003f2a:	eb00 10c3 	add.w	r0, r0, r3, lsl #7
 8003f2e:	2201      	movs	r2, #1
 8003f30:	5c23      	ldrb	r3, [r4, r0]
 8003f32:	408a      	lsls	r2, r1
 8003f34:	ea23 0302 	bic.w	r3, r3, r2
 8003f38:	e7f3      	b.n	8003f22 <SSD1306_DrawPixel+0x26>
 8003f3a:	bf00      	nop
 8003f3c:	20000ec4 	.word	0x20000ec4
 8003f40:	20000ecc 	.word	0x20000ecc

08003f44 <SSD1306_DrawBitmap>:
 8003f44:	e92d 4ff0 	stmdb	sp!, {r4, r5, r6, r7, r8, r9, sl, fp, lr}
 8003f48:	461d      	mov	r5, r3
 8003f4a:	b087      	sub	sp, #28
 8003f4c:	f115 0907 	adds.w	r9, r5, #7
 8003f50:	f04f 0600 	mov.w	r6, #0
 8003f54:	4692      	mov	sl, r2
 8003f56:	bf48      	it	mi
 8003f58:	f105 090e 	addmi.w	r9, r5, #14
 8003f5c:	f9bd 3040 	ldrsh.w	r3, [sp, #64]	@ 0x40
 8003f60:	f89d 2044 	ldrb.w	r2, [sp, #68]	@ 0x44
 8003f64:	9101      	str	r1, [sp, #4]
 8003f66:	4683      	mov	fp, r0
 8003f68:	ea4f 09e9 	mov.w	r9, r9, asr #3
 8003f6c:	4637      	mov	r7, r6
 8003f6e:	4634      	mov	r4, r6
 8003f70:	b239      	sxth	r1, r7
 8003f72:	428b      	cmp	r3, r1
 8003f74:	dd27      	ble.n	8003fc6 <SSD1306_DrawBitmap+0x82>
 8003f76:	eb0a 0106 	add.w	r1, sl, r6
 8003f7a:	9102      	str	r1, [sp, #8]
 8003f7c:	9901      	ldr	r1, [sp, #4]
 8003f7e:	4439      	add	r1, r7
 8003f80:	f04f 0800 	mov.w	r8, #0
 8003f84:	b289      	uxth	r1, r1
 8003f86:	e017      	b.n	8003fb8 <SSD1306_DrawBitmap+0x74>
 8003f88:	f010 0f07 	tst.w	r0, #7
 8003f8c:	bf05      	ittet	eq
 8003f8e:	9c02      	ldreq	r4, [sp, #8]
 8003f90:	10c0      	asreq	r0, r0, #3
 8003f92:	0064      	lslne	r4, r4, #1
 8003f94:	5c24      	ldrbeq	r4, [r4, r0]
 8003f96:	bf18      	it	ne
 8003f98:	b2e4      	uxtbne	r4, r4
 8003f9a:	0620      	lsls	r0, r4, #24
 8003f9c:	d50a      	bpl.n	8003fb4 <SSD1306_DrawBitmap+0x70>
 8003f9e:	eb0b 0008 	add.w	r0, fp, r8
 8003fa2:	b280      	uxth	r0, r0
 8003fa4:	e9cd 1203 	strd	r1, r2, [sp, #12]
 8003fa8:	9305      	str	r3, [sp, #20]
 8003faa:	f7ff ffa7 	bl	8003efc <SSD1306_DrawPixel>
 8003fae:	e9dd 2304 	ldrd	r2, r3, [sp, #16]
 8003fb2:	9903      	ldr	r1, [sp, #12]
 8003fb4:	f108 0801 	add.w	r8, r8, #1
 8003fb8:	fa0f f088 	sxth.w	r0, r8
 8003fbc:	4285      	cmp	r5, r0
 8003fbe:	dce3      	bgt.n	8003f88 <SSD1306_DrawBitmap+0x44>
 8003fc0:	3701      	adds	r7, #1
 8003fc2:	444e      	add	r6, r9
 8003fc4:	e7d4      	b.n	8003f70 <SSD1306_DrawBitmap+0x2c>
 8003fc6:	b007      	add	sp, #28
 8003fc8:	e8bd 8ff0 	ldmia.w	sp!, {r4, r5, r6, r7, r8, r9, sl, fp, pc}

08003fcc <SSD1306_GotoXY>:
 8003fcc:	4b01      	ldr	r3, [pc, #4]	@ (8003fd4 <SSD1306_GotoXY+0x8>)
 8003fce:	8018      	strh	r0, [r3, #0]
 8003fd0:	8059      	strh	r1, [r3, #2]
 8003fd2:	4770      	bx	lr
 8003fd4:	20000ec4 	.word	0x20000ec4

08003fd8 <SSD1306_Putc>:
 8003fd8:	e92d 4ff0 	stmdb	sp!, {r4, r5, r6, r7, r8, r9, sl, fp, lr}
 8003fdc:	f8df 9090 	ldr.w	r9, [pc, #144]	@ 8004070 <SSD1306_Putc+0x98>
 8003fe0:	b085      	sub	sp, #20
 8003fe2:	f8b9 6000 	ldrh.w	r6, [r9]
 8003fe6:	9201      	str	r2, [sp, #4]
 8003fe8:	780a      	ldrb	r2, [r1, #0]
 8003fea:	4432      	add	r2, r6
 8003fec:	2a7f      	cmp	r2, #127	@ 0x7f
 8003fee:	4605      	mov	r5, r0
 8003ff0:	460c      	mov	r4, r1
 8003ff2:	dc3b      	bgt.n	800406c <SSD1306_Putc+0x94>
 8003ff4:	f8b9 b002 	ldrh.w	fp, [r9, #2]
 8003ff8:	784a      	ldrb	r2, [r1, #1]
 8003ffa:	445a      	add	r2, fp
 8003ffc:	2a3f      	cmp	r2, #63	@ 0x3f
 8003ffe:	dc35      	bgt.n	800406c <SSD1306_Putc+0x94>
 8004000:	f1a0 0320 	sub.w	r3, r0, #32
 8004004:	2700      	movs	r7, #0
 8004006:	9303      	str	r3, [sp, #12]
 8004008:	7862      	ldrb	r2, [r4, #1]
 800400a:	4297      	cmp	r7, r2
 800400c:	d307      	bcc.n	800401e <SSD1306_Putc+0x46>
 800400e:	7822      	ldrb	r2, [r4, #0]
 8004010:	4416      	add	r6, r2
 8004012:	f8a9 6000 	strh.w	r6, [r9]
 8004016:	4628      	mov	r0, r5
 8004018:	b005      	add	sp, #20
 800401a:	e8bd 8ff0 	ldmia.w	sp!, {r4, r5, r6, r7, r8, r9, sl, fp, pc}
 800401e:	9b03      	ldr	r3, [sp, #12]
 8004020:	6861      	ldr	r1, [r4, #4]
 8004022:	fb02 7203 	mla	r2, r2, r3, r7
 8004026:	eb0b 0a07 	add.w	sl, fp, r7
 800402a:	f831 3012 	ldrh.w	r3, [r1, r2, lsl #1]
 800402e:	9302      	str	r3, [sp, #8]
 8004030:	f04f 0800 	mov.w	r8, #0
 8004034:	fa1f fa8a 	uxth.w	sl, sl
 8004038:	7822      	ldrb	r2, [r4, #0]
 800403a:	4590      	cmp	r8, r2
 800403c:	d301      	bcc.n	8004042 <SSD1306_Putc+0x6a>
 800403e:	3701      	adds	r7, #1
 8004040:	e7e2      	b.n	8004008 <SSD1306_Putc+0x30>
 8004042:	9b02      	ldr	r3, [sp, #8]
 8004044:	fa03 f208 	lsl.w	r2, r3, r8
 8004048:	0413      	lsls	r3, r2, #16
 800404a:	bf54      	ite	pl
 800404c:	9b01      	ldrpl	r3, [sp, #4]
 800404e:	9a01      	ldrmi	r2, [sp, #4]
 8004050:	eb06 0008 	add.w	r0, r6, r8
 8004054:	bf58      	it	pl
 8004056:	fab3 f283 	clzpl	r2, r3
 800405a:	b280      	uxth	r0, r0
 800405c:	bf58      	it	pl
 800405e:	0952      	lsrpl	r2, r2, #5
 8004060:	4651      	mov	r1, sl
 8004062:	f7ff ff4b 	bl	8003efc <SSD1306_DrawPixel>
 8004066:	f108 0801 	add.w	r8, r8, #1
 800406a:	e7e5      	b.n	8004038 <SSD1306_Putc+0x60>
 800406c:	2500      	movs	r5, #0
 800406e:	e7d2      	b.n	8004016 <SSD1306_Putc+0x3e>
 8004070:	20000ec4 	.word	0x20000ec4

08004074 <SSD1306_Puts>:
 8004074:	b570      	push	{r4, r5, r6, lr}
 8004076:	460d      	mov	r5, r1
 8004078:	4616      	mov	r6, r2
 800407a:	1e44      	subs	r4, r0, #1
 800407c:	f814 0f01 	ldrb.w	r0, [r4, #1]!
 8004080:	b138      	cbz	r0, 8004092 <SSD1306_Puts+0x1e>
 8004082:	4632      	mov	r2, r6
 8004084:	4629      	mov	r1, r5
 8004086:	f7ff ffa7 	bl	8003fd8 <SSD1306_Putc>
 800408a:	4603      	mov	r3, r0
 800408c:	7820      	ldrb	r0, [r4, #0]
 800408e:	4283      	cmp	r3, r0
 8004090:	d0f4      	beq.n	800407c <SSD1306_Puts+0x8>
 8004092:	bd70      	pop	{r4, r5, r6, pc}

08004094 <SSD1306_DrawLine>:
 8004094:	e92d 4ff0 	stmdb	sp!, {r4, r5, r6, r7, r8, r9, sl, fp, lr}
 8004098:	287f      	cmp	r0, #127	@ 0x7f
 800409a:	bf28      	it	cs
 800409c:	207f      	movcs	r0, #127	@ 0x7f
 800409e:	2a7f      	cmp	r2, #127	@ 0x7f
 80040a0:	bf28      	it	cs
 80040a2:	227f      	movcs	r2, #127	@ 0x7f
 80040a4:	293f      	cmp	r1, #63	@ 0x3f
 80040a6:	bf28      	it	cs
 80040a8:	213f      	movcs	r1, #63	@ 0x3f
 80040aa:	b085      	sub	sp, #20
 80040ac:	2b3f      	cmp	r3, #63	@ 0x3f
 80040ae:	bf28      	it	cs
 80040b0:	233f      	movcs	r3, #63	@ 0x3f
 80040b2:	4290      	cmp	r0, r2
 80040b4:	f89d 4038 	ldrb.w	r4, [sp, #56]	@ 0x38
 80040b8:	9401      	str	r4, [sp, #4]
 80040ba:	bf34      	ite	cc
 80040bc:	eba2 0900 	subcc.w	r9, r2, r0
 80040c0:	eba0 0902 	subcs.w	r9, r0, r2
 80040c4:	4299      	cmp	r1, r3
 80040c6:	4606      	mov	r6, r0
 80040c8:	4614      	mov	r4, r2
 80040ca:	460f      	mov	r7, r1
 80040cc:	461d      	mov	r5, r3
 80040ce:	fa0f f989 	sxth.w	r9, r9
 80040d2:	d229      	bcs.n	8004128 <SSD1306_DrawLine+0x94>
 80040d4:	eba3 0a01 	sub.w	sl, r3, r1
 80040d8:	4290      	cmp	r0, r2
 80040da:	fa0f fa8a 	sxth.w	sl, sl
 80040de:	d22e      	bcs.n	800413e <SSD1306_DrawLine+0xaa>
 80040e0:	f04f 0b01 	mov.w	fp, #1
 80040e4:	2301      	movs	r3, #1
 80040e6:	45d1      	cmp	r9, sl
 80040e8:	bfdb      	ittet	le
 80040ea:	eb0a 78da 	addle.w	r8, sl, sl, lsr #31
 80040ee:	ea4f 0868 	movle.w	r8, r8, asr #1
 80040f2:	eb09 78d9 	addgt.w	r8, r9, r9, lsr #31
 80040f6:	f1c8 0800 	rsble	r8, r8, #0
 80040fa:	bfcc      	ite	gt
 80040fc:	ea4f 0868 	movgt.w	r8, r8, asr #1
 8004100:	fa0f f888 	sxthle.w	r8, r8
 8004104:	f1b9 0f00 	cmp.w	r9, #0
 8004108:	d127      	bne.n	800415a <SSD1306_DrawLine+0xc6>
 800410a:	42af      	cmp	r7, r5
 800410c:	bf9e      	ittt	ls
 800410e:	462b      	movls	r3, r5
 8004110:	463d      	movls	r5, r7
 8004112:	461f      	movls	r7, r3
 8004114:	42b4      	cmp	r4, r6
 8004116:	bf28      	it	cs
 8004118:	4634      	movcs	r4, r6
 800411a:	b2a4      	uxth	r4, r4
 800411c:	b22d      	sxth	r5, r5
 800411e:	42bd      	cmp	r5, r7
 8004120:	dd13      	ble.n	800414a <SSD1306_DrawLine+0xb6>
 8004122:	b005      	add	sp, #20
 8004124:	e8bd 8ff0 	ldmia.w	sp!, {r4, r5, r6, r7, r8, r9, sl, fp, pc}
 8004128:	eba1 0a03 	sub.w	sl, r1, r3
 800412c:	4290      	cmp	r0, r2
 800412e:	fa0f fa8a 	sxth.w	sl, sl
 8004132:	d307      	bcc.n	8004144 <SSD1306_DrawLine+0xb0>
 8004134:	f04f 3bff 	mov.w	fp, #4294967295
 8004138:	f04f 33ff 	mov.w	r3, #4294967295
 800413c:	e7d3      	b.n	80040e6 <SSD1306_DrawLine+0x52>
 800413e:	f04f 3bff 	mov.w	fp, #4294967295
 8004142:	e7cf      	b.n	80040e4 <SSD1306_DrawLine+0x50>
 8004144:	f04f 0b01 	mov.w	fp, #1
 8004148:	e7f6      	b.n	8004138 <SSD1306_DrawLine+0xa4>
 800414a:	b2ad      	uxth	r5, r5
 800414c:	4629      	mov	r1, r5
 800414e:	9a01      	ldr	r2, [sp, #4]
 8004150:	4620      	mov	r0, r4
 8004152:	f7ff fed3 	bl	8003efc <SSD1306_DrawPixel>
 8004156:	3501      	adds	r5, #1
 8004158:	e7e0      	b.n	800411c <SSD1306_DrawLine+0x88>
 800415a:	f1ba 0f00 	cmp.w	sl, #0
 800415e:	d01f      	beq.n	80041a0 <SSD1306_DrawLine+0x10c>
 8004160:	f1c9 0200 	rsb	r2, r9, #0
 8004164:	9202      	str	r2, [sp, #8]
 8004166:	9a01      	ldr	r2, [sp, #4]
 8004168:	9303      	str	r3, [sp, #12]
 800416a:	4639      	mov	r1, r7
 800416c:	4630      	mov	r0, r6
 800416e:	f7ff fec5 	bl	8003efc <SSD1306_DrawPixel>
 8004172:	42a6      	cmp	r6, r4
 8004174:	9b03      	ldr	r3, [sp, #12]
 8004176:	d101      	bne.n	800417c <SSD1306_DrawLine+0xe8>
 8004178:	42af      	cmp	r7, r5
 800417a:	d0d2      	beq.n	8004122 <SSD1306_DrawLine+0x8e>
 800417c:	9a02      	ldr	r2, [sp, #8]
 800417e:	4590      	cmp	r8, r2
 8004180:	bfc1      	itttt	gt
 8004182:	eba8 020a 	subgt.w	r2, r8, sl
 8004186:	445e      	addgt	r6, fp
 8004188:	b212      	sxthgt	r2, r2
 800418a:	b2b6      	uxthgt	r6, r6
 800418c:	bfd8      	it	le
 800418e:	4642      	movle	r2, r8
 8004190:	45d0      	cmp	r8, sl
 8004192:	da03      	bge.n	800419c <SSD1306_DrawLine+0x108>
 8004194:	444a      	add	r2, r9
 8004196:	441f      	add	r7, r3
 8004198:	b212      	sxth	r2, r2
 800419a:	b2bf      	uxth	r7, r7
 800419c:	4690      	mov	r8, r2
 800419e:	e7e2      	b.n	8004166 <SSD1306_DrawLine+0xd2>
 80041a0:	42bd      	cmp	r5, r7
 80041a2:	bf28      	it	cs
 80041a4:	463d      	movcs	r5, r7
 80041a6:	42a6      	cmp	r6, r4
 80041a8:	b2ad      	uxth	r5, r5
 80041aa:	d802      	bhi.n	80041b2 <SSD1306_DrawLine+0x11e>
 80041ac:	4623      	mov	r3, r4
 80041ae:	4634      	mov	r4, r6
 80041b0:	461e      	mov	r6, r3
 80041b2:	b224      	sxth	r4, r4
 80041b4:	42b4      	cmp	r4, r6
 80041b6:	dcb4      	bgt.n	8004122 <SSD1306_DrawLine+0x8e>
 80041b8:	b2a4      	uxth	r4, r4
 80041ba:	4620      	mov	r0, r4
 80041bc:	9a01      	ldr	r2, [sp, #4]
 80041be:	4629      	mov	r1, r5
 80041c0:	f7ff fe9c 	bl	8003efc <SSD1306_DrawPixel>
 80041c4:	3401      	adds	r4, #1
 80041c6:	e7f4      	b.n	80041b2 <SSD1306_DrawLine+0x11e>

080041c8 <SSD1306_DrawFilledRectangle>:
 80041c8:	e92d 43f7 	stmdb	sp!, {r0, r1, r2, r4, r5, r6, r7, r8, r9, lr}
 80041cc:	287f      	cmp	r0, #127	@ 0x7f
 80041ce:	f89d 8028 	ldrb.w	r8, [sp, #40]	@ 0x28
 80041d2:	4606      	mov	r6, r0
 80041d4:	460f      	mov	r7, r1
 80041d6:	461d      	mov	r5, r3
 80041d8:	d824      	bhi.n	8004224 <SSD1306_DrawFilledRectangle+0x5c>
 80041da:	293f      	cmp	r1, #63	@ 0x3f
 80041dc:	d822      	bhi.n	8004224 <SSD1306_DrawFilledRectangle+0x5c>
 80041de:	1883      	adds	r3, r0, r2
 80041e0:	2b7f      	cmp	r3, #127	@ 0x7f
 80041e2:	bfc8      	it	gt
 80041e4:	f1c0 0280 	rsbgt	r2, r0, #128	@ 0x80
 80041e8:	eb01 0305 	add.w	r3, r1, r5
 80041ec:	bfc8      	it	gt
 80041ee:	b292      	uxthgt	r2, r2
 80041f0:	2b3f      	cmp	r3, #63	@ 0x3f
 80041f2:	bfc8      	it	gt
 80041f4:	f1c1 0540 	rsbgt	r5, r1, #64	@ 0x40
 80041f8:	4402      	add	r2, r0
 80041fa:	bfc8      	it	gt
 80041fc:	b2ad      	uxthgt	r5, r5
 80041fe:	f04f 0900 	mov.w	r9, #0
 8004202:	b294      	uxth	r4, r2
 8004204:	eb07 0309 	add.w	r3, r7, r9
 8004208:	b29b      	uxth	r3, r3
 800420a:	4619      	mov	r1, r3
 800420c:	f8cd 8000 	str.w	r8, [sp]
 8004210:	4622      	mov	r2, r4
 8004212:	4630      	mov	r0, r6
 8004214:	f109 0901 	add.w	r9, r9, #1
 8004218:	f7ff ff3c 	bl	8004094 <SSD1306_DrawLine>
 800421c:	fa1f f389 	uxth.w	r3, r9
 8004220:	429d      	cmp	r5, r3
 8004222:	d2ef      	bcs.n	8004204 <SSD1306_DrawFilledRectangle+0x3c>
 8004224:	b003      	add	sp, #12
 8004226:	e8bd 83f0 	ldmia.w	sp!, {r4, r5, r6, r7, r8, r9, pc}
	...

0800422c <SSD1306_RequestUpdate>:
 800422c:	4b05      	ldr	r3, [pc, #20]	@ (8004244 <SSD1306_RequestUpdate+0x18>)
 800422e:	781b      	ldrb	r3, [r3, #0]
 8004230:	b12b      	cbz	r3, 800423e <SSD1306_RequestUpdate+0x12>
 8004232:	4b05      	ldr	r3, [pc, #20]	@ (8004248 <SSD1306_RequestUpdate+0x1c>)
 8004234:	781a      	ldrb	r2, [r3, #0]
 8004236:	b912      	cbnz	r2, 800423e <SSD1306_RequestUpdate+0x12>
 8004238:	2201      	movs	r2, #1
 800423a:	701a      	strb	r2, [r3, #0]
 800423c:	4770      	bx	lr
 800423e:	4b03      	ldr	r3, [pc, #12]	@ (800424c <SSD1306_RequestUpdate+0x20>)
 8004240:	e7fa      	b.n	8004238 <SSD1306_RequestUpdate+0xc>
 8004242:	bf00      	nop
 8004244:	2000005c 	.word	0x2000005c
 8004248:	20000ecb 	.word	0x20000ecb
 800424c:	20000eca 	.word	0x20000eca

08004250 <SSD1306_IsUpdateDone>:
 8004250:	4b01      	ldr	r3, [pc, #4]	@ (8004258 <SSD1306_IsUpdateDone+0x8>)
 8004252:	7818      	ldrb	r0, [r3, #0]
 8004254:	4770      	bx	lr
 8004256:	bf00      	nop
 8004258:	2000005c 	.word	0x2000005c

0800425c <SSD1306_ResetUpdateState>:
 800425c:	4b04      	ldr	r3, [pc, #16]	@ (8004270 <SSD1306_ResetUpdateState+0x14>)
 800425e:	2201      	movs	r2, #1
 8004260:	701a      	strb	r2, [r3, #0]
 8004262:	4a04      	ldr	r2, [pc, #16]	@ (8004274 <SSD1306_ResetUpdateState+0x18>)
 8004264:	2300      	movs	r3, #0
 8004266:	7013      	strb	r3, [r2, #0]
 8004268:	4a03      	ldr	r2, [pc, #12]	@ (8004278 <SSD1306_ResetUpdateState+0x1c>)
 800426a:	7013      	strb	r3, [r2, #0]
 800426c:	4770      	bx	lr
 800426e:	bf00      	nop
 8004270:	2000005c 	.word	0x2000005c
 8004274:	20000ecb 	.word	0x20000ecb
 8004278:	20000eca 	.word	0x20000eca

0800427c <SSD1306_DrawDigit5x7>:
 800427c:	2809      	cmp	r0, #9
 800427e:	e92d 4ff7 	stmdb	sp!, {r0, r1, r2, r4, r5, r6, r7, r8, r9, sl, fp, lr}
 8004282:	460f      	mov	r7, r1
 8004284:	4690      	mov	r8, r2
 8004286:	d80a      	bhi.n	800429e <SSD1306_DrawDigit5x7+0x22>
 8004288:	4c14      	ldr	r4, [pc, #80]	@ (80042dc <SSD1306_DrawDigit5x7+0x60>)
 800428a:	f8df a054 	ldr.w	sl, [pc, #84]	@ 80042e0 <SSD1306_DrawDigit5x7+0x64>
 800428e:	7826      	ldrb	r6, [r4, #0]
 8004290:	2500      	movs	r5, #0
 8004292:	fb16 f600 	smulbb	r6, r6, r0
 8004296:	7822      	ldrb	r2, [r4, #0]
 8004298:	b2eb      	uxtb	r3, r5
 800429a:	429a      	cmp	r2, r3
 800429c:	d802      	bhi.n	80042a4 <SSD1306_DrawDigit5x7+0x28>
 800429e:	b003      	add	sp, #12
 80042a0:	e8bd 8ff0 	ldmia.w	sp!, {r4, r5, r6, r7, r8, r9, sl, fp, pc}
 80042a4:	18f2      	adds	r2, r6, r3
 80042a6:	443b      	add	r3, r7
 80042a8:	f81a b002 	ldrb.w	fp, [sl, r2]
 80042ac:	f04f 0900 	mov.w	r9, #0
 80042b0:	b298      	uxth	r0, r3
 80042b2:	7863      	ldrb	r3, [r4, #1]
 80042b4:	fa5f f189 	uxtb.w	r1, r9
 80042b8:	428b      	cmp	r3, r1
 80042ba:	d801      	bhi.n	80042c0 <SSD1306_DrawDigit5x7+0x44>
 80042bc:	3501      	adds	r5, #1
 80042be:	e7ea      	b.n	8004296 <SSD1306_DrawDigit5x7+0x1a>
 80042c0:	fa4b f301 	asr.w	r3, fp, r1
 80042c4:	07db      	lsls	r3, r3, #31
 80042c6:	d506      	bpl.n	80042d6 <SSD1306_DrawDigit5x7+0x5a>
 80042c8:	4441      	add	r1, r8
 80042ca:	2201      	movs	r2, #1
 80042cc:	b289      	uxth	r1, r1
 80042ce:	9001      	str	r0, [sp, #4]
 80042d0:	f7ff fe14 	bl	8003efc <SSD1306_DrawPixel>
 80042d4:	9801      	ldr	r0, [sp, #4]
 80042d6:	f109 0901 	add.w	r9, r9, #1
 80042da:	e7ea      	b.n	80042b2 <SSD1306_DrawDigit5x7+0x36>
 80042dc:	20000008 	.word	0x20000008
 80042e0:	0800c244 	.word	0x0800c244

080042e4 <HAL_MspInit>:
 80042e4:	b082      	sub	sp, #8
 80042e6:	4b0c      	ldr	r3, [pc, #48]	@ (8004318 <HAL_MspInit+0x34>)
 80042e8:	2100      	movs	r1, #0
 80042ea:	9100      	str	r1, [sp, #0]
 80042ec:	6c5a      	ldr	r2, [r3, #68]	@ 0x44
 80042ee:	f442 4280 	orr.w	r2, r2, #16384	@ 0x4000
 80042f2:	645a      	str	r2, [r3, #68]	@ 0x44
 80042f4:	6c5a      	ldr	r2, [r3, #68]	@ 0x44
 80042f6:	f402 4280 	and.w	r2, r2, #16384	@ 0x4000
 80042fa:	9200      	str	r2, [sp, #0]
 80042fc:	9a00      	ldr	r2, [sp, #0]
 80042fe:	9101      	str	r1, [sp, #4]
 8004300:	6c1a      	ldr	r2, [r3, #64]	@ 0x40
 8004302:	f042 5280 	orr.w	r2, r2, #268435456	@ 0x10000000
 8004306:	641a      	str	r2, [r3, #64]	@ 0x40
 8004308:	6c1b      	ldr	r3, [r3, #64]	@ 0x40
 800430a:	f003 5380 	and.w	r3, r3, #268435456	@ 0x10000000
 800430e:	9301      	str	r3, [sp, #4]
 8004310:	9b01      	ldr	r3, [sp, #4]
 8004312:	b002      	add	sp, #8
 8004314:	4770      	bx	lr
 8004316:	bf00      	nop
 8004318:	40023800 	.word	0x40023800

0800431c <HAL_ADC_MspInit>:
 800431c:	b570      	push	{r4, r5, r6, lr}
 800431e:	4606      	mov	r6, r0
 8004320:	b088      	sub	sp, #32
 8004322:	2214      	movs	r2, #20
 8004324:	2100      	movs	r1, #0
 8004326:	a803      	add	r0, sp, #12
 8004328:	f006 fbca 	bl	800aac0 <memset>
 800432c:	6832      	ldr	r2, [r6, #0]
 800432e:	4b2d      	ldr	r3, [pc, #180]	@ (80043e4 <HAL_ADC_MspInit+0xc8>)
 8004330:	429a      	cmp	r2, r3
 8004332:	d154      	bne.n	80043de <HAL_ADC_MspInit+0xc2>
 8004334:	f503 338c 	add.w	r3, r3, #71680	@ 0x11800
 8004338:	2500      	movs	r5, #0
 800433a:	9500      	str	r5, [sp, #0]
 800433c:	6c5a      	ldr	r2, [r3, #68]	@ 0x44
 800433e:	482a      	ldr	r0, [pc, #168]	@ (80043e8 <HAL_ADC_MspInit+0xcc>)
 8004340:	f442 7280 	orr.w	r2, r2, #256	@ 0x100
 8004344:	645a      	str	r2, [r3, #68]	@ 0x44
 8004346:	6c5a      	ldr	r2, [r3, #68]	@ 0x44
 8004348:	f402 7280 	and.w	r2, r2, #256	@ 0x100
 800434c:	9200      	str	r2, [sp, #0]
 800434e:	9a00      	ldr	r2, [sp, #0]
 8004350:	9501      	str	r5, [sp, #4]
 8004352:	6b1a      	ldr	r2, [r3, #48]	@ 0x30
 8004354:	f042 0201 	orr.w	r2, r2, #1
 8004358:	631a      	str	r2, [r3, #48]	@ 0x30
 800435a:	6b1a      	ldr	r2, [r3, #48]	@ 0x30
 800435c:	f002 0201 	and.w	r2, r2, #1
 8004360:	9201      	str	r2, [sp, #4]
 8004362:	9a01      	ldr	r2, [sp, #4]
 8004364:	9502      	str	r5, [sp, #8]
 8004366:	6b1a      	ldr	r2, [r3, #48]	@ 0x30
 8004368:	f042 0202 	orr.w	r2, r2, #2
 800436c:	631a      	str	r2, [r3, #48]	@ 0x30
 800436e:	6b1b      	ldr	r3, [r3, #48]	@ 0x30
 8004370:	f003 0302 	and.w	r3, r3, #2
 8004374:	9302      	str	r3, [sp, #8]
 8004376:	2403      	movs	r4, #3
 8004378:	9b02      	ldr	r3, [sp, #8]
 800437a:	a903      	add	r1, sp, #12
 800437c:	23fe      	movs	r3, #254	@ 0xfe
 800437e:	e9cd 3403 	strd	r3, r4, [sp, #12]
 8004382:	f000 ffdd 	bl	8005340 <HAL_GPIO_Init>
 8004386:	2301      	movs	r3, #1
 8004388:	4818      	ldr	r0, [pc, #96]	@ (80043ec <HAL_ADC_MspInit+0xd0>)
 800438a:	9505      	str	r5, [sp, #20]
 800438c:	a903      	add	r1, sp, #12
 800438e:	e9cd 3403 	strd	r3, r4, [sp, #12]
 8004392:	f000 ffd5 	bl	8005340 <HAL_GPIO_Init>
 8004396:	4c16      	ldr	r4, [pc, #88]	@ (80043f0 <HAL_ADC_MspInit+0xd4>)
 8004398:	4b16      	ldr	r3, [pc, #88]	@ (80043f4 <HAL_ADC_MspInit+0xd8>)
 800439a:	f44f 6280 	mov.w	r2, #1024	@ 0x400
 800439e:	e9c4 3500 	strd	r3, r5, [r4]
 80043a2:	f44f 6300 	mov.w	r3, #2048	@ 0x800
 80043a6:	e9c4 2304 	strd	r2, r3, [r4, #16]
 80043aa:	f44f 5100 	mov.w	r1, #8192	@ 0x2000
 80043ae:	f44f 7380 	mov.w	r3, #256	@ 0x100
 80043b2:	4620      	mov	r0, r4
 80043b4:	e9c4 5502 	strd	r5, r5, [r4, #8]
 80043b8:	e9c4 1306 	strd	r1, r3, [r4, #24]
 80043bc:	e9c4 5508 	strd	r5, r5, [r4, #32]
 80043c0:	f000 fdf2 	bl	8004fa8 <HAL_DMA_Init>
 80043c4:	b108      	cbz	r0, 80043ca <HAL_ADC_MspInit+0xae>
 80043c6:	f7ff fc15 	bl	8003bf4 <Error_Handler>
 80043ca:	2200      	movs	r2, #0
 80043cc:	63b4      	str	r4, [r6, #56]	@ 0x38
 80043ce:	2012      	movs	r0, #18
 80043d0:	4611      	mov	r1, r2
 80043d2:	63a6      	str	r6, [r4, #56]	@ 0x38
 80043d4:	f000 fd7e 	bl	8004ed4 <HAL_NVIC_SetPriority>
 80043d8:	2012      	movs	r0, #18
 80043da:	f000 fdad 	bl	8004f38 <HAL_NVIC_EnableIRQ>
 80043de:	b008      	add	sp, #32
 80043e0:	bd70      	pop	{r4, r5, r6, pc}
 80043e2:	bf00      	nop
 80043e4:	40012000 	.word	0x40012000
 80043e8:	40020000 	.word	0x40020000
 80043ec:	40020400 	.word	0x40020400
 80043f0:	20000e18 	.word	0x20000e18
 80043f4:	40026410 	.word	0x40026410

080043f8 <HAL_I2C_MspInit>:
 80043f8:	b570      	push	{r4, r5, r6, lr}
 80043fa:	4606      	mov	r6, r0
 80043fc:	b088      	sub	sp, #32
 80043fe:	2214      	movs	r2, #20
 8004400:	2100      	movs	r1, #0
 8004402:	a803      	add	r0, sp, #12
 8004404:	f006 fb5c 	bl	800aac0 <memset>
 8004408:	6832      	ldr	r2, [r6, #0]
 800440a:	4b34      	ldr	r3, [pc, #208]	@ (80044dc <HAL_I2C_MspInit+0xe4>)
 800440c:	429a      	cmp	r2, r3
 800440e:	d163      	bne.n	80044d8 <HAL_I2C_MspInit+0xe0>
 8004410:	4c33      	ldr	r4, [pc, #204]	@ (80044e0 <HAL_I2C_MspInit+0xe8>)
 8004412:	2500      	movs	r5, #0
 8004414:	9501      	str	r5, [sp, #4]
 8004416:	6b23      	ldr	r3, [r4, #48]	@ 0x30
 8004418:	f043 0302 	orr.w	r3, r3, #2
 800441c:	6323      	str	r3, [r4, #48]	@ 0x30
 800441e:	6b23      	ldr	r3, [r4, #48]	@ 0x30
 8004420:	f003 0302 	and.w	r3, r3, #2
 8004424:	9301      	str	r3, [sp, #4]
 8004426:	9b01      	ldr	r3, [sp, #4]
 8004428:	f44f 7140 	mov.w	r1, #768	@ 0x300
 800442c:	2312      	movs	r3, #18
 800442e:	e9cd 1303 	strd	r1, r3, [sp, #12]
 8004432:	2003      	movs	r0, #3
 8004434:	2304      	movs	r3, #4
 8004436:	e9cd 0306 	strd	r0, r3, [sp, #24]
 800443a:	a903      	add	r1, sp, #12
 800443c:	4829      	ldr	r0, [pc, #164]	@ (80044e4 <HAL_I2C_MspInit+0xec>)
 800443e:	f000 ff7f 	bl	8005340 <HAL_GPIO_Init>
 8004442:	9502      	str	r5, [sp, #8]
 8004444:	6c23      	ldr	r3, [r4, #64]	@ 0x40
 8004446:	f8df c0ac 	ldr.w	ip, [pc, #172]	@ 80044f4 <HAL_I2C_MspInit+0xfc>
 800444a:	f443 1300 	orr.w	r3, r3, #2097152	@ 0x200000
 800444e:	6423      	str	r3, [r4, #64]	@ 0x40
 8004450:	6c23      	ldr	r3, [r4, #64]	@ 0x40
 8004452:	4c25      	ldr	r4, [pc, #148]	@ (80044e8 <HAL_I2C_MspInit+0xf0>)
 8004454:	f403 1300 	and.w	r3, r3, #2097152	@ 0x200000
 8004458:	9302      	str	r3, [sp, #8]
 800445a:	9b02      	ldr	r3, [sp, #8]
 800445c:	f04f 7300 	mov.w	r3, #33554432	@ 0x2000000
 8004460:	e9c4 c300 	strd	ip, r3, [r4]
 8004464:	4620      	mov	r0, r4
 8004466:	f44f 6380 	mov.w	r3, #1024	@ 0x400
 800446a:	e9c4 5502 	strd	r5, r5, [r4, #8]
 800446e:	e9c4 3504 	strd	r3, r5, [r4, #16]
 8004472:	e9c4 5506 	strd	r5, r5, [r4, #24]
 8004476:	e9c4 5508 	strd	r5, r5, [r4, #32]
 800447a:	f000 fd95 	bl	8004fa8 <HAL_DMA_Init>
 800447e:	b108      	cbz	r0, 8004484 <HAL_I2C_MspInit+0x8c>
 8004480:	f7ff fbb8 	bl	8003bf4 <Error_Handler>
 8004484:	4a19      	ldr	r2, [pc, #100]	@ (80044ec <HAL_I2C_MspInit+0xf4>)
 8004486:	63b4      	str	r4, [r6, #56]	@ 0x38
 8004488:	63a6      	str	r6, [r4, #56]	@ 0x38
 800448a:	4c19      	ldr	r4, [pc, #100]	@ (80044f0 <HAL_I2C_MspInit+0xf8>)
 800448c:	2300      	movs	r3, #0
 800448e:	e9c4 2300 	strd	r2, r3, [r4]
 8004492:	2240      	movs	r2, #64	@ 0x40
 8004494:	e9c4 2302 	strd	r2, r3, [r4, #8]
 8004498:	4620      	mov	r0, r4
 800449a:	f44f 6280 	mov.w	r2, #1024	@ 0x400
 800449e:	e9c4 2304 	strd	r2, r3, [r4, #16]
 80044a2:	e9c4 3306 	strd	r3, r3, [r4, #24]
 80044a6:	e9c4 3308 	strd	r3, r3, [r4, #32]
 80044aa:	f000 fd7d 	bl	8004fa8 <HAL_DMA_Init>
 80044ae:	b108      	cbz	r0, 80044b4 <HAL_I2C_MspInit+0xbc>
 80044b0:	f7ff fba0 	bl	8003bf4 <Error_Handler>
 80044b4:	2200      	movs	r2, #0
 80044b6:	4611      	mov	r1, r2
 80044b8:	6374      	str	r4, [r6, #52]	@ 0x34
 80044ba:	201f      	movs	r0, #31
 80044bc:	63a6      	str	r6, [r4, #56]	@ 0x38
 80044be:	f000 fd09 	bl	8004ed4 <HAL_NVIC_SetPriority>
 80044c2:	201f      	movs	r0, #31
 80044c4:	f000 fd38 	bl	8004f38 <HAL_NVIC_EnableIRQ>
 80044c8:	2200      	movs	r2, #0
 80044ca:	2020      	movs	r0, #32
 80044cc:	4611      	mov	r1, r2
 80044ce:	f000 fd01 	bl	8004ed4 <HAL_NVIC_SetPriority>
 80044d2:	2020      	movs	r0, #32
 80044d4:	f000 fd30 	bl	8004f38 <HAL_NVIC_EnableIRQ>
 80044d8:	b008      	add	sp, #32
 80044da:	bd70      	pop	{r4, r5, r6, pc}
 80044dc:	40005400 	.word	0x40005400
 80044e0:	40023800 	.word	0x40023800
 80044e4:	40020400 	.word	0x40020400
 80044e8:	20000d64 	.word	0x20000d64
 80044ec:	40026028 	.word	0x40026028
 80044f0:	20000d04 	.word	0x20000d04
 80044f4:	40026010 	.word	0x40026010

080044f8 <HAL_TIM_Base_MspInit>:
 80044f8:	b51f      	push	{r0, r1, r2, r3, r4, lr}
 80044fa:	6803      	ldr	r3, [r0, #0]
 80044fc:	4a39      	ldr	r2, [pc, #228]	@ (80045e4 <HAL_TIM_Base_MspInit+0xec>)
 80044fe:	4293      	cmp	r3, r2
 8004500:	d12e      	bne.n	8004560 <HAL_TIM_Base_MspInit+0x68>
 8004502:	2400      	movs	r4, #0
 8004504:	4b38      	ldr	r3, [pc, #224]	@ (80045e8 <HAL_TIM_Base_MspInit+0xf0>)
 8004506:	9400      	str	r4, [sp, #0]
 8004508:	6c5a      	ldr	r2, [r3, #68]	@ 0x44
 800450a:	f042 0201 	orr.w	r2, r2, #1
 800450e:	645a      	str	r2, [r3, #68]	@ 0x44
 8004510:	6c5b      	ldr	r3, [r3, #68]	@ 0x44
 8004512:	f003 0301 	and.w	r3, r3, #1
 8004516:	4622      	mov	r2, r4
 8004518:	4621      	mov	r1, r4
 800451a:	9300      	str	r3, [sp, #0]
 800451c:	2018      	movs	r0, #24
 800451e:	9b00      	ldr	r3, [sp, #0]
 8004520:	f000 fcd8 	bl	8004ed4 <HAL_NVIC_SetPriority>
 8004524:	2018      	movs	r0, #24
 8004526:	f000 fd07 	bl	8004f38 <HAL_NVIC_EnableIRQ>
 800452a:	4622      	mov	r2, r4
 800452c:	4621      	mov	r1, r4
 800452e:	2019      	movs	r0, #25
 8004530:	f000 fcd0 	bl	8004ed4 <HAL_NVIC_SetPriority>
 8004534:	2019      	movs	r0, #25
 8004536:	f000 fcff 	bl	8004f38 <HAL_NVIC_EnableIRQ>
 800453a:	4622      	mov	r2, r4
 800453c:	4621      	mov	r1, r4
 800453e:	201a      	movs	r0, #26
 8004540:	f000 fcc8 	bl	8004ed4 <HAL_NVIC_SetPriority>
 8004544:	201a      	movs	r0, #26
 8004546:	f000 fcf7 	bl	8004f38 <HAL_NVIC_EnableIRQ>
 800454a:	201b      	movs	r0, #27
 800454c:	4622      	mov	r2, r4
 800454e:	4621      	mov	r1, r4
 8004550:	f000 fcc0 	bl	8004ed4 <HAL_NVIC_SetPriority>
 8004554:	201b      	movs	r0, #27
 8004556:	b004      	add	sp, #16
 8004558:	e8bd 4010 	ldmia.w	sp!, {r4, lr}
 800455c:	f000 bcec 	b.w	8004f38 <HAL_NVIC_EnableIRQ>
 8004560:	f1b3 4f80 	cmp.w	r3, #1073741824	@ 0x40000000
 8004564:	d112      	bne.n	800458c <HAL_TIM_Base_MspInit+0x94>
 8004566:	2200      	movs	r2, #0
 8004568:	f503 330e 	add.w	r3, r3, #145408	@ 0x23800
 800456c:	9201      	str	r2, [sp, #4]
 800456e:	6c19      	ldr	r1, [r3, #64]	@ 0x40
 8004570:	f041 0101 	orr.w	r1, r1, #1
 8004574:	6419      	str	r1, [r3, #64]	@ 0x40
 8004576:	6c1b      	ldr	r3, [r3, #64]	@ 0x40
 8004578:	f003 0301 	and.w	r3, r3, #1
 800457c:	9301      	str	r3, [sp, #4]
 800457e:	201c      	movs	r0, #28
 8004580:	4611      	mov	r1, r2
 8004582:	9b01      	ldr	r3, [sp, #4]
 8004584:	f000 fca6 	bl	8004ed4 <HAL_NVIC_SetPriority>
 8004588:	201c      	movs	r0, #28
 800458a:	e7e4      	b.n	8004556 <HAL_TIM_Base_MspInit+0x5e>
 800458c:	4a17      	ldr	r2, [pc, #92]	@ (80045ec <HAL_TIM_Base_MspInit+0xf4>)
 800458e:	4293      	cmp	r3, r2
 8004590:	d111      	bne.n	80045b6 <HAL_TIM_Base_MspInit+0xbe>
 8004592:	4b15      	ldr	r3, [pc, #84]	@ (80045e8 <HAL_TIM_Base_MspInit+0xf0>)
 8004594:	2200      	movs	r2, #0
 8004596:	9202      	str	r2, [sp, #8]
 8004598:	6c19      	ldr	r1, [r3, #64]	@ 0x40
 800459a:	f041 0102 	orr.w	r1, r1, #2
 800459e:	6419      	str	r1, [r3, #64]	@ 0x40
 80045a0:	6c1b      	ldr	r3, [r3, #64]	@ 0x40
 80045a2:	f003 0302 	and.w	r3, r3, #2
 80045a6:	9302      	str	r3, [sp, #8]
 80045a8:	201d      	movs	r0, #29
 80045aa:	4611      	mov	r1, r2
 80045ac:	9b02      	ldr	r3, [sp, #8]
 80045ae:	f000 fc91 	bl	8004ed4 <HAL_NVIC_SetPriority>
 80045b2:	201d      	movs	r0, #29
 80045b4:	e7cf      	b.n	8004556 <HAL_TIM_Base_MspInit+0x5e>
 80045b6:	4a0e      	ldr	r2, [pc, #56]	@ (80045f0 <HAL_TIM_Base_MspInit+0xf8>)
 80045b8:	4293      	cmp	r3, r2
 80045ba:	d111      	bne.n	80045e0 <HAL_TIM_Base_MspInit+0xe8>
 80045bc:	4b0a      	ldr	r3, [pc, #40]	@ (80045e8 <HAL_TIM_Base_MspInit+0xf0>)
 80045be:	2200      	movs	r2, #0
 80045c0:	9203      	str	r2, [sp, #12]
 80045c2:	6c19      	ldr	r1, [r3, #64]	@ 0x40
 80045c4:	f041 0108 	orr.w	r1, r1, #8
 80045c8:	6419      	str	r1, [r3, #64]	@ 0x40
 80045ca:	6c1b      	ldr	r3, [r3, #64]	@ 0x40
 80045cc:	f003 0308 	and.w	r3, r3, #8
 80045d0:	9303      	str	r3, [sp, #12]
 80045d2:	2032      	movs	r0, #50	@ 0x32
 80045d4:	4611      	mov	r1, r2
 80045d6:	9b03      	ldr	r3, [sp, #12]
 80045d8:	f000 fc7c 	bl	8004ed4 <HAL_NVIC_SetPriority>
 80045dc:	2032      	movs	r0, #50	@ 0x32
 80045de:	e7ba      	b.n	8004556 <HAL_TIM_Base_MspInit+0x5e>
 80045e0:	b004      	add	sp, #16
 80045e2:	bd10      	pop	{r4, pc}
 80045e4:	40010000 	.word	0x40010000
 80045e8:	40023800 	.word	0x40023800
 80045ec:	40000400 	.word	0x40000400
 80045f0:	40000c00 	.word	0x40000c00

080045f4 <HAL_TIM_PWM_MspInit>:
 80045f4:	b507      	push	{r0, r1, r2, lr}
 80045f6:	4b0f      	ldr	r3, [pc, #60]	@ (8004634 <HAL_TIM_PWM_MspInit+0x40>)
 80045f8:	6802      	ldr	r2, [r0, #0]
 80045fa:	429a      	cmp	r2, r3
 80045fc:	d116      	bne.n	800462c <HAL_TIM_PWM_MspInit+0x38>
 80045fe:	2200      	movs	r2, #0
 8004600:	f503 330c 	add.w	r3, r3, #143360	@ 0x23000
 8004604:	9201      	str	r2, [sp, #4]
 8004606:	6c19      	ldr	r1, [r3, #64]	@ 0x40
 8004608:	f041 0104 	orr.w	r1, r1, #4
 800460c:	6419      	str	r1, [r3, #64]	@ 0x40
 800460e:	6c1b      	ldr	r3, [r3, #64]	@ 0x40
 8004610:	f003 0304 	and.w	r3, r3, #4
 8004614:	9301      	str	r3, [sp, #4]
 8004616:	4611      	mov	r1, r2
 8004618:	201e      	movs	r0, #30
 800461a:	9b01      	ldr	r3, [sp, #4]
 800461c:	f000 fc5a 	bl	8004ed4 <HAL_NVIC_SetPriority>
 8004620:	201e      	movs	r0, #30
 8004622:	b003      	add	sp, #12
 8004624:	f85d eb04 	ldr.w	lr, [sp], #4
 8004628:	f000 bc86 	b.w	8004f38 <HAL_NVIC_EnableIRQ>
 800462c:	b003      	add	sp, #12
 800462e:	f85d fb04 	ldr.w	pc, [sp], #4
 8004632:	bf00      	nop
 8004634:	40000800 	.word	0x40000800

08004638 <HAL_TIM_MspPostInit>:
 8004638:	b510      	push	{r4, lr}
 800463a:	4604      	mov	r4, r0
 800463c:	b088      	sub	sp, #32
 800463e:	2214      	movs	r2, #20
 8004640:	2100      	movs	r1, #0
 8004642:	a803      	add	r0, sp, #12
 8004644:	f006 fa3c 	bl	800aac0 <memset>
 8004648:	6823      	ldr	r3, [r4, #0]
 800464a:	4a15      	ldr	r2, [pc, #84]	@ (80046a0 <HAL_TIM_MspPostInit+0x68>)
 800464c:	4293      	cmp	r3, r2
 800464e:	d116      	bne.n	800467e <HAL_TIM_MspPostInit+0x46>
 8004650:	2300      	movs	r3, #0
 8004652:	9301      	str	r3, [sp, #4]
 8004654:	4b13      	ldr	r3, [pc, #76]	@ (80046a4 <HAL_TIM_MspPostInit+0x6c>)
 8004656:	6b1a      	ldr	r2, [r3, #48]	@ 0x30
 8004658:	f042 0202 	orr.w	r2, r2, #2
 800465c:	631a      	str	r2, [r3, #48]	@ 0x30
 800465e:	6b1b      	ldr	r3, [r3, #48]	@ 0x30
 8004660:	f003 0302 	and.w	r3, r3, #2
 8004664:	9301      	str	r3, [sp, #4]
 8004666:	9b01      	ldr	r3, [sp, #4]
 8004668:	2330      	movs	r3, #48	@ 0x30
 800466a:	9303      	str	r3, [sp, #12]
 800466c:	480e      	ldr	r0, [pc, #56]	@ (80046a8 <HAL_TIM_MspPostInit+0x70>)
 800466e:	2302      	movs	r3, #2
 8004670:	a903      	add	r1, sp, #12
 8004672:	9304      	str	r3, [sp, #16]
 8004674:	9307      	str	r3, [sp, #28]
 8004676:	f000 fe63 	bl	8005340 <HAL_GPIO_Init>
 800467a:	b008      	add	sp, #32
 800467c:	bd10      	pop	{r4, pc}
 800467e:	4a0b      	ldr	r2, [pc, #44]	@ (80046ac <HAL_TIM_MspPostInit+0x74>)
 8004680:	4293      	cmp	r3, r2
 8004682:	d1fa      	bne.n	800467a <HAL_TIM_MspPostInit+0x42>
 8004684:	2300      	movs	r3, #0
 8004686:	9302      	str	r3, [sp, #8]
 8004688:	4b06      	ldr	r3, [pc, #24]	@ (80046a4 <HAL_TIM_MspPostInit+0x6c>)
 800468a:	6b1a      	ldr	r2, [r3, #48]	@ 0x30
 800468c:	f042 0202 	orr.w	r2, r2, #2
 8004690:	631a      	str	r2, [r3, #48]	@ 0x30
 8004692:	6b1b      	ldr	r3, [r3, #48]	@ 0x30
 8004694:	f003 0302 	and.w	r3, r3, #2
 8004698:	9302      	str	r3, [sp, #8]
 800469a:	9b02      	ldr	r3, [sp, #8]
 800469c:	23c0      	movs	r3, #192	@ 0xc0
 800469e:	e7e4      	b.n	800466a <HAL_TIM_MspPostInit+0x32>
 80046a0:	40000400 	.word	0x40000400
 80046a4:	40023800 	.word	0x40023800
 80046a8:	40020400 	.word	0x40020400
 80046ac:	40000800 	.word	0x40000800

080046b0 <HAL_UART_MspInit>:
 80046b0:	b510      	push	{r4, lr}
 80046b2:	4604      	mov	r4, r0
 80046b4:	b088      	sub	sp, #32
 80046b6:	2214      	movs	r2, #20
 80046b8:	2100      	movs	r1, #0
 80046ba:	a803      	add	r0, sp, #12
 80046bc:	f006 fa00 	bl	800aac0 <memset>
 80046c0:	6822      	ldr	r2, [r4, #0]
 80046c2:	4b18      	ldr	r3, [pc, #96]	@ (8004724 <HAL_UART_MspInit+0x74>)
 80046c4:	429a      	cmp	r2, r3
 80046c6:	d12b      	bne.n	8004720 <HAL_UART_MspInit+0x70>
 80046c8:	f503 3394 	add.w	r3, r3, #75776	@ 0x12800
 80046cc:	2400      	movs	r4, #0
 80046ce:	9401      	str	r4, [sp, #4]
 80046d0:	6c5a      	ldr	r2, [r3, #68]	@ 0x44
 80046d2:	4815      	ldr	r0, [pc, #84]	@ (8004728 <HAL_UART_MspInit+0x78>)
 80046d4:	f042 0210 	orr.w	r2, r2, #16
 80046d8:	645a      	str	r2, [r3, #68]	@ 0x44
 80046da:	6c5a      	ldr	r2, [r3, #68]	@ 0x44
 80046dc:	f002 0210 	and.w	r2, r2, #16
 80046e0:	9201      	str	r2, [sp, #4]
 80046e2:	9a01      	ldr	r2, [sp, #4]
 80046e4:	9402      	str	r4, [sp, #8]
 80046e6:	6b1a      	ldr	r2, [r3, #48]	@ 0x30
 80046e8:	f042 0201 	orr.w	r2, r2, #1
 80046ec:	631a      	str	r2, [r3, #48]	@ 0x30
 80046ee:	6b1b      	ldr	r3, [r3, #48]	@ 0x30
 80046f0:	f003 0301 	and.w	r3, r3, #1
 80046f4:	9302      	str	r3, [sp, #8]
 80046f6:	f44f 62c0 	mov.w	r2, #1536	@ 0x600
 80046fa:	9b02      	ldr	r3, [sp, #8]
 80046fc:	2302      	movs	r3, #2
 80046fe:	e9cd 2303 	strd	r2, r3, [sp, #12]
 8004702:	2103      	movs	r1, #3
 8004704:	2307      	movs	r3, #7
 8004706:	e9cd 1306 	strd	r1, r3, [sp, #24]
 800470a:	a903      	add	r1, sp, #12
 800470c:	f000 fe18 	bl	8005340 <HAL_GPIO_Init>
 8004710:	2025      	movs	r0, #37	@ 0x25
 8004712:	4622      	mov	r2, r4
 8004714:	4621      	mov	r1, r4
 8004716:	f000 fbdd 	bl	8004ed4 <HAL_NVIC_SetPriority>
 800471a:	2025      	movs	r0, #37	@ 0x25
 800471c:	f000 fc0c 	bl	8004f38 <HAL_NVIC_EnableIRQ>
 8004720:	b008      	add	sp, #32
 8004722:	bd10      	pop	{r4, pc}
 8004724:	40011000 	.word	0x40011000
 8004728:	40020000 	.word	0x40020000

0800472c <NMI_Handler>:
 800472c:	e7fe      	b.n	800472c <NMI_Handler>

0800472e <HardFault_Handler>:
 800472e:	e7fe      	b.n	800472e <HardFault_Handler>

08004730 <MemManage_Handler>:
 8004730:	e7fe      	b.n	8004730 <MemManage_Handler>

08004732 <BusFault_Handler>:
 8004732:	e7fe      	b.n	8004732 <BusFault_Handler>

08004734 <UsageFault_Handler>:
 8004734:	e7fe      	b.n	8004734 <UsageFault_Handler>

08004736 <SVC_Handler>:
 8004736:	4770      	bx	lr

08004738 <DebugMon_Handler>:
 8004738:	4770      	bx	lr

0800473a <PendSV_Handler>:
 800473a:	4770      	bx	lr

0800473c <SysTick_Handler>:
 800473c:	f000 b8e6 	b.w	800490c <HAL_IncTick>

08004740 <DMA1_Stream0_IRQHandler>:
 8004740:	4801      	ldr	r0, [pc, #4]	@ (8004748 <DMA1_Stream0_IRQHandler+0x8>)
 8004742:	f000 bd39 	b.w	80051b8 <HAL_DMA_IRQHandler>
 8004746:	bf00      	nop
 8004748:	20000d64 	.word	0x20000d64

0800474c <DMA1_Stream1_IRQHandler>:
 800474c:	4801      	ldr	r0, [pc, #4]	@ (8004754 <DMA1_Stream1_IRQHandler+0x8>)
 800474e:	f000 bd33 	b.w	80051b8 <HAL_DMA_IRQHandler>
 8004752:	bf00      	nop
 8004754:	20000d04 	.word	0x20000d04

08004758 <ADC_IRQHandler>:
 8004758:	4801      	ldr	r0, [pc, #4]	@ (8004760 <ADC_IRQHandler+0x8>)
 800475a:	f000 ba3c 	b.w	8004bd6 <HAL_ADC_IRQHandler>
 800475e:	bf00      	nop
 8004760:	20000e78 	.word	0x20000e78

08004764 <TIM1_BRK_TIM9_IRQHandler>:
 8004764:	4801      	ldr	r0, [pc, #4]	@ (800476c <TIM1_BRK_TIM9_IRQHandler+0x8>)
 8004766:	f003 bd13 	b.w	8008190 <HAL_TIM_IRQHandler>
 800476a:	bf00      	nop
 800476c:	20000cbc 	.word	0x20000cbc

08004770 <TIM1_UP_TIM10_IRQHandler>:
 8004770:	f7ff bff8 	b.w	8004764 <TIM1_BRK_TIM9_IRQHandler>

08004774 <TIM1_TRG_COM_TIM11_IRQHandler>:
 8004774:	f7ff bff6 	b.w	8004764 <TIM1_BRK_TIM9_IRQHandler>

08004778 <TIM1_CC_IRQHandler>:
 8004778:	f7ff bff4 	b.w	8004764 <TIM1_BRK_TIM9_IRQHandler>

0800477c <TIM2_IRQHandler>:
 800477c:	4801      	ldr	r0, [pc, #4]	@ (8004784 <TIM2_IRQHandler+0x8>)
 800477e:	f003 bd07 	b.w	8008190 <HAL_TIM_IRQHandler>
 8004782:	bf00      	nop
 8004784:	20000c74 	.word	0x20000c74

08004788 <TIM3_IRQHandler>:
 8004788:	4801      	ldr	r0, [pc, #4]	@ (8004790 <TIM3_IRQHandler+0x8>)
 800478a:	f003 bd01 	b.w	8008190 <HAL_TIM_IRQHandler>
 800478e:	bf00      	nop
 8004790:	20000c2c 	.word	0x20000c2c

08004794 <TIM4_IRQHandler>:
 8004794:	4801      	ldr	r0, [pc, #4]	@ (800479c <TIM4_IRQHandler+0x8>)
 8004796:	f003 bcfb 	b.w	8008190 <HAL_TIM_IRQHandler>
 800479a:	bf00      	nop
 800479c:	20000be4 	.word	0x20000be4

080047a0 <I2C1_EV_IRQHandler>:
 80047a0:	4801      	ldr	r0, [pc, #4]	@ (80047a8 <I2C1_EV_IRQHandler+0x8>)
 80047a2:	f001 bf63 	b.w	800666c <HAL_I2C_EV_IRQHandler>
 80047a6:	bf00      	nop
 80047a8:	20000dc4 	.word	0x20000dc4

080047ac <I2C1_ER_IRQHandler>:
 80047ac:	4801      	ldr	r0, [pc, #4]	@ (80047b4 <I2C1_ER_IRQHandler+0x8>)
 80047ae:	f002 bbad 	b.w	8006f0c <HAL_I2C_ER_IRQHandler>
 80047b2:	bf00      	nop
 80047b4:	20000dc4 	.word	0x20000dc4

080047b8 <USART1_IRQHandler>:
 80047b8:	4801      	ldr	r0, [pc, #4]	@ (80047c0 <USART1_IRQHandler+0x8>)
 80047ba:	f004 b97b 	b.w	8008ab4 <HAL_UART_IRQHandler>
 80047be:	bf00      	nop
 80047c0:	20000b54 	.word	0x20000b54

080047c4 <TIM5_IRQHandler>:
 80047c4:	4801      	ldr	r0, [pc, #4]	@ (80047cc <TIM5_IRQHandler+0x8>)
 80047c6:	f003 bce3 	b.w	8008190 <HAL_TIM_IRQHandler>
 80047ca:	bf00      	nop
 80047cc:	20000b9c 	.word	0x20000b9c

080047d0 <DMA2_Stream0_IRQHandler>:
 80047d0:	4801      	ldr	r0, [pc, #4]	@ (80047d8 <DMA2_Stream0_IRQHandler+0x8>)
 80047d2:	f000 bcf1 	b.w	80051b8 <HAL_DMA_IRQHandler>
 80047d6:	bf00      	nop
 80047d8:	20000e18 	.word	0x20000e18

080047dc <OTG_FS_IRQHandler>:
 80047dc:	4801      	ldr	r0, [pc, #4]	@ (80047e4 <OTG_FS_IRQHandler+0x8>)
 80047de:	f002 bdf7 	b.w	80073d0 <HAL_PCD_IRQHandler>
 80047e2:	bf00      	nop
 80047e4:	200029dc 	.word	0x200029dc

080047e8 <_sbrk>:
 80047e8:	4a0b      	ldr	r2, [pc, #44]	@ (8004818 <_sbrk+0x30>)
 80047ea:	6811      	ldr	r1, [r2, #0]
 80047ec:	b510      	push	{r4, lr}
 80047ee:	4603      	mov	r3, r0
 80047f0:	b909      	cbnz	r1, 80047f6 <_sbrk+0xe>
 80047f2:	490a      	ldr	r1, [pc, #40]	@ (800481c <_sbrk+0x34>)
 80047f4:	6011      	str	r1, [r2, #0]
 80047f6:	6810      	ldr	r0, [r2, #0]
 80047f8:	4909      	ldr	r1, [pc, #36]	@ (8004820 <_sbrk+0x38>)
 80047fa:	4c0a      	ldr	r4, [pc, #40]	@ (8004824 <_sbrk+0x3c>)
 80047fc:	4403      	add	r3, r0
 80047fe:	1b09      	subs	r1, r1, r4
 8004800:	428b      	cmp	r3, r1
 8004802:	d906      	bls.n	8004812 <_sbrk+0x2a>
 8004804:	f006 f964 	bl	800aad0 <__errno>
 8004808:	230c      	movs	r3, #12
 800480a:	6003      	str	r3, [r0, #0]
 800480c:	f04f 30ff 	mov.w	r0, #4294967295
 8004810:	bd10      	pop	{r4, pc}
 8004812:	6013      	str	r3, [r2, #0]
 8004814:	e7fc      	b.n	8004810 <_sbrk+0x28>
 8004816:	bf00      	nop
 8004818:	200012d0 	.word	0x200012d0
 800481c:	20003008 	.word	0x20003008
 8004820:	20020000 	.word	0x20020000
 8004824:	00000400 	.word	0x00000400

08004828 <SystemInit>:
 8004828:	4a03      	ldr	r2, [pc, #12]	@ (8004838 <SystemInit+0x10>)
 800482a:	f8d2 3088 	ldr.w	r3, [r2, #136]	@ 0x88
 800482e:	f443 0370 	orr.w	r3, r3, #15728640	@ 0xf00000
 8004832:	f8c2 3088 	str.w	r3, [r2, #136]	@ 0x88
 8004836:	4770      	bx	lr
 8004838:	e000ed00 	.word	0xe000ed00

0800483c <Reset_Handler>:
 800483c:	f8df d034 	ldr.w	sp, [pc, #52]	@ 8004874 <LoopFillZerobss+0xe>
 8004840:	f7ff fff2 	bl	8004828 <SystemInit>
 8004844:	480c      	ldr	r0, [pc, #48]	@ (8004878 <LoopFillZerobss+0x12>)
 8004846:	490d      	ldr	r1, [pc, #52]	@ (800487c <LoopFillZerobss+0x16>)
 8004848:	4a0d      	ldr	r2, [pc, #52]	@ (8004880 <LoopFillZerobss+0x1a>)
 800484a:	2300      	movs	r3, #0
 800484c:	e002      	b.n	8004854 <LoopCopyDataInit>

0800484e <CopyDataInit>:
 800484e:	58d4      	ldr	r4, [r2, r3]
 8004850:	50c4      	str	r4, [r0, r3]
 8004852:	3304      	adds	r3, #4

08004854 <LoopCopyDataInit>:
 8004854:	18c4      	adds	r4, r0, r3
 8004856:	428c      	cmp	r4, r1
 8004858:	d3f9      	bcc.n	800484e <CopyDataInit>
 800485a:	4a0a      	ldr	r2, [pc, #40]	@ (8004884 <LoopFillZerobss+0x1e>)
 800485c:	4c0a      	ldr	r4, [pc, #40]	@ (8004888 <LoopFillZerobss+0x22>)
 800485e:	2300      	movs	r3, #0
 8004860:	e001      	b.n	8004866 <LoopFillZerobss>

08004862 <FillZerobss>:
 8004862:	6013      	str	r3, [r2, #0]
 8004864:	3204      	adds	r2, #4

08004866 <LoopFillZerobss>:
 8004866:	42a2      	cmp	r2, r4
 8004868:	d3fb      	bcc.n	8004862 <FillZerobss>
 800486a:	f006 f937 	bl	800aadc <__libc_init_array>
 800486e:	f7fe fd73 	bl	8003358 <main>
 8004872:	4770      	bx	lr
 8004874:	20020000 	.word	0x20020000
 8004878:	20000000 	.word	0x20000000
 800487c:	200001b0 	.word	0x200001b0
 8004880:	0800cb08 	.word	0x0800cb08
 8004884:	200001b0 	.word	0x200001b0
 8004888:	20003008 	.word	0x20003008

0800488c <DMA1_Stream2_IRQHandler>:
 800488c:	e7fe      	b.n	800488c <DMA1_Stream2_IRQHandler>
	...

08004890 <HAL_InitTick>:
 8004890:	b538      	push	{r3, r4, r5, lr}
 8004892:	4b0e      	ldr	r3, [pc, #56]	@ (80048cc <HAL_InitTick+0x3c>)
 8004894:	781a      	ldrb	r2, [r3, #0]
 8004896:	f44f 737a 	mov.w	r3, #1000	@ 0x3e8
 800489a:	fbb3 f3f2 	udiv	r3, r3, r2
 800489e:	4a0c      	ldr	r2, [pc, #48]	@ (80048d0 <HAL_InitTick+0x40>)
 80048a0:	4605      	mov	r5, r0
 80048a2:	6810      	ldr	r0, [r2, #0]
 80048a4:	fbb0 f0f3 	udiv	r0, r0, r3
 80048a8:	f000 fb54 	bl	8004f54 <HAL_SYSTICK_Config>
 80048ac:	4604      	mov	r4, r0
 80048ae:	b958      	cbnz	r0, 80048c8 <HAL_InitTick+0x38>
 80048b0:	2d0f      	cmp	r5, #15
 80048b2:	d809      	bhi.n	80048c8 <HAL_InitTick+0x38>
 80048b4:	4602      	mov	r2, r0
 80048b6:	4629      	mov	r1, r5
 80048b8:	f04f 30ff 	mov.w	r0, #4294967295
 80048bc:	f000 fb0a 	bl	8004ed4 <HAL_NVIC_SetPriority>
 80048c0:	4b04      	ldr	r3, [pc, #16]	@ (80048d4 <HAL_InitTick+0x44>)
 80048c2:	4620      	mov	r0, r4
 80048c4:	601d      	str	r5, [r3, #0]
 80048c6:	bd38      	pop	{r3, r4, r5, pc}
 80048c8:	2001      	movs	r0, #1
 80048ca:	e7fc      	b.n	80048c6 <HAL_InitTick+0x36>
 80048cc:	20000064 	.word	0x20000064
 80048d0:	20000060 	.word	0x20000060
 80048d4:	20000068 	.word	0x20000068

080048d8 <HAL_Init>:
 80048d8:	b508      	push	{r3, lr}
 80048da:	4b0b      	ldr	r3, [pc, #44]	@ (8004908 <HAL_Init+0x30>)
 80048dc:	681a      	ldr	r2, [r3, #0]
 80048de:	f442 7200 	orr.w	r2, r2, #512	@ 0x200
 80048e2:	601a      	str	r2, [r3, #0]
 80048e4:	681a      	ldr	r2, [r3, #0]
 80048e6:	f442 6280 	orr.w	r2, r2, #1024	@ 0x400
 80048ea:	601a      	str	r2, [r3, #0]
 80048ec:	681a      	ldr	r2, [r3, #0]
 80048ee:	f442 7280 	orr.w	r2, r2, #256	@ 0x100
 80048f2:	601a      	str	r2, [r3, #0]
 80048f4:	2003      	movs	r0, #3
 80048f6:	f000 fadb 	bl	8004eb0 <HAL_NVIC_SetPriorityGrouping>
 80048fa:	200f      	movs	r0, #15
 80048fc:	f7ff ffc8 	bl	8004890 <HAL_InitTick>
 8004900:	f7ff fcf0 	bl	80042e4 <HAL_MspInit>
 8004904:	2000      	movs	r0, #0
 8004906:	bd08      	pop	{r3, pc}
 8004908:	40023c00 	.word	0x40023c00

0800490c <HAL_IncTick>:
 800490c:	4a03      	ldr	r2, [pc, #12]	@ (800491c <HAL_IncTick+0x10>)
 800490e:	4b04      	ldr	r3, [pc, #16]	@ (8004920 <HAL_IncTick+0x14>)
 8004910:	6811      	ldr	r1, [r2, #0]
 8004912:	781b      	ldrb	r3, [r3, #0]
 8004914:	440b      	add	r3, r1
 8004916:	6013      	str	r3, [r2, #0]
 8004918:	4770      	bx	lr
 800491a:	bf00      	nop
 800491c:	200012d4 	.word	0x200012d4
 8004920:	20000064 	.word	0x20000064

08004924 <HAL_GetTick>:
 8004924:	4b01      	ldr	r3, [pc, #4]	@ (800492c <HAL_GetTick+0x8>)
 8004926:	6818      	ldr	r0, [r3, #0]
 8004928:	4770      	bx	lr
 800492a:	bf00      	nop
 800492c:	200012d4 	.word	0x200012d4

08004930 <HAL_Delay>:
 8004930:	b538      	push	{r3, r4, r5, lr}
 8004932:	4604      	mov	r4, r0
 8004934:	f7ff fff6 	bl	8004924 <HAL_GetTick>
 8004938:	1c63      	adds	r3, r4, #1
 800493a:	bf1c      	itt	ne
 800493c:	4b05      	ldrne	r3, [pc, #20]	@ (8004954 <HAL_Delay+0x24>)
 800493e:	781b      	ldrbne	r3, [r3, #0]
 8004940:	4605      	mov	r5, r0
 8004942:	bf18      	it	ne
 8004944:	18e4      	addne	r4, r4, r3
 8004946:	f7ff ffed 	bl	8004924 <HAL_GetTick>
 800494a:	1b43      	subs	r3, r0, r5
 800494c:	42a3      	cmp	r3, r4
 800494e:	d3fa      	bcc.n	8004946 <HAL_Delay+0x16>
 8004950:	bd38      	pop	{r3, r4, r5, pc}
 8004952:	bf00      	nop
 8004954:	20000064 	.word	0x20000064

08004958 <HAL_ADC_Init>:
 8004958:	b538      	push	{r3, r4, r5, lr}
 800495a:	4604      	mov	r4, r0
 800495c:	2800      	cmp	r0, #0
 800495e:	f000 809b 	beq.w	8004a98 <HAL_ADC_Init+0x140>
 8004962:	6c05      	ldr	r5, [r0, #64]	@ 0x40
 8004964:	b925      	cbnz	r5, 8004970 <HAL_ADC_Init+0x18>
 8004966:	f7ff fcd9 	bl	800431c <HAL_ADC_MspInit>
 800496a:	6465      	str	r5, [r4, #68]	@ 0x44
 800496c:	f884 503c 	strb.w	r5, [r4, #60]	@ 0x3c
 8004970:	6c23      	ldr	r3, [r4, #64]	@ 0x40
 8004972:	06db      	lsls	r3, r3, #27
 8004974:	f100 808e 	bmi.w	8004a94 <HAL_ADC_Init+0x13c>
 8004978:	6c23      	ldr	r3, [r4, #64]	@ 0x40
 800497a:	f423 5388 	bic.w	r3, r3, #4352	@ 0x1100
 800497e:	f023 0302 	bic.w	r3, r3, #2
 8004982:	f043 0302 	orr.w	r3, r3, #2
 8004986:	6423      	str	r3, [r4, #64]	@ 0x40
 8004988:	4b44      	ldr	r3, [pc, #272]	@ (8004a9c <HAL_ADC_Init+0x144>)
 800498a:	685a      	ldr	r2, [r3, #4]
 800498c:	f422 3240 	bic.w	r2, r2, #196608	@ 0x30000
 8004990:	605a      	str	r2, [r3, #4]
 8004992:	685a      	ldr	r2, [r3, #4]
 8004994:	6861      	ldr	r1, [r4, #4]
 8004996:	430a      	orrs	r2, r1
 8004998:	605a      	str	r2, [r3, #4]
 800499a:	6823      	ldr	r3, [r4, #0]
 800499c:	6921      	ldr	r1, [r4, #16]
 800499e:	685a      	ldr	r2, [r3, #4]
 80049a0:	f422 7280 	bic.w	r2, r2, #256	@ 0x100
 80049a4:	605a      	str	r2, [r3, #4]
 80049a6:	685a      	ldr	r2, [r3, #4]
 80049a8:	ea42 2201 	orr.w	r2, r2, r1, lsl #8
 80049ac:	605a      	str	r2, [r3, #4]
 80049ae:	685a      	ldr	r2, [r3, #4]
 80049b0:	68a1      	ldr	r1, [r4, #8]
 80049b2:	f022 7240 	bic.w	r2, r2, #50331648	@ 0x3000000
 80049b6:	605a      	str	r2, [r3, #4]
 80049b8:	685a      	ldr	r2, [r3, #4]
 80049ba:	430a      	orrs	r2, r1
 80049bc:	605a      	str	r2, [r3, #4]
 80049be:	689a      	ldr	r2, [r3, #8]
 80049c0:	68e1      	ldr	r1, [r4, #12]
 80049c2:	f422 6200 	bic.w	r2, r2, #2048	@ 0x800
 80049c6:	609a      	str	r2, [r3, #8]
 80049c8:	689a      	ldr	r2, [r3, #8]
 80049ca:	430a      	orrs	r2, r1
 80049cc:	609a      	str	r2, [r3, #8]
 80049ce:	4934      	ldr	r1, [pc, #208]	@ (8004aa0 <HAL_ADC_Init+0x148>)
 80049d0:	6aa2      	ldr	r2, [r4, #40]	@ 0x28
 80049d2:	428a      	cmp	r2, r1
 80049d4:	d052      	beq.n	8004a7c <HAL_ADC_Init+0x124>
 80049d6:	6899      	ldr	r1, [r3, #8]
 80049d8:	f021 6170 	bic.w	r1, r1, #251658240	@ 0xf000000
 80049dc:	6099      	str	r1, [r3, #8]
 80049de:	6899      	ldr	r1, [r3, #8]
 80049e0:	430a      	orrs	r2, r1
 80049e2:	609a      	str	r2, [r3, #8]
 80049e4:	689a      	ldr	r2, [r3, #8]
 80049e6:	6ae1      	ldr	r1, [r4, #44]	@ 0x2c
 80049e8:	f022 5240 	bic.w	r2, r2, #805306368	@ 0x30000000
 80049ec:	609a      	str	r2, [r3, #8]
 80049ee:	689a      	ldr	r2, [r3, #8]
 80049f0:	430a      	orrs	r2, r1
 80049f2:	609a      	str	r2, [r3, #8]
 80049f4:	689a      	ldr	r2, [r3, #8]
 80049f6:	f022 0202 	bic.w	r2, r2, #2
 80049fa:	609a      	str	r2, [r3, #8]
 80049fc:	689a      	ldr	r2, [r3, #8]
 80049fe:	7e21      	ldrb	r1, [r4, #24]
 8004a00:	ea42 0241 	orr.w	r2, r2, r1, lsl #1
 8004a04:	609a      	str	r2, [r3, #8]
 8004a06:	f894 2020 	ldrb.w	r2, [r4, #32]
 8004a0a:	2a00      	cmp	r2, #0
 8004a0c:	d03e      	beq.n	8004a8c <HAL_ADC_Init+0x134>
 8004a0e:	685a      	ldr	r2, [r3, #4]
 8004a10:	6a61      	ldr	r1, [r4, #36]	@ 0x24
 8004a12:	f442 6200 	orr.w	r2, r2, #2048	@ 0x800
 8004a16:	605a      	str	r2, [r3, #4]
 8004a18:	685a      	ldr	r2, [r3, #4]
 8004a1a:	f422 4260 	bic.w	r2, r2, #57344	@ 0xe000
 8004a1e:	605a      	str	r2, [r3, #4]
 8004a20:	685a      	ldr	r2, [r3, #4]
 8004a22:	3901      	subs	r1, #1
 8004a24:	ea42 3241 	orr.w	r2, r2, r1, lsl #13
 8004a28:	605a      	str	r2, [r3, #4]
 8004a2a:	6ada      	ldr	r2, [r3, #44]	@ 0x2c
 8004a2c:	69e1      	ldr	r1, [r4, #28]
 8004a2e:	f422 0270 	bic.w	r2, r2, #15728640	@ 0xf00000
 8004a32:	62da      	str	r2, [r3, #44]	@ 0x2c
 8004a34:	6ada      	ldr	r2, [r3, #44]	@ 0x2c
 8004a36:	3901      	subs	r1, #1
 8004a38:	ea42 5201 	orr.w	r2, r2, r1, lsl #20
 8004a3c:	62da      	str	r2, [r3, #44]	@ 0x2c
 8004a3e:	689a      	ldr	r2, [r3, #8]
 8004a40:	f422 7200 	bic.w	r2, r2, #512	@ 0x200
 8004a44:	609a      	str	r2, [r3, #8]
 8004a46:	689a      	ldr	r2, [r3, #8]
 8004a48:	f894 1030 	ldrb.w	r1, [r4, #48]	@ 0x30
 8004a4c:	ea42 2241 	orr.w	r2, r2, r1, lsl #9
 8004a50:	609a      	str	r2, [r3, #8]
 8004a52:	689a      	ldr	r2, [r3, #8]
 8004a54:	6961      	ldr	r1, [r4, #20]
 8004a56:	f422 6280 	bic.w	r2, r2, #1024	@ 0x400
 8004a5a:	609a      	str	r2, [r3, #8]
 8004a5c:	689a      	ldr	r2, [r3, #8]
 8004a5e:	2000      	movs	r0, #0
 8004a60:	ea42 2281 	orr.w	r2, r2, r1, lsl #10
 8004a64:	609a      	str	r2, [r3, #8]
 8004a66:	6460      	str	r0, [r4, #68]	@ 0x44
 8004a68:	6c23      	ldr	r3, [r4, #64]	@ 0x40
 8004a6a:	f023 0303 	bic.w	r3, r3, #3
 8004a6e:	f043 0301 	orr.w	r3, r3, #1
 8004a72:	6423      	str	r3, [r4, #64]	@ 0x40
 8004a74:	2300      	movs	r3, #0
 8004a76:	f884 303c 	strb.w	r3, [r4, #60]	@ 0x3c
 8004a7a:	bd38      	pop	{r3, r4, r5, pc}
 8004a7c:	689a      	ldr	r2, [r3, #8]
 8004a7e:	f022 6270 	bic.w	r2, r2, #251658240	@ 0xf000000
 8004a82:	609a      	str	r2, [r3, #8]
 8004a84:	689a      	ldr	r2, [r3, #8]
 8004a86:	f022 5240 	bic.w	r2, r2, #805306368	@ 0x30000000
 8004a8a:	e7b2      	b.n	80049f2 <HAL_ADC_Init+0x9a>
 8004a8c:	685a      	ldr	r2, [r3, #4]
 8004a8e:	f422 6200 	bic.w	r2, r2, #2048	@ 0x800
 8004a92:	e7c9      	b.n	8004a28 <HAL_ADC_Init+0xd0>
 8004a94:	2001      	movs	r0, #1
 8004a96:	e7ed      	b.n	8004a74 <HAL_ADC_Init+0x11c>
 8004a98:	2001      	movs	r0, #1
 8004a9a:	e7ee      	b.n	8004a7a <HAL_ADC_Init+0x122>
 8004a9c:	40012300 	.word	0x40012300
 8004aa0:	0f000001 	.word	0x0f000001

08004aa4 <HAL_ADC_Start_DMA>:
 8004aa4:	b537      	push	{r0, r1, r2, r4, r5, lr}
 8004aa6:	4613      	mov	r3, r2
 8004aa8:	2200      	movs	r2, #0
 8004aaa:	9201      	str	r2, [sp, #4]
 8004aac:	f890 203c 	ldrb.w	r2, [r0, #60]	@ 0x3c
 8004ab0:	2a01      	cmp	r2, #1
 8004ab2:	4604      	mov	r4, r0
 8004ab4:	d075      	beq.n	8004ba2 <HAL_ADC_Start_DMA+0xfe>
 8004ab6:	2201      	movs	r2, #1
 8004ab8:	6805      	ldr	r5, [r0, #0]
 8004aba:	f880 203c 	strb.w	r2, [r0, #60]	@ 0x3c
 8004abe:	68aa      	ldr	r2, [r5, #8]
 8004ac0:	07d2      	lsls	r2, r2, #31
 8004ac2:	d548      	bpl.n	8004b56 <HAL_ADC_Start_DMA+0xb2>
 8004ac4:	68aa      	ldr	r2, [r5, #8]
 8004ac6:	05d0      	lsls	r0, r2, #23
 8004ac8:	d458      	bmi.n	8004b7c <HAL_ADC_Start_DMA+0xd8>
 8004aca:	68a8      	ldr	r0, [r5, #8]
 8004acc:	f010 0001 	ands.w	r0, r0, #1
 8004ad0:	d05e      	beq.n	8004b90 <HAL_ADC_Start_DMA+0xec>
 8004ad2:	6c20      	ldr	r0, [r4, #64]	@ 0x40
 8004ad4:	f420 60e0 	bic.w	r0, r0, #1792	@ 0x700
 8004ad8:	f020 0001 	bic.w	r0, r0, #1
 8004adc:	f440 7080 	orr.w	r0, r0, #256	@ 0x100
 8004ae0:	6420      	str	r0, [r4, #64]	@ 0x40
 8004ae2:	686a      	ldr	r2, [r5, #4]
 8004ae4:	0552      	lsls	r2, r2, #21
 8004ae6:	bf41      	itttt	mi
 8004ae8:	6c20      	ldrmi	r0, [r4, #64]	@ 0x40
 8004aea:	f420 5040 	bicmi.w	r0, r0, #12288	@ 0x3000
 8004aee:	f440 5080 	orrmi.w	r0, r0, #4096	@ 0x1000
 8004af2:	6420      	strmi	r0, [r4, #64]	@ 0x40
 8004af4:	6c22      	ldr	r2, [r4, #64]	@ 0x40
 8004af6:	6ba0      	ldr	r0, [r4, #56]	@ 0x38
 8004af8:	f412 5280 	ands.w	r2, r2, #4096	@ 0x1000
 8004afc:	bf1c      	itt	ne
 8004afe:	6c62      	ldrne	r2, [r4, #68]	@ 0x44
 8004b00:	f022 0206 	bicne.w	r2, r2, #6
 8004b04:	6462      	str	r2, [r4, #68]	@ 0x44
 8004b06:	2200      	movs	r2, #0
 8004b08:	f884 203c 	strb.w	r2, [r4, #60]	@ 0x3c
 8004b0c:	4a26      	ldr	r2, [pc, #152]	@ (8004ba8 <HAL_ADC_Start_DMA+0x104>)
 8004b0e:	63c2      	str	r2, [r0, #60]	@ 0x3c
 8004b10:	4a26      	ldr	r2, [pc, #152]	@ (8004bac <HAL_ADC_Start_DMA+0x108>)
 8004b12:	6402      	str	r2, [r0, #64]	@ 0x40
 8004b14:	4a26      	ldr	r2, [pc, #152]	@ (8004bb0 <HAL_ADC_Start_DMA+0x10c>)
 8004b16:	64c2      	str	r2, [r0, #76]	@ 0x4c
 8004b18:	f06f 0222 	mvn.w	r2, #34	@ 0x22
 8004b1c:	602a      	str	r2, [r5, #0]
 8004b1e:	686a      	ldr	r2, [r5, #4]
 8004b20:	f042 6280 	orr.w	r2, r2, #67108864	@ 0x4000000
 8004b24:	606a      	str	r2, [r5, #4]
 8004b26:	68aa      	ldr	r2, [r5, #8]
 8004b28:	f442 7280 	orr.w	r2, r2, #256	@ 0x100
 8004b2c:	60aa      	str	r2, [r5, #8]
 8004b2e:	460a      	mov	r2, r1
 8004b30:	f105 014c 	add.w	r1, r5, #76	@ 0x4c
 8004b34:	f000 fab6 	bl	80050a4 <HAL_DMA_Start_IT>
 8004b38:	4b1e      	ldr	r3, [pc, #120]	@ (8004bb4 <HAL_ADC_Start_DMA+0x110>)
 8004b3a:	685b      	ldr	r3, [r3, #4]
 8004b3c:	f013 0f1f 	tst.w	r3, #31
 8004b40:	6823      	ldr	r3, [r4, #0]
 8004b42:	d120      	bne.n	8004b86 <HAL_ADC_Start_DMA+0xe2>
 8004b44:	689a      	ldr	r2, [r3, #8]
 8004b46:	f012 5f40 	tst.w	r2, #805306368	@ 0x30000000
 8004b4a:	d11f      	bne.n	8004b8c <HAL_ADC_Start_DMA+0xe8>
 8004b4c:	689a      	ldr	r2, [r3, #8]
 8004b4e:	f042 4280 	orr.w	r2, r2, #1073741824	@ 0x40000000
 8004b52:	609a      	str	r2, [r3, #8]
 8004b54:	e01a      	b.n	8004b8c <HAL_ADC_Start_DMA+0xe8>
 8004b56:	68aa      	ldr	r2, [r5, #8]
 8004b58:	f042 0201 	orr.w	r2, r2, #1
 8004b5c:	60aa      	str	r2, [r5, #8]
 8004b5e:	4a16      	ldr	r2, [pc, #88]	@ (8004bb8 <HAL_ADC_Start_DMA+0x114>)
 8004b60:	6810      	ldr	r0, [r2, #0]
 8004b62:	4a16      	ldr	r2, [pc, #88]	@ (8004bbc <HAL_ADC_Start_DMA+0x118>)
 8004b64:	fbb0 f0f2 	udiv	r0, r0, r2
 8004b68:	eb00 0040 	add.w	r0, r0, r0, lsl #1
 8004b6c:	9001      	str	r0, [sp, #4]
 8004b6e:	9a01      	ldr	r2, [sp, #4]
 8004b70:	2a00      	cmp	r2, #0
 8004b72:	d0a7      	beq.n	8004ac4 <HAL_ADC_Start_DMA+0x20>
 8004b74:	9a01      	ldr	r2, [sp, #4]
 8004b76:	3a01      	subs	r2, #1
 8004b78:	9201      	str	r2, [sp, #4]
 8004b7a:	e7f8      	b.n	8004b6e <HAL_ADC_Start_DMA+0xca>
 8004b7c:	68aa      	ldr	r2, [r5, #8]
 8004b7e:	f422 7280 	bic.w	r2, r2, #256	@ 0x100
 8004b82:	60aa      	str	r2, [r5, #8]
 8004b84:	e7a1      	b.n	8004aca <HAL_ADC_Start_DMA+0x26>
 8004b86:	4a0e      	ldr	r2, [pc, #56]	@ (8004bc0 <HAL_ADC_Start_DMA+0x11c>)
 8004b88:	4293      	cmp	r3, r2
 8004b8a:	d0db      	beq.n	8004b44 <HAL_ADC_Start_DMA+0xa0>
 8004b8c:	b003      	add	sp, #12
 8004b8e:	bd30      	pop	{r4, r5, pc}
 8004b90:	6c23      	ldr	r3, [r4, #64]	@ 0x40
 8004b92:	f043 0310 	orr.w	r3, r3, #16
 8004b96:	6423      	str	r3, [r4, #64]	@ 0x40
 8004b98:	6c63      	ldr	r3, [r4, #68]	@ 0x44
 8004b9a:	f043 0301 	orr.w	r3, r3, #1
 8004b9e:	6463      	str	r3, [r4, #68]	@ 0x44
 8004ba0:	e7f4      	b.n	8004b8c <HAL_ADC_Start_DMA+0xe8>
 8004ba2:	2002      	movs	r0, #2
 8004ba4:	e7f2      	b.n	8004b8c <HAL_ADC_Start_DMA+0xe8>
 8004ba6:	bf00      	nop
 8004ba8:	08004d09 	.word	0x08004d09
 8004bac:	08004bc9 	.word	0x08004bc9
 8004bb0:	08004cf3 	.word	0x08004cf3
 8004bb4:	40012300 	.word	0x40012300
 8004bb8:	20000060 	.word	0x20000060
 8004bbc:	000f4240 	.word	0x000f4240
 8004bc0:	40012000 	.word	0x40012000

08004bc4 <HAL_ADC_ConvCpltCallback>:
 8004bc4:	4770      	bx	lr

08004bc6 <HAL_ADC_ConvHalfCpltCallback>:
 8004bc6:	4770      	bx	lr

08004bc8 <ADC_DMAHalfConvCplt>:
 8004bc8:	b508      	push	{r3, lr}
 8004bca:	6b80      	ldr	r0, [r0, #56]	@ 0x38
 8004bcc:	f7ff fffb 	bl	8004bc6 <HAL_ADC_ConvHalfCpltCallback>
 8004bd0:	bd08      	pop	{r3, pc}

08004bd2 <HAL_ADC_LevelOutOfWindowCallback>:
 8004bd2:	4770      	bx	lr

08004bd4 <HAL_ADC_ErrorCallback>:
 8004bd4:	4770      	bx	lr

08004bd6 <HAL_ADC_IRQHandler>:
 8004bd6:	6803      	ldr	r3, [r0, #0]
 8004bd8:	b570      	push	{r4, r5, r6, lr}
 8004bda:	681e      	ldr	r6, [r3, #0]
 8004bdc:	685d      	ldr	r5, [r3, #4]
 8004bde:	07b2      	lsls	r2, r6, #30
 8004be0:	4604      	mov	r4, r0
 8004be2:	d52b      	bpl.n	8004c3c <HAL_ADC_IRQHandler+0x66>
 8004be4:	06a8      	lsls	r0, r5, #26
 8004be6:	d529      	bpl.n	8004c3c <HAL_ADC_IRQHandler+0x66>
 8004be8:	6c22      	ldr	r2, [r4, #64]	@ 0x40
 8004bea:	06d1      	lsls	r1, r2, #27
 8004bec:	bf5e      	ittt	pl
 8004bee:	6c22      	ldrpl	r2, [r4, #64]	@ 0x40
 8004bf0:	f442 7200 	orrpl.w	r2, r2, #512	@ 0x200
 8004bf4:	6422      	strpl	r2, [r4, #64]	@ 0x40
 8004bf6:	689a      	ldr	r2, [r3, #8]
 8004bf8:	f012 5f40 	tst.w	r2, #805306368	@ 0x30000000
 8004bfc:	d117      	bne.n	8004c2e <HAL_ADC_IRQHandler+0x58>
 8004bfe:	7e22      	ldrb	r2, [r4, #24]
 8004c00:	b9aa      	cbnz	r2, 8004c2e <HAL_ADC_IRQHandler+0x58>
 8004c02:	6ada      	ldr	r2, [r3, #44]	@ 0x2c
 8004c04:	f412 0f70 	tst.w	r2, #15728640	@ 0xf00000
 8004c08:	d002      	beq.n	8004c10 <HAL_ADC_IRQHandler+0x3a>
 8004c0a:	689a      	ldr	r2, [r3, #8]
 8004c0c:	0552      	lsls	r2, r2, #21
 8004c0e:	d40e      	bmi.n	8004c2e <HAL_ADC_IRQHandler+0x58>
 8004c10:	685a      	ldr	r2, [r3, #4]
 8004c12:	f022 0220 	bic.w	r2, r2, #32
 8004c16:	605a      	str	r2, [r3, #4]
 8004c18:	6c23      	ldr	r3, [r4, #64]	@ 0x40
 8004c1a:	f423 7380 	bic.w	r3, r3, #256	@ 0x100
 8004c1e:	6423      	str	r3, [r4, #64]	@ 0x40
 8004c20:	6c23      	ldr	r3, [r4, #64]	@ 0x40
 8004c22:	04d8      	lsls	r0, r3, #19
 8004c24:	bf5e      	ittt	pl
 8004c26:	6c23      	ldrpl	r3, [r4, #64]	@ 0x40
 8004c28:	f043 0301 	orrpl.w	r3, r3, #1
 8004c2c:	6423      	strpl	r3, [r4, #64]	@ 0x40
 8004c2e:	4620      	mov	r0, r4
 8004c30:	f7ff ffc8 	bl	8004bc4 <HAL_ADC_ConvCpltCallback>
 8004c34:	6823      	ldr	r3, [r4, #0]
 8004c36:	f06f 0212 	mvn.w	r2, #18
 8004c3a:	601a      	str	r2, [r3, #0]
 8004c3c:	0771      	lsls	r1, r6, #29
 8004c3e:	d533      	bpl.n	8004ca8 <HAL_ADC_IRQHandler+0xd2>
 8004c40:	062a      	lsls	r2, r5, #24
 8004c42:	d531      	bpl.n	8004ca8 <HAL_ADC_IRQHandler+0xd2>
 8004c44:	6c23      	ldr	r3, [r4, #64]	@ 0x40
 8004c46:	06db      	lsls	r3, r3, #27
 8004c48:	bf5e      	ittt	pl
 8004c4a:	6c23      	ldrpl	r3, [r4, #64]	@ 0x40
 8004c4c:	f443 5300 	orrpl.w	r3, r3, #8192	@ 0x2000
 8004c50:	6423      	strpl	r3, [r4, #64]	@ 0x40
 8004c52:	6823      	ldr	r3, [r4, #0]
 8004c54:	689a      	ldr	r2, [r3, #8]
 8004c56:	f412 1f40 	tst.w	r2, #3145728	@ 0x300000
 8004c5a:	d11e      	bne.n	8004c9a <HAL_ADC_IRQHandler+0xc4>
 8004c5c:	6b9a      	ldr	r2, [r3, #56]	@ 0x38
 8004c5e:	f412 1f40 	tst.w	r2, #3145728	@ 0x300000
 8004c62:	d002      	beq.n	8004c6a <HAL_ADC_IRQHandler+0x94>
 8004c64:	689a      	ldr	r2, [r3, #8]
 8004c66:	0550      	lsls	r0, r2, #21
 8004c68:	d417      	bmi.n	8004c9a <HAL_ADC_IRQHandler+0xc4>
 8004c6a:	685a      	ldr	r2, [r3, #4]
 8004c6c:	0551      	lsls	r1, r2, #21
 8004c6e:	d414      	bmi.n	8004c9a <HAL_ADC_IRQHandler+0xc4>
 8004c70:	689a      	ldr	r2, [r3, #8]
 8004c72:	f012 5f40 	tst.w	r2, #805306368	@ 0x30000000
 8004c76:	d110      	bne.n	8004c9a <HAL_ADC_IRQHandler+0xc4>
 8004c78:	7e22      	ldrb	r2, [r4, #24]
 8004c7a:	b972      	cbnz	r2, 8004c9a <HAL_ADC_IRQHandler+0xc4>
 8004c7c:	685a      	ldr	r2, [r3, #4]
 8004c7e:	f022 0280 	bic.w	r2, r2, #128	@ 0x80
 8004c82:	605a      	str	r2, [r3, #4]
 8004c84:	6c23      	ldr	r3, [r4, #64]	@ 0x40
 8004c86:	f423 5380 	bic.w	r3, r3, #4096	@ 0x1000
 8004c8a:	6423      	str	r3, [r4, #64]	@ 0x40
 8004c8c:	6c23      	ldr	r3, [r4, #64]	@ 0x40
 8004c8e:	05da      	lsls	r2, r3, #23
 8004c90:	bf5e      	ittt	pl
 8004c92:	6c23      	ldrpl	r3, [r4, #64]	@ 0x40
 8004c94:	f043 0301 	orrpl.w	r3, r3, #1
 8004c98:	6423      	strpl	r3, [r4, #64]	@ 0x40
 8004c9a:	4620      	mov	r0, r4
 8004c9c:	f000 f906 	bl	8004eac <HAL_ADCEx_InjectedConvCpltCallback>
 8004ca0:	6823      	ldr	r3, [r4, #0]
 8004ca2:	f06f 020c 	mvn.w	r2, #12
 8004ca6:	601a      	str	r2, [r3, #0]
 8004ca8:	07f3      	lsls	r3, r6, #31
 8004caa:	d510      	bpl.n	8004cce <HAL_ADC_IRQHandler+0xf8>
 8004cac:	0668      	lsls	r0, r5, #25
 8004cae:	d50e      	bpl.n	8004cce <HAL_ADC_IRQHandler+0xf8>
 8004cb0:	6823      	ldr	r3, [r4, #0]
 8004cb2:	681b      	ldr	r3, [r3, #0]
 8004cb4:	07d9      	lsls	r1, r3, #31
 8004cb6:	d50a      	bpl.n	8004cce <HAL_ADC_IRQHandler+0xf8>
 8004cb8:	6c23      	ldr	r3, [r4, #64]	@ 0x40
 8004cba:	f443 3380 	orr.w	r3, r3, #65536	@ 0x10000
 8004cbe:	6423      	str	r3, [r4, #64]	@ 0x40
 8004cc0:	4620      	mov	r0, r4
 8004cc2:	f7ff ff86 	bl	8004bd2 <HAL_ADC_LevelOutOfWindowCallback>
 8004cc6:	6823      	ldr	r3, [r4, #0]
 8004cc8:	f06f 0201 	mvn.w	r2, #1
 8004ccc:	601a      	str	r2, [r3, #0]
 8004cce:	06b2      	lsls	r2, r6, #26
 8004cd0:	d50e      	bpl.n	8004cf0 <HAL_ADC_IRQHandler+0x11a>
 8004cd2:	016b      	lsls	r3, r5, #5
 8004cd4:	d50c      	bpl.n	8004cf0 <HAL_ADC_IRQHandler+0x11a>
 8004cd6:	6c63      	ldr	r3, [r4, #68]	@ 0x44
 8004cd8:	f043 0302 	orr.w	r3, r3, #2
 8004cdc:	6463      	str	r3, [r4, #68]	@ 0x44
 8004cde:	6823      	ldr	r3, [r4, #0]
 8004ce0:	f06f 0520 	mvn.w	r5, #32
 8004ce4:	601d      	str	r5, [r3, #0]
 8004ce6:	4620      	mov	r0, r4
 8004ce8:	f7ff ff74 	bl	8004bd4 <HAL_ADC_ErrorCallback>
 8004cec:	6823      	ldr	r3, [r4, #0]
 8004cee:	601d      	str	r5, [r3, #0]
 8004cf0:	bd70      	pop	{r4, r5, r6, pc}

08004cf2 <ADC_DMAError>:
 8004cf2:	6b80      	ldr	r0, [r0, #56]	@ 0x38
 8004cf4:	b508      	push	{r3, lr}
 8004cf6:	2340      	movs	r3, #64	@ 0x40
 8004cf8:	6403      	str	r3, [r0, #64]	@ 0x40
 8004cfa:	6c43      	ldr	r3, [r0, #68]	@ 0x44
 8004cfc:	f043 0304 	orr.w	r3, r3, #4
 8004d00:	6443      	str	r3, [r0, #68]	@ 0x44
 8004d02:	f7ff ff67 	bl	8004bd4 <HAL_ADC_ErrorCallback>
 8004d06:	bd08      	pop	{r3, pc}

08004d08 <ADC_DMAConvCplt>:
 8004d08:	6b83      	ldr	r3, [r0, #56]	@ 0x38
 8004d0a:	6c1a      	ldr	r2, [r3, #64]	@ 0x40
 8004d0c:	f012 0f50 	tst.w	r2, #80	@ 0x50
 8004d10:	b510      	push	{r4, lr}
 8004d12:	6c1a      	ldr	r2, [r3, #64]	@ 0x40
 8004d14:	d123      	bne.n	8004d5e <ADC_DMAConvCplt+0x56>
 8004d16:	f442 7200 	orr.w	r2, r2, #512	@ 0x200
 8004d1a:	641a      	str	r2, [r3, #64]	@ 0x40
 8004d1c:	681a      	ldr	r2, [r3, #0]
 8004d1e:	6891      	ldr	r1, [r2, #8]
 8004d20:	f011 5f40 	tst.w	r1, #805306368	@ 0x30000000
 8004d24:	d117      	bne.n	8004d56 <ADC_DMAConvCplt+0x4e>
 8004d26:	7e19      	ldrb	r1, [r3, #24]
 8004d28:	b9a9      	cbnz	r1, 8004d56 <ADC_DMAConvCplt+0x4e>
 8004d2a:	6ad1      	ldr	r1, [r2, #44]	@ 0x2c
 8004d2c:	f411 0f70 	tst.w	r1, #15728640	@ 0xf00000
 8004d30:	d002      	beq.n	8004d38 <ADC_DMAConvCplt+0x30>
 8004d32:	6891      	ldr	r1, [r2, #8]
 8004d34:	0548      	lsls	r0, r1, #21
 8004d36:	d40e      	bmi.n	8004d56 <ADC_DMAConvCplt+0x4e>
 8004d38:	6851      	ldr	r1, [r2, #4]
 8004d3a:	f021 0120 	bic.w	r1, r1, #32
 8004d3e:	6051      	str	r1, [r2, #4]
 8004d40:	6c1a      	ldr	r2, [r3, #64]	@ 0x40
 8004d42:	f422 7280 	bic.w	r2, r2, #256	@ 0x100
 8004d46:	641a      	str	r2, [r3, #64]	@ 0x40
 8004d48:	6c1a      	ldr	r2, [r3, #64]	@ 0x40
 8004d4a:	04d1      	lsls	r1, r2, #19
 8004d4c:	bf5e      	ittt	pl
 8004d4e:	6c1a      	ldrpl	r2, [r3, #64]	@ 0x40
 8004d50:	f042 0201 	orrpl.w	r2, r2, #1
 8004d54:	641a      	strpl	r2, [r3, #64]	@ 0x40
 8004d56:	4618      	mov	r0, r3
 8004d58:	f7ff ff34 	bl	8004bc4 <HAL_ADC_ConvCpltCallback>
 8004d5c:	bd10      	pop	{r4, pc}
 8004d5e:	06d2      	lsls	r2, r2, #27
 8004d60:	d503      	bpl.n	8004d6a <ADC_DMAConvCplt+0x62>
 8004d62:	4618      	mov	r0, r3
 8004d64:	f7ff ff36 	bl	8004bd4 <HAL_ADC_ErrorCallback>
 8004d68:	e7f8      	b.n	8004d5c <ADC_DMAConvCplt+0x54>
 8004d6a:	6b9b      	ldr	r3, [r3, #56]	@ 0x38
 8004d6c:	e8bd 4010 	ldmia.w	sp!, {r4, lr}
 8004d70:	6cdb      	ldr	r3, [r3, #76]	@ 0x4c
 8004d72:	4718      	bx	r3

08004d74 <HAL_ADC_ConfigChannel>:
 8004d74:	b5f7      	push	{r0, r1, r2, r4, r5, r6, r7, lr}
 8004d76:	2300      	movs	r3, #0
 8004d78:	9301      	str	r3, [sp, #4]
 8004d7a:	f890 303c 	ldrb.w	r3, [r0, #60]	@ 0x3c
 8004d7e:	2b01      	cmp	r3, #1
 8004d80:	4605      	mov	r5, r0
 8004d82:	f000 8086 	beq.w	8004e92 <HAL_ADC_ConfigChannel+0x11e>
 8004d86:	2301      	movs	r3, #1
 8004d88:	f880 303c 	strb.w	r3, [r0, #60]	@ 0x3c
 8004d8c:	6808      	ldr	r0, [r1, #0]
 8004d8e:	682b      	ldr	r3, [r5, #0]
 8004d90:	688e      	ldr	r6, [r1, #8]
 8004d92:	2809      	cmp	r0, #9
 8004d94:	b284      	uxth	r4, r0
 8004d96:	d933      	bls.n	8004e00 <HAL_ADC_ConfigChannel+0x8c>
 8004d98:	eb04 0244 	add.w	r2, r4, r4, lsl #1
 8004d9c:	68df      	ldr	r7, [r3, #12]
 8004d9e:	3a1e      	subs	r2, #30
 8004da0:	f04f 0c07 	mov.w	ip, #7
 8004da4:	fa0c fc02 	lsl.w	ip, ip, r2
 8004da8:	ea27 070c 	bic.w	r7, r7, ip
 8004dac:	60df      	str	r7, [r3, #12]
 8004dae:	68df      	ldr	r7, [r3, #12]
 8004db0:	fa06 f202 	lsl.w	r2, r6, r2
 8004db4:	433a      	orrs	r2, r7
 8004db6:	60da      	str	r2, [r3, #12]
 8004db8:	6849      	ldr	r1, [r1, #4]
 8004dba:	2906      	cmp	r1, #6
 8004dbc:	eb01 0281 	add.w	r2, r1, r1, lsl #2
 8004dc0:	d82d      	bhi.n	8004e1e <HAL_ADC_ConfigChannel+0xaa>
 8004dc2:	6b59      	ldr	r1, [r3, #52]	@ 0x34
 8004dc4:	3a05      	subs	r2, #5
 8004dc6:	261f      	movs	r6, #31
 8004dc8:	4096      	lsls	r6, r2
 8004dca:	ea21 0106 	bic.w	r1, r1, r6
 8004dce:	6359      	str	r1, [r3, #52]	@ 0x34
 8004dd0:	6b59      	ldr	r1, [r3, #52]	@ 0x34
 8004dd2:	fa04 f202 	lsl.w	r2, r4, r2
 8004dd6:	430a      	orrs	r2, r1
 8004dd8:	635a      	str	r2, [r3, #52]	@ 0x34
 8004dda:	4a2f      	ldr	r2, [pc, #188]	@ (8004e98 <HAL_ADC_ConfigChannel+0x124>)
 8004ddc:	4293      	cmp	r3, r2
 8004dde:	d10a      	bne.n	8004df6 <HAL_ADC_ConfigChannel+0x82>
 8004de0:	2812      	cmp	r0, #18
 8004de2:	d137      	bne.n	8004e54 <HAL_ADC_ConfigChannel+0xe0>
 8004de4:	4b2d      	ldr	r3, [pc, #180]	@ (8004e9c <HAL_ADC_ConfigChannel+0x128>)
 8004de6:	685a      	ldr	r2, [r3, #4]
 8004de8:	f422 0200 	bic.w	r2, r2, #8388608	@ 0x800000
 8004dec:	605a      	str	r2, [r3, #4]
 8004dee:	685a      	ldr	r2, [r3, #4]
 8004df0:	f442 0280 	orr.w	r2, r2, #4194304	@ 0x400000
 8004df4:	605a      	str	r2, [r3, #4]
 8004df6:	2000      	movs	r0, #0
 8004df8:	f885 003c 	strb.w	r0, [r5, #60]	@ 0x3c
 8004dfc:	b003      	add	sp, #12
 8004dfe:	bdf0      	pop	{r4, r5, r6, r7, pc}
 8004e00:	691a      	ldr	r2, [r3, #16]
 8004e02:	eb00 0c40 	add.w	ip, r0, r0, lsl #1
 8004e06:	2707      	movs	r7, #7
 8004e08:	fa07 f70c 	lsl.w	r7, r7, ip
 8004e0c:	ea22 0207 	bic.w	r2, r2, r7
 8004e10:	611a      	str	r2, [r3, #16]
 8004e12:	691a      	ldr	r2, [r3, #16]
 8004e14:	fa06 f60c 	lsl.w	r6, r6, ip
 8004e18:	4316      	orrs	r6, r2
 8004e1a:	611e      	str	r6, [r3, #16]
 8004e1c:	e7cc      	b.n	8004db8 <HAL_ADC_ConfigChannel+0x44>
 8004e1e:	290c      	cmp	r1, #12
 8004e20:	f04f 011f 	mov.w	r1, #31
 8004e24:	d80b      	bhi.n	8004e3e <HAL_ADC_ConfigChannel+0xca>
 8004e26:	6b1e      	ldr	r6, [r3, #48]	@ 0x30
 8004e28:	3a23      	subs	r2, #35	@ 0x23
 8004e2a:	4091      	lsls	r1, r2
 8004e2c:	ea26 0101 	bic.w	r1, r6, r1
 8004e30:	6319      	str	r1, [r3, #48]	@ 0x30
 8004e32:	6b19      	ldr	r1, [r3, #48]	@ 0x30
 8004e34:	fa04 f202 	lsl.w	r2, r4, r2
 8004e38:	430a      	orrs	r2, r1
 8004e3a:	631a      	str	r2, [r3, #48]	@ 0x30
 8004e3c:	e7cd      	b.n	8004dda <HAL_ADC_ConfigChannel+0x66>
 8004e3e:	6ade      	ldr	r6, [r3, #44]	@ 0x2c
 8004e40:	3a41      	subs	r2, #65	@ 0x41
 8004e42:	4091      	lsls	r1, r2
 8004e44:	ea26 0101 	bic.w	r1, r6, r1
 8004e48:	62d9      	str	r1, [r3, #44]	@ 0x2c
 8004e4a:	6ad9      	ldr	r1, [r3, #44]	@ 0x2c
 8004e4c:	4094      	lsls	r4, r2
 8004e4e:	430c      	orrs	r4, r1
 8004e50:	62dc      	str	r4, [r3, #44]	@ 0x2c
 8004e52:	e7c2      	b.n	8004dda <HAL_ADC_ConfigChannel+0x66>
 8004e54:	4b12      	ldr	r3, [pc, #72]	@ (8004ea0 <HAL_ADC_ConfigChannel+0x12c>)
 8004e56:	4298      	cmp	r0, r3
 8004e58:	d001      	beq.n	8004e5e <HAL_ADC_ConfigChannel+0xea>
 8004e5a:	2811      	cmp	r0, #17
 8004e5c:	d1cb      	bne.n	8004df6 <HAL_ADC_ConfigChannel+0x82>
 8004e5e:	4b0f      	ldr	r3, [pc, #60]	@ (8004e9c <HAL_ADC_ConfigChannel+0x128>)
 8004e60:	685a      	ldr	r2, [r3, #4]
 8004e62:	f422 0280 	bic.w	r2, r2, #4194304	@ 0x400000
 8004e66:	605a      	str	r2, [r3, #4]
 8004e68:	685a      	ldr	r2, [r3, #4]
 8004e6a:	f442 0200 	orr.w	r2, r2, #8388608	@ 0x800000
 8004e6e:	605a      	str	r2, [r3, #4]
 8004e70:	4b0b      	ldr	r3, [pc, #44]	@ (8004ea0 <HAL_ADC_ConfigChannel+0x12c>)
 8004e72:	4298      	cmp	r0, r3
 8004e74:	d1bf      	bne.n	8004df6 <HAL_ADC_ConfigChannel+0x82>
 8004e76:	4b0b      	ldr	r3, [pc, #44]	@ (8004ea4 <HAL_ADC_ConfigChannel+0x130>)
 8004e78:	4a0b      	ldr	r2, [pc, #44]	@ (8004ea8 <HAL_ADC_ConfigChannel+0x134>)
 8004e7a:	681b      	ldr	r3, [r3, #0]
 8004e7c:	fbb3 f3f2 	udiv	r3, r3, r2
 8004e80:	220a      	movs	r2, #10
 8004e82:	4353      	muls	r3, r2
 8004e84:	9301      	str	r3, [sp, #4]
 8004e86:	9b01      	ldr	r3, [sp, #4]
 8004e88:	2b00      	cmp	r3, #0
 8004e8a:	d0b4      	beq.n	8004df6 <HAL_ADC_ConfigChannel+0x82>
 8004e8c:	9b01      	ldr	r3, [sp, #4]
 8004e8e:	3b01      	subs	r3, #1
 8004e90:	e7f8      	b.n	8004e84 <HAL_ADC_ConfigChannel+0x110>
 8004e92:	2002      	movs	r0, #2
 8004e94:	e7b2      	b.n	8004dfc <HAL_ADC_ConfigChannel+0x88>
 8004e96:	bf00      	nop
 8004e98:	40012000 	.word	0x40012000
 8004e9c:	40012300 	.word	0x40012300
 8004ea0:	10000012 	.word	0x10000012
 8004ea4:	20000060 	.word	0x20000060
 8004ea8:	000f4240 	.word	0x000f4240

08004eac <HAL_ADCEx_InjectedConvCpltCallback>:
 8004eac:	4770      	bx	lr
	...

08004eb0 <HAL_NVIC_SetPriorityGrouping>:
 8004eb0:	4907      	ldr	r1, [pc, #28]	@ (8004ed0 <HAL_NVIC_SetPriorityGrouping+0x20>)
 8004eb2:	68ca      	ldr	r2, [r1, #12]
 8004eb4:	f422 62e0 	bic.w	r2, r2, #1792	@ 0x700
 8004eb8:	0203      	lsls	r3, r0, #8
 8004eba:	0412      	lsls	r2, r2, #16
 8004ebc:	f403 63e0 	and.w	r3, r3, #1792	@ 0x700
 8004ec0:	0c12      	lsrs	r2, r2, #16
 8004ec2:	4313      	orrs	r3, r2
 8004ec4:	f043 63bf 	orr.w	r3, r3, #100139008	@ 0x5f80000
 8004ec8:	f443 3300 	orr.w	r3, r3, #131072	@ 0x20000
 8004ecc:	60cb      	str	r3, [r1, #12]
 8004ece:	4770      	bx	lr
 8004ed0:	e000ed00 	.word	0xe000ed00

08004ed4 <HAL_NVIC_SetPriority>:
 8004ed4:	4b16      	ldr	r3, [pc, #88]	@ (8004f30 <HAL_NVIC_SetPriority+0x5c>)
 8004ed6:	b530      	push	{r4, r5, lr}
 8004ed8:	68dc      	ldr	r4, [r3, #12]
 8004eda:	f3c4 2402 	ubfx	r4, r4, #8, #3
 8004ede:	f1c4 0307 	rsb	r3, r4, #7
 8004ee2:	1d25      	adds	r5, r4, #4
 8004ee4:	2b04      	cmp	r3, #4
 8004ee6:	bf28      	it	cs
 8004ee8:	2304      	movcs	r3, #4
 8004eea:	2d06      	cmp	r5, #6
 8004eec:	f04f 35ff 	mov.w	r5, #4294967295
 8004ef0:	bf8c      	ite	hi
 8004ef2:	3c03      	subhi	r4, #3
 8004ef4:	2400      	movls	r4, #0
 8004ef6:	fa05 f303 	lsl.w	r3, r5, r3
 8004efa:	ea21 0303 	bic.w	r3, r1, r3
 8004efe:	40a5      	lsls	r5, r4
 8004f00:	ea22 0205 	bic.w	r2, r2, r5
 8004f04:	40a3      	lsls	r3, r4
 8004f06:	2800      	cmp	r0, #0
 8004f08:	ea43 0302 	orr.w	r3, r3, r2
 8004f0c:	bfac      	ite	ge
 8004f0e:	f100 4060 	addge.w	r0, r0, #3758096384	@ 0xe0000000
 8004f12:	4a08      	ldrlt	r2, [pc, #32]	@ (8004f34 <HAL_NVIC_SetPriority+0x60>)
 8004f14:	ea4f 1303 	mov.w	r3, r3, lsl #4
 8004f18:	bfb8      	it	lt
 8004f1a:	f000 000f 	andlt.w	r0, r0, #15
 8004f1e:	b2db      	uxtb	r3, r3
 8004f20:	bfaa      	itet	ge
 8004f22:	f500 4061 	addge.w	r0, r0, #57600	@ 0xe100
 8004f26:	5413      	strblt	r3, [r2, r0]
 8004f28:	f880 3300 	strbge.w	r3, [r0, #768]	@ 0x300
 8004f2c:	bd30      	pop	{r4, r5, pc}
 8004f2e:	bf00      	nop
 8004f30:	e000ed00 	.word	0xe000ed00
 8004f34:	e000ed14 	.word	0xe000ed14

08004f38 <HAL_NVIC_EnableIRQ>:
 8004f38:	2800      	cmp	r0, #0
 8004f3a:	db07      	blt.n	8004f4c <HAL_NVIC_EnableIRQ+0x14>
 8004f3c:	4a04      	ldr	r2, [pc, #16]	@ (8004f50 <HAL_NVIC_EnableIRQ+0x18>)
 8004f3e:	0941      	lsrs	r1, r0, #5
 8004f40:	2301      	movs	r3, #1
 8004f42:	f000 001f 	and.w	r0, r0, #31
 8004f46:	4083      	lsls	r3, r0
 8004f48:	f842 3021 	str.w	r3, [r2, r1, lsl #2]
 8004f4c:	4770      	bx	lr
 8004f4e:	bf00      	nop
 8004f50:	e000e100 	.word	0xe000e100

08004f54 <HAL_SYSTICK_Config>:
 8004f54:	3801      	subs	r0, #1
 8004f56:	f1b0 7f80 	cmp.w	r0, #16777216	@ 0x1000000
 8004f5a:	d20b      	bcs.n	8004f74 <HAL_SYSTICK_Config+0x20>
 8004f5c:	f04f 23e0 	mov.w	r3, #3758153728	@ 0xe000e000
 8004f60:	4a05      	ldr	r2, [pc, #20]	@ (8004f78 <HAL_SYSTICK_Config+0x24>)
 8004f62:	6158      	str	r0, [r3, #20]
 8004f64:	21f0      	movs	r1, #240	@ 0xf0
 8004f66:	f882 1023 	strb.w	r1, [r2, #35]	@ 0x23
 8004f6a:	2000      	movs	r0, #0
 8004f6c:	2207      	movs	r2, #7
 8004f6e:	6198      	str	r0, [r3, #24]
 8004f70:	611a      	str	r2, [r3, #16]
 8004f72:	4770      	bx	lr
 8004f74:	2001      	movs	r0, #1
 8004f76:	4770      	bx	lr
 8004f78:	e000ed00 	.word	0xe000ed00

08004f7c <DMA_CalcBaseAndBitshift>:
 8004f7c:	6803      	ldr	r3, [r0, #0]
 8004f7e:	b510      	push	{r4, lr}
 8004f80:	4c08      	ldr	r4, [pc, #32]	@ (8004fa4 <DMA_CalcBaseAndBitshift+0x28>)
 8004f82:	4602      	mov	r2, r0
 8004f84:	b2d9      	uxtb	r1, r3
 8004f86:	3910      	subs	r1, #16
 8004f88:	2018      	movs	r0, #24
 8004f8a:	fbb1 f0f0 	udiv	r0, r1, r0
 8004f8e:	5c20      	ldrb	r0, [r4, r0]
 8004f90:	65d0      	str	r0, [r2, #92]	@ 0x5c
 8004f92:	f423 707f 	bic.w	r0, r3, #1020	@ 0x3fc
 8004f96:	f020 0003 	bic.w	r0, r0, #3
 8004f9a:	295f      	cmp	r1, #95	@ 0x5f
 8004f9c:	bf88      	it	hi
 8004f9e:	3004      	addhi	r0, #4
 8004fa0:	6590      	str	r0, [r2, #88]	@ 0x58
 8004fa2:	bd10      	pop	{r4, pc}
 8004fa4:	0800cab5 	.word	0x0800cab5

08004fa8 <HAL_DMA_Init>:
 8004fa8:	b570      	push	{r4, r5, r6, lr}
 8004faa:	4604      	mov	r4, r0
 8004fac:	f7ff fcba 	bl	8004924 <HAL_GetTick>
 8004fb0:	4605      	mov	r5, r0
 8004fb2:	2c00      	cmp	r4, #0
 8004fb4:	d060      	beq.n	8005078 <HAL_DMA_Init+0xd0>
 8004fb6:	2302      	movs	r3, #2
 8004fb8:	f884 3035 	strb.w	r3, [r4, #53]	@ 0x35
 8004fbc:	6822      	ldr	r2, [r4, #0]
 8004fbe:	2300      	movs	r3, #0
 8004fc0:	f884 3034 	strb.w	r3, [r4, #52]	@ 0x34
 8004fc4:	6813      	ldr	r3, [r2, #0]
 8004fc6:	f023 0301 	bic.w	r3, r3, #1
 8004fca:	6013      	str	r3, [r2, #0]
 8004fcc:	6822      	ldr	r2, [r4, #0]
 8004fce:	6813      	ldr	r3, [r2, #0]
 8004fd0:	07d8      	lsls	r0, r3, #31
 8004fd2:	d42e      	bmi.n	8005032 <HAL_DMA_Init+0x8a>
 8004fd4:	6813      	ldr	r3, [r2, #0]
 8004fd6:	4832      	ldr	r0, [pc, #200]	@ (80050a0 <HAL_DMA_Init+0xf8>)
 8004fd8:	69a1      	ldr	r1, [r4, #24]
 8004fda:	4018      	ands	r0, r3
 8004fdc:	e9d4 3501 	ldrd	r3, r5, [r4, #4]
 8004fe0:	432b      	orrs	r3, r5
 8004fe2:	68e5      	ldr	r5, [r4, #12]
 8004fe4:	432b      	orrs	r3, r5
 8004fe6:	6925      	ldr	r5, [r4, #16]
 8004fe8:	432b      	orrs	r3, r5
 8004fea:	6965      	ldr	r5, [r4, #20]
 8004fec:	432b      	orrs	r3, r5
 8004fee:	69e5      	ldr	r5, [r4, #28]
 8004ff0:	430b      	orrs	r3, r1
 8004ff2:	432b      	orrs	r3, r5
 8004ff4:	6a25      	ldr	r5, [r4, #32]
 8004ff6:	432b      	orrs	r3, r5
 8004ff8:	4303      	orrs	r3, r0
 8004ffa:	6a60      	ldr	r0, [r4, #36]	@ 0x24
 8004ffc:	2804      	cmp	r0, #4
 8004ffe:	bf02      	ittt	eq
 8005000:	e9d4 560b 	ldrdeq	r5, r6, [r4, #44]	@ 0x2c
 8005004:	4335      	orreq	r5, r6
 8005006:	432b      	orreq	r3, r5
 8005008:	6013      	str	r3, [r2, #0]
 800500a:	6953      	ldr	r3, [r2, #20]
 800500c:	2804      	cmp	r0, #4
 800500e:	f023 0307 	bic.w	r3, r3, #7
 8005012:	ea43 0300 	orr.w	r3, r3, r0
 8005016:	d135      	bne.n	8005084 <HAL_DMA_Init+0xdc>
 8005018:	6aa0      	ldr	r0, [r4, #40]	@ 0x28
 800501a:	6ae5      	ldr	r5, [r4, #44]	@ 0x2c
 800501c:	4303      	orrs	r3, r0
 800501e:	b38d      	cbz	r5, 8005084 <HAL_DMA_Init+0xdc>
 8005020:	b991      	cbnz	r1, 8005048 <HAL_DMA_Init+0xa0>
 8005022:	2801      	cmp	r0, #1
 8005024:	d020      	beq.n	8005068 <HAL_DMA_Init+0xc0>
 8005026:	f030 0102 	bics.w	r1, r0, #2
 800502a:	d12b      	bne.n	8005084 <HAL_DMA_Init+0xdc>
 800502c:	01e9      	lsls	r1, r5, #7
 800502e:	d529      	bpl.n	8005084 <HAL_DMA_Init+0xdc>
 8005030:	e01d      	b.n	800506e <HAL_DMA_Init+0xc6>
 8005032:	f7ff fc77 	bl	8004924 <HAL_GetTick>
 8005036:	1b40      	subs	r0, r0, r5
 8005038:	2805      	cmp	r0, #5
 800503a:	d9c7      	bls.n	8004fcc <HAL_DMA_Init+0x24>
 800503c:	2320      	movs	r3, #32
 800503e:	2003      	movs	r0, #3
 8005040:	6563      	str	r3, [r4, #84]	@ 0x54
 8005042:	f884 0035 	strb.w	r0, [r4, #53]	@ 0x35
 8005046:	bd70      	pop	{r4, r5, r6, pc}
 8005048:	f5b1 5f00 	cmp.w	r1, #8192	@ 0x2000
 800504c:	d116      	bne.n	800507c <HAL_DMA_Init+0xd4>
 800504e:	2803      	cmp	r0, #3
 8005050:	d818      	bhi.n	8005084 <HAL_DMA_Init+0xdc>
 8005052:	a101      	add	r1, pc, #4	@ (adr r1, 8005058 <HAL_DMA_Init+0xb0>)
 8005054:	f851 f020 	ldr.w	pc, [r1, r0, lsl #2]
 8005058:	0800506f 	.word	0x0800506f
 800505c:	0800502d 	.word	0x0800502d
 8005060:	0800506f 	.word	0x0800506f
 8005064:	08005069 	.word	0x08005069
 8005068:	f1b5 7fc0 	cmp.w	r5, #25165824	@ 0x1800000
 800506c:	d10a      	bne.n	8005084 <HAL_DMA_Init+0xdc>
 800506e:	2340      	movs	r3, #64	@ 0x40
 8005070:	6563      	str	r3, [r4, #84]	@ 0x54
 8005072:	2301      	movs	r3, #1
 8005074:	f884 3035 	strb.w	r3, [r4, #53]	@ 0x35
 8005078:	2001      	movs	r0, #1
 800507a:	e7e4      	b.n	8005046 <HAL_DMA_Init+0x9e>
 800507c:	2802      	cmp	r0, #2
 800507e:	d9f6      	bls.n	800506e <HAL_DMA_Init+0xc6>
 8005080:	2803      	cmp	r0, #3
 8005082:	d0d3      	beq.n	800502c <HAL_DMA_Init+0x84>
 8005084:	6153      	str	r3, [r2, #20]
 8005086:	4620      	mov	r0, r4
 8005088:	f7ff ff78 	bl	8004f7c <DMA_CalcBaseAndBitshift>
 800508c:	6de2      	ldr	r2, [r4, #92]	@ 0x5c
 800508e:	233f      	movs	r3, #63	@ 0x3f
 8005090:	4093      	lsls	r3, r2
 8005092:	6083      	str	r3, [r0, #8]
 8005094:	2000      	movs	r0, #0
 8005096:	2301      	movs	r3, #1
 8005098:	6560      	str	r0, [r4, #84]	@ 0x54
 800509a:	f884 3035 	strb.w	r3, [r4, #53]	@ 0x35
 800509e:	e7d2      	b.n	8005046 <HAL_DMA_Init+0x9e>
 80050a0:	f010803f 	.word	0xf010803f

080050a4 <HAL_DMA_Start_IT>:
 80050a4:	b570      	push	{r4, r5, r6, lr}
 80050a6:	f890 4034 	ldrb.w	r4, [r0, #52]	@ 0x34
 80050aa:	6d86      	ldr	r6, [r0, #88]	@ 0x58
 80050ac:	2c01      	cmp	r4, #1
 80050ae:	d030      	beq.n	8005112 <HAL_DMA_Start_IT+0x6e>
 80050b0:	2401      	movs	r4, #1
 80050b2:	f880 4034 	strb.w	r4, [r0, #52]	@ 0x34
 80050b6:	f890 4035 	ldrb.w	r4, [r0, #53]	@ 0x35
 80050ba:	2c01      	cmp	r4, #1
 80050bc:	f04f 0400 	mov.w	r4, #0
 80050c0:	d125      	bne.n	800510e <HAL_DMA_Start_IT+0x6a>
 80050c2:	2502      	movs	r5, #2
 80050c4:	f880 5035 	strb.w	r5, [r0, #53]	@ 0x35
 80050c8:	6544      	str	r4, [r0, #84]	@ 0x54
 80050ca:	6804      	ldr	r4, [r0, #0]
 80050cc:	6825      	ldr	r5, [r4, #0]
 80050ce:	f425 2580 	bic.w	r5, r5, #262144	@ 0x40000
 80050d2:	6025      	str	r5, [r4, #0]
 80050d4:	6063      	str	r3, [r4, #4]
 80050d6:	6883      	ldr	r3, [r0, #8]
 80050d8:	2b40      	cmp	r3, #64	@ 0x40
 80050da:	bf0e      	itee	eq
 80050dc:	60a2      	streq	r2, [r4, #8]
 80050de:	60a1      	strne	r1, [r4, #8]
 80050e0:	60e2      	strne	r2, [r4, #12]
 80050e2:	6dc2      	ldr	r2, [r0, #92]	@ 0x5c
 80050e4:	bf08      	it	eq
 80050e6:	60e1      	streq	r1, [r4, #12]
 80050e8:	233f      	movs	r3, #63	@ 0x3f
 80050ea:	4093      	lsls	r3, r2
 80050ec:	60b3      	str	r3, [r6, #8]
 80050ee:	6823      	ldr	r3, [r4, #0]
 80050f0:	f043 0316 	orr.w	r3, r3, #22
 80050f4:	6023      	str	r3, [r4, #0]
 80050f6:	6c03      	ldr	r3, [r0, #64]	@ 0x40
 80050f8:	b11b      	cbz	r3, 8005102 <HAL_DMA_Start_IT+0x5e>
 80050fa:	6823      	ldr	r3, [r4, #0]
 80050fc:	f043 0308 	orr.w	r3, r3, #8
 8005100:	6023      	str	r3, [r4, #0]
 8005102:	6823      	ldr	r3, [r4, #0]
 8005104:	f043 0301 	orr.w	r3, r3, #1
 8005108:	6023      	str	r3, [r4, #0]
 800510a:	2000      	movs	r0, #0
 800510c:	bd70      	pop	{r4, r5, r6, pc}
 800510e:	f880 4034 	strb.w	r4, [r0, #52]	@ 0x34
 8005112:	2002      	movs	r0, #2
 8005114:	e7fa      	b.n	800510c <HAL_DMA_Start_IT+0x68>

08005116 <HAL_DMA_Abort>:
 8005116:	b570      	push	{r4, r5, r6, lr}
 8005118:	4604      	mov	r4, r0
 800511a:	6d86      	ldr	r6, [r0, #88]	@ 0x58
 800511c:	f7ff fc02 	bl	8004924 <HAL_GetTick>
 8005120:	f894 3035 	ldrb.w	r3, [r4, #53]	@ 0x35
 8005124:	2b02      	cmp	r3, #2
 8005126:	4605      	mov	r5, r0
 8005128:	d006      	beq.n	8005138 <HAL_DMA_Abort+0x22>
 800512a:	2380      	movs	r3, #128	@ 0x80
 800512c:	6563      	str	r3, [r4, #84]	@ 0x54
 800512e:	2001      	movs	r0, #1
 8005130:	2300      	movs	r3, #0
 8005132:	f884 3034 	strb.w	r3, [r4, #52]	@ 0x34
 8005136:	bd70      	pop	{r4, r5, r6, pc}
 8005138:	6823      	ldr	r3, [r4, #0]
 800513a:	681a      	ldr	r2, [r3, #0]
 800513c:	f022 0216 	bic.w	r2, r2, #22
 8005140:	601a      	str	r2, [r3, #0]
 8005142:	695a      	ldr	r2, [r3, #20]
 8005144:	f022 0280 	bic.w	r2, r2, #128	@ 0x80
 8005148:	615a      	str	r2, [r3, #20]
 800514a:	6c22      	ldr	r2, [r4, #64]	@ 0x40
 800514c:	b90a      	cbnz	r2, 8005152 <HAL_DMA_Abort+0x3c>
 800514e:	6ca2      	ldr	r2, [r4, #72]	@ 0x48
 8005150:	b11a      	cbz	r2, 800515a <HAL_DMA_Abort+0x44>
 8005152:	681a      	ldr	r2, [r3, #0]
 8005154:	f022 0208 	bic.w	r2, r2, #8
 8005158:	601a      	str	r2, [r3, #0]
 800515a:	681a      	ldr	r2, [r3, #0]
 800515c:	f022 0201 	bic.w	r2, r2, #1
 8005160:	601a      	str	r2, [r3, #0]
 8005162:	6823      	ldr	r3, [r4, #0]
 8005164:	6818      	ldr	r0, [r3, #0]
 8005166:	f010 0001 	ands.w	r0, r0, #1
 800516a:	d107      	bne.n	800517c <HAL_DMA_Abort+0x66>
 800516c:	6de2      	ldr	r2, [r4, #92]	@ 0x5c
 800516e:	233f      	movs	r3, #63	@ 0x3f
 8005170:	4093      	lsls	r3, r2
 8005172:	60b3      	str	r3, [r6, #8]
 8005174:	2301      	movs	r3, #1
 8005176:	f884 3035 	strb.w	r3, [r4, #53]	@ 0x35
 800517a:	e7d9      	b.n	8005130 <HAL_DMA_Abort+0x1a>
 800517c:	f7ff fbd2 	bl	8004924 <HAL_GetTick>
 8005180:	1b40      	subs	r0, r0, r5
 8005182:	2805      	cmp	r0, #5
 8005184:	d9ed      	bls.n	8005162 <HAL_DMA_Abort+0x4c>
 8005186:	2320      	movs	r3, #32
 8005188:	2003      	movs	r0, #3
 800518a:	6563      	str	r3, [r4, #84]	@ 0x54
 800518c:	f884 0035 	strb.w	r0, [r4, #53]	@ 0x35
 8005190:	e7ce      	b.n	8005130 <HAL_DMA_Abort+0x1a>

08005192 <HAL_DMA_Abort_IT>:
 8005192:	f890 3035 	ldrb.w	r3, [r0, #53]	@ 0x35
 8005196:	2b02      	cmp	r3, #2
 8005198:	d003      	beq.n	80051a2 <HAL_DMA_Abort_IT+0x10>
 800519a:	2380      	movs	r3, #128	@ 0x80
 800519c:	6543      	str	r3, [r0, #84]	@ 0x54
 800519e:	2001      	movs	r0, #1
 80051a0:	4770      	bx	lr
 80051a2:	6802      	ldr	r2, [r0, #0]
 80051a4:	2305      	movs	r3, #5
 80051a6:	f880 3035 	strb.w	r3, [r0, #53]	@ 0x35
 80051aa:	6813      	ldr	r3, [r2, #0]
 80051ac:	f023 0301 	bic.w	r3, r3, #1
 80051b0:	6013      	str	r3, [r2, #0]
 80051b2:	2000      	movs	r0, #0
 80051b4:	4770      	bx	lr
	...

080051b8 <HAL_DMA_IRQHandler>:
 80051b8:	b5f7      	push	{r0, r1, r2, r4, r5, r6, r7, lr}
 80051ba:	2300      	movs	r3, #0
 80051bc:	9301      	str	r3, [sp, #4]
 80051be:	4b5c      	ldr	r3, [pc, #368]	@ (8005330 <HAL_DMA_IRQHandler+0x178>)
 80051c0:	6d85      	ldr	r5, [r0, #88]	@ 0x58
 80051c2:	681f      	ldr	r7, [r3, #0]
 80051c4:	6dc3      	ldr	r3, [r0, #92]	@ 0x5c
 80051c6:	682e      	ldr	r6, [r5, #0]
 80051c8:	2208      	movs	r2, #8
 80051ca:	409a      	lsls	r2, r3
 80051cc:	4232      	tst	r2, r6
 80051ce:	4604      	mov	r4, r0
 80051d0:	d00c      	beq.n	80051ec <HAL_DMA_IRQHandler+0x34>
 80051d2:	6801      	ldr	r1, [r0, #0]
 80051d4:	6808      	ldr	r0, [r1, #0]
 80051d6:	0740      	lsls	r0, r0, #29
 80051d8:	d508      	bpl.n	80051ec <HAL_DMA_IRQHandler+0x34>
 80051da:	6808      	ldr	r0, [r1, #0]
 80051dc:	f020 0004 	bic.w	r0, r0, #4
 80051e0:	6008      	str	r0, [r1, #0]
 80051e2:	60aa      	str	r2, [r5, #8]
 80051e4:	6d62      	ldr	r2, [r4, #84]	@ 0x54
 80051e6:	f042 0201 	orr.w	r2, r2, #1
 80051ea:	6562      	str	r2, [r4, #84]	@ 0x54
 80051ec:	2201      	movs	r2, #1
 80051ee:	409a      	lsls	r2, r3
 80051f0:	4232      	tst	r2, r6
 80051f2:	d008      	beq.n	8005206 <HAL_DMA_IRQHandler+0x4e>
 80051f4:	6821      	ldr	r1, [r4, #0]
 80051f6:	6949      	ldr	r1, [r1, #20]
 80051f8:	0609      	lsls	r1, r1, #24
 80051fa:	bf41      	itttt	mi
 80051fc:	60aa      	strmi	r2, [r5, #8]
 80051fe:	6d62      	ldrmi	r2, [r4, #84]	@ 0x54
 8005200:	f042 0202 	orrmi.w	r2, r2, #2
 8005204:	6562      	strmi	r2, [r4, #84]	@ 0x54
 8005206:	2204      	movs	r2, #4
 8005208:	409a      	lsls	r2, r3
 800520a:	4232      	tst	r2, r6
 800520c:	d008      	beq.n	8005220 <HAL_DMA_IRQHandler+0x68>
 800520e:	6821      	ldr	r1, [r4, #0]
 8005210:	6809      	ldr	r1, [r1, #0]
 8005212:	0788      	lsls	r0, r1, #30
 8005214:	bf41      	itttt	mi
 8005216:	60aa      	strmi	r2, [r5, #8]
 8005218:	6d62      	ldrmi	r2, [r4, #84]	@ 0x54
 800521a:	f042 0204 	orrmi.w	r2, r2, #4
 800521e:	6562      	strmi	r2, [r4, #84]	@ 0x54
 8005220:	2210      	movs	r2, #16
 8005222:	409a      	lsls	r2, r3
 8005224:	4232      	tst	r2, r6
 8005226:	d010      	beq.n	800524a <HAL_DMA_IRQHandler+0x92>
 8005228:	6823      	ldr	r3, [r4, #0]
 800522a:	6819      	ldr	r1, [r3, #0]
 800522c:	0709      	lsls	r1, r1, #28
 800522e:	d50c      	bpl.n	800524a <HAL_DMA_IRQHandler+0x92>
 8005230:	60aa      	str	r2, [r5, #8]
 8005232:	681a      	ldr	r2, [r3, #0]
 8005234:	0350      	lsls	r0, r2, #13
 8005236:	d537      	bpl.n	80052a8 <HAL_DMA_IRQHandler+0xf0>
 8005238:	681b      	ldr	r3, [r3, #0]
 800523a:	0319      	lsls	r1, r3, #12
 800523c:	d401      	bmi.n	8005242 <HAL_DMA_IRQHandler+0x8a>
 800523e:	6c23      	ldr	r3, [r4, #64]	@ 0x40
 8005240:	e000      	b.n	8005244 <HAL_DMA_IRQHandler+0x8c>
 8005242:	6ca3      	ldr	r3, [r4, #72]	@ 0x48
 8005244:	b10b      	cbz	r3, 800524a <HAL_DMA_IRQHandler+0x92>
 8005246:	4620      	mov	r0, r4
 8005248:	4798      	blx	r3
 800524a:	6de1      	ldr	r1, [r4, #92]	@ 0x5c
 800524c:	2220      	movs	r2, #32
 800524e:	408a      	lsls	r2, r1
 8005250:	4232      	tst	r2, r6
 8005252:	d03a      	beq.n	80052ca <HAL_DMA_IRQHandler+0x112>
 8005254:	6823      	ldr	r3, [r4, #0]
 8005256:	6818      	ldr	r0, [r3, #0]
 8005258:	06c6      	lsls	r6, r0, #27
 800525a:	d536      	bpl.n	80052ca <HAL_DMA_IRQHandler+0x112>
 800525c:	60aa      	str	r2, [r5, #8]
 800525e:	f894 2035 	ldrb.w	r2, [r4, #53]	@ 0x35
 8005262:	2a05      	cmp	r2, #5
 8005264:	681a      	ldr	r2, [r3, #0]
 8005266:	d127      	bne.n	80052b8 <HAL_DMA_IRQHandler+0x100>
 8005268:	f022 0216 	bic.w	r2, r2, #22
 800526c:	601a      	str	r2, [r3, #0]
 800526e:	695a      	ldr	r2, [r3, #20]
 8005270:	f022 0280 	bic.w	r2, r2, #128	@ 0x80
 8005274:	615a      	str	r2, [r3, #20]
 8005276:	6c22      	ldr	r2, [r4, #64]	@ 0x40
 8005278:	b90a      	cbnz	r2, 800527e <HAL_DMA_IRQHandler+0xc6>
 800527a:	6ca2      	ldr	r2, [r4, #72]	@ 0x48
 800527c:	b11a      	cbz	r2, 8005286 <HAL_DMA_IRQHandler+0xce>
 800527e:	681a      	ldr	r2, [r3, #0]
 8005280:	f022 0208 	bic.w	r2, r2, #8
 8005284:	601a      	str	r2, [r3, #0]
 8005286:	233f      	movs	r3, #63	@ 0x3f
 8005288:	408b      	lsls	r3, r1
 800528a:	60ab      	str	r3, [r5, #8]
 800528c:	2301      	movs	r3, #1
 800528e:	f884 3035 	strb.w	r3, [r4, #53]	@ 0x35
 8005292:	2300      	movs	r3, #0
 8005294:	f884 3034 	strb.w	r3, [r4, #52]	@ 0x34
 8005298:	6d23      	ldr	r3, [r4, #80]	@ 0x50
 800529a:	2b00      	cmp	r3, #0
 800529c:	d045      	beq.n	800532a <HAL_DMA_IRQHandler+0x172>
 800529e:	4620      	mov	r0, r4
 80052a0:	b003      	add	sp, #12
 80052a2:	e8bd 40f0 	ldmia.w	sp!, {r4, r5, r6, r7, lr}
 80052a6:	4718      	bx	r3
 80052a8:	681a      	ldr	r2, [r3, #0]
 80052aa:	05d2      	lsls	r2, r2, #23
 80052ac:	bf5e      	ittt	pl
 80052ae:	681a      	ldrpl	r2, [r3, #0]
 80052b0:	f022 0208 	bicpl.w	r2, r2, #8
 80052b4:	601a      	strpl	r2, [r3, #0]
 80052b6:	e7c2      	b.n	800523e <HAL_DMA_IRQHandler+0x86>
 80052b8:	0350      	lsls	r0, r2, #13
 80052ba:	d527      	bpl.n	800530c <HAL_DMA_IRQHandler+0x154>
 80052bc:	681b      	ldr	r3, [r3, #0]
 80052be:	0319      	lsls	r1, r3, #12
 80052c0:	d431      	bmi.n	8005326 <HAL_DMA_IRQHandler+0x16e>
 80052c2:	6c63      	ldr	r3, [r4, #68]	@ 0x44
 80052c4:	b10b      	cbz	r3, 80052ca <HAL_DMA_IRQHandler+0x112>
 80052c6:	4620      	mov	r0, r4
 80052c8:	4798      	blx	r3
 80052ca:	6d63      	ldr	r3, [r4, #84]	@ 0x54
 80052cc:	b36b      	cbz	r3, 800532a <HAL_DMA_IRQHandler+0x172>
 80052ce:	6d63      	ldr	r3, [r4, #84]	@ 0x54
 80052d0:	07da      	lsls	r2, r3, #31
 80052d2:	d519      	bpl.n	8005308 <HAL_DMA_IRQHandler+0x150>
 80052d4:	6822      	ldr	r2, [r4, #0]
 80052d6:	f44f 5316 	mov.w	r3, #9600	@ 0x2580
 80052da:	fbb7 f7f3 	udiv	r7, r7, r3
 80052de:	2305      	movs	r3, #5
 80052e0:	f884 3035 	strb.w	r3, [r4, #53]	@ 0x35
 80052e4:	6813      	ldr	r3, [r2, #0]
 80052e6:	f023 0301 	bic.w	r3, r3, #1
 80052ea:	6013      	str	r3, [r2, #0]
 80052ec:	9b01      	ldr	r3, [sp, #4]
 80052ee:	3301      	adds	r3, #1
 80052f0:	42bb      	cmp	r3, r7
 80052f2:	9301      	str	r3, [sp, #4]
 80052f4:	d802      	bhi.n	80052fc <HAL_DMA_IRQHandler+0x144>
 80052f6:	6813      	ldr	r3, [r2, #0]
 80052f8:	07db      	lsls	r3, r3, #31
 80052fa:	d4f7      	bmi.n	80052ec <HAL_DMA_IRQHandler+0x134>
 80052fc:	2301      	movs	r3, #1
 80052fe:	f884 3035 	strb.w	r3, [r4, #53]	@ 0x35
 8005302:	2300      	movs	r3, #0
 8005304:	f884 3034 	strb.w	r3, [r4, #52]	@ 0x34
 8005308:	6ce3      	ldr	r3, [r4, #76]	@ 0x4c
 800530a:	e7c6      	b.n	800529a <HAL_DMA_IRQHandler+0xe2>
 800530c:	681a      	ldr	r2, [r3, #0]
 800530e:	f412 7280 	ands.w	r2, r2, #256	@ 0x100
 8005312:	d108      	bne.n	8005326 <HAL_DMA_IRQHandler+0x16e>
 8005314:	6819      	ldr	r1, [r3, #0]
 8005316:	f021 0110 	bic.w	r1, r1, #16
 800531a:	6019      	str	r1, [r3, #0]
 800531c:	2301      	movs	r3, #1
 800531e:	f884 3035 	strb.w	r3, [r4, #53]	@ 0x35
 8005322:	f884 2034 	strb.w	r2, [r4, #52]	@ 0x34
 8005326:	6be3      	ldr	r3, [r4, #60]	@ 0x3c
 8005328:	e7cc      	b.n	80052c4 <HAL_DMA_IRQHandler+0x10c>
 800532a:	b003      	add	sp, #12
 800532c:	bdf0      	pop	{r4, r5, r6, r7, pc}
 800532e:	bf00      	nop
 8005330:	20000060 	.word	0x20000060

08005334 <HAL_DMA_GetState>:
 8005334:	f890 0035 	ldrb.w	r0, [r0, #53]	@ 0x35
 8005338:	4770      	bx	lr

0800533a <HAL_DMA_GetError>:
 800533a:	6d40      	ldr	r0, [r0, #84]	@ 0x54
 800533c:	4770      	bx	lr
	...

08005340 <HAL_GPIO_Init>:
 8005340:	e92d 4ff7 	stmdb	sp!, {r0, r1, r2, r4, r5, r6, r7, r8, r9, sl, fp, lr}
 8005344:	f8df 9180 	ldr.w	r9, [pc, #384]	@ 80054c8 <HAL_GPIO_Init+0x188>
 8005348:	4a5d      	ldr	r2, [pc, #372]	@ (80054c0 <HAL_GPIO_Init+0x180>)
 800534a:	2300      	movs	r3, #0
 800534c:	680d      	ldr	r5, [r1, #0]
 800534e:	2401      	movs	r4, #1
 8005350:	409c      	lsls	r4, r3
 8005352:	ea04 0605 	and.w	r6, r4, r5
 8005356:	43ac      	bics	r4, r5
 8005358:	f040 80a3 	bne.w	80054a2 <HAL_GPIO_Init+0x162>
 800535c:	684d      	ldr	r5, [r1, #4]
 800535e:	2703      	movs	r7, #3
 8005360:	f005 0403 	and.w	r4, r5, #3
 8005364:	ea4f 0843 	mov.w	r8, r3, lsl #1
 8005368:	fa07 fc08 	lsl.w	ip, r7, r8
 800536c:	1e67      	subs	r7, r4, #1
 800536e:	2f01      	cmp	r7, #1
 8005370:	ea6f 0c0c 	mvn.w	ip, ip
 8005374:	d834      	bhi.n	80053e0 <HAL_GPIO_Init+0xa0>
 8005376:	6887      	ldr	r7, [r0, #8]
 8005378:	ea07 0e0c 	and.w	lr, r7, ip
 800537c:	68cf      	ldr	r7, [r1, #12]
 800537e:	fa07 f708 	lsl.w	r7, r7, r8
 8005382:	ea47 070e 	orr.w	r7, r7, lr
 8005386:	6087      	str	r7, [r0, #8]
 8005388:	6847      	ldr	r7, [r0, #4]
 800538a:	ea27 0e06 	bic.w	lr, r7, r6
 800538e:	f3c5 1700 	ubfx	r7, r5, #4, #1
 8005392:	409f      	lsls	r7, r3
 8005394:	ea47 070e 	orr.w	r7, r7, lr
 8005398:	6047      	str	r7, [r0, #4]
 800539a:	68c7      	ldr	r7, [r0, #12]
 800539c:	ea07 0e0c 	and.w	lr, r7, ip
 80053a0:	688f      	ldr	r7, [r1, #8]
 80053a2:	fa07 f708 	lsl.w	r7, r7, r8
 80053a6:	ea47 070e 	orr.w	r7, r7, lr
 80053aa:	2c02      	cmp	r4, #2
 80053ac:	60c7      	str	r7, [r0, #12]
 80053ae:	d119      	bne.n	80053e4 <HAL_GPIO_Init+0xa4>
 80053b0:	ea4f 0ad3 	mov.w	sl, r3, lsr #3
 80053b4:	eb00 0a8a 	add.w	sl, r0, sl, lsl #2
 80053b8:	f003 0b07 	and.w	fp, r3, #7
 80053bc:	f8da 7020 	ldr.w	r7, [sl, #32]
 80053c0:	ea4f 0b8b 	mov.w	fp, fp, lsl #2
 80053c4:	f04f 0e0f 	mov.w	lr, #15
 80053c8:	fa0e fe0b 	lsl.w	lr, lr, fp
 80053cc:	ea27 0e0e 	bic.w	lr, r7, lr
 80053d0:	690f      	ldr	r7, [r1, #16]
 80053d2:	fa07 f70b 	lsl.w	r7, r7, fp
 80053d6:	ea47 070e 	orr.w	r7, r7, lr
 80053da:	f8ca 7020 	str.w	r7, [sl, #32]
 80053de:	e001      	b.n	80053e4 <HAL_GPIO_Init+0xa4>
 80053e0:	2c03      	cmp	r4, #3
 80053e2:	d1da      	bne.n	800539a <HAL_GPIO_Init+0x5a>
 80053e4:	6807      	ldr	r7, [r0, #0]
 80053e6:	fa04 f408 	lsl.w	r4, r4, r8
 80053ea:	ea07 070c 	and.w	r7, r7, ip
 80053ee:	433c      	orrs	r4, r7
 80053f0:	f415 3f40 	tst.w	r5, #196608	@ 0x30000
 80053f4:	6004      	str	r4, [r0, #0]
 80053f6:	d054      	beq.n	80054a2 <HAL_GPIO_Init+0x162>
 80053f8:	2400      	movs	r4, #0
 80053fa:	9401      	str	r4, [sp, #4]
 80053fc:	f8d9 4044 	ldr.w	r4, [r9, #68]	@ 0x44
 8005400:	f444 4480 	orr.w	r4, r4, #16384	@ 0x4000
 8005404:	f8c9 4044 	str.w	r4, [r9, #68]	@ 0x44
 8005408:	f8d9 4044 	ldr.w	r4, [r9, #68]	@ 0x44
 800540c:	f023 0703 	bic.w	r7, r3, #3
 8005410:	f107 4780 	add.w	r7, r7, #1073741824	@ 0x40000000
 8005414:	f404 4480 	and.w	r4, r4, #16384	@ 0x4000
 8005418:	f507 379c 	add.w	r7, r7, #79872	@ 0x13800
 800541c:	9401      	str	r4, [sp, #4]
 800541e:	f003 0c03 	and.w	ip, r3, #3
 8005422:	9c01      	ldr	r4, [sp, #4]
 8005424:	f8d7 e008 	ldr.w	lr, [r7, #8]
 8005428:	ea4f 0c8c 	mov.w	ip, ip, lsl #2
 800542c:	240f      	movs	r4, #15
 800542e:	fa04 f40c 	lsl.w	r4, r4, ip
 8005432:	ea2e 0e04 	bic.w	lr, lr, r4
 8005436:	4c23      	ldr	r4, [pc, #140]	@ (80054c4 <HAL_GPIO_Init+0x184>)
 8005438:	42a0      	cmp	r0, r4
 800543a:	d039      	beq.n	80054b0 <HAL_GPIO_Init+0x170>
 800543c:	f504 6480 	add.w	r4, r4, #1024	@ 0x400
 8005440:	42a0      	cmp	r0, r4
 8005442:	d037      	beq.n	80054b4 <HAL_GPIO_Init+0x174>
 8005444:	f504 6480 	add.w	r4, r4, #1024	@ 0x400
 8005448:	42a0      	cmp	r0, r4
 800544a:	d035      	beq.n	80054b8 <HAL_GPIO_Init+0x178>
 800544c:	f504 6480 	add.w	r4, r4, #1024	@ 0x400
 8005450:	42a0      	cmp	r0, r4
 8005452:	d033      	beq.n	80054bc <HAL_GPIO_Init+0x17c>
 8005454:	f504 6480 	add.w	r4, r4, #1024	@ 0x400
 8005458:	42a0      	cmp	r0, r4
 800545a:	bf14      	ite	ne
 800545c:	2407      	movne	r4, #7
 800545e:	2404      	moveq	r4, #4
 8005460:	fa04 f40c 	lsl.w	r4, r4, ip
 8005464:	ea44 040e 	orr.w	r4, r4, lr
 8005468:	60bc      	str	r4, [r7, #8]
 800546a:	6894      	ldr	r4, [r2, #8]
 800546c:	43f7      	mvns	r7, r6
 800546e:	f415 1f80 	tst.w	r5, #1048576	@ 0x100000
 8005472:	bf0c      	ite	eq
 8005474:	403c      	andeq	r4, r7
 8005476:	4334      	orrne	r4, r6
 8005478:	6094      	str	r4, [r2, #8]
 800547a:	68d4      	ldr	r4, [r2, #12]
 800547c:	f415 1f00 	tst.w	r5, #2097152	@ 0x200000
 8005480:	bf0c      	ite	eq
 8005482:	403c      	andeq	r4, r7
 8005484:	4334      	orrne	r4, r6
 8005486:	60d4      	str	r4, [r2, #12]
 8005488:	6854      	ldr	r4, [r2, #4]
 800548a:	f415 3f00 	tst.w	r5, #131072	@ 0x20000
 800548e:	bf0c      	ite	eq
 8005490:	403c      	andeq	r4, r7
 8005492:	4334      	orrne	r4, r6
 8005494:	6054      	str	r4, [r2, #4]
 8005496:	6814      	ldr	r4, [r2, #0]
 8005498:	03ed      	lsls	r5, r5, #15
 800549a:	bf54      	ite	pl
 800549c:	403c      	andpl	r4, r7
 800549e:	4334      	orrmi	r4, r6
 80054a0:	6014      	str	r4, [r2, #0]
 80054a2:	3301      	adds	r3, #1
 80054a4:	2b10      	cmp	r3, #16
 80054a6:	f47f af51 	bne.w	800534c <HAL_GPIO_Init+0xc>
 80054aa:	b003      	add	sp, #12
 80054ac:	e8bd 8ff0 	ldmia.w	sp!, {r4, r5, r6, r7, r8, r9, sl, fp, pc}
 80054b0:	2400      	movs	r4, #0
 80054b2:	e7d5      	b.n	8005460 <HAL_GPIO_Init+0x120>
 80054b4:	2401      	movs	r4, #1
 80054b6:	e7d3      	b.n	8005460 <HAL_GPIO_Init+0x120>
 80054b8:	2402      	movs	r4, #2
 80054ba:	e7d1      	b.n	8005460 <HAL_GPIO_Init+0x120>
 80054bc:	2403      	movs	r4, #3
 80054be:	e7cf      	b.n	8005460 <HAL_GPIO_Init+0x120>
 80054c0:	40013c00 	.word	0x40013c00
 80054c4:	40020000 	.word	0x40020000
 80054c8:	40023800 	.word	0x40023800

080054cc <HAL_GPIO_WritePin>:
 80054cc:	b10a      	cbz	r2, 80054d2 <HAL_GPIO_WritePin+0x6>
 80054ce:	6181      	str	r1, [r0, #24]
 80054d0:	4770      	bx	lr
 80054d2:	0409      	lsls	r1, r1, #16
 80054d4:	e7fb      	b.n	80054ce <HAL_GPIO_WritePin+0x2>

080054d6 <HAL_GPIO_TogglePin>:
 80054d6:	6943      	ldr	r3, [r0, #20]
 80054d8:	ea01 0203 	and.w	r2, r1, r3
 80054dc:	ea21 0103 	bic.w	r1, r1, r3
 80054e0:	ea41 4102 	orr.w	r1, r1, r2, lsl #16
 80054e4:	6181      	str	r1, [r0, #24]
 80054e6:	4770      	bx	lr

080054e8 <I2C_IsAcknowledgeFailed>:
 80054e8:	6801      	ldr	r1, [r0, #0]
 80054ea:	694b      	ldr	r3, [r1, #20]
 80054ec:	f413 6380 	ands.w	r3, r3, #1024	@ 0x400
 80054f0:	f04f 0200 	mov.w	r2, #0
 80054f4:	d010      	beq.n	8005518 <I2C_IsAcknowledgeFailed+0x30>
 80054f6:	f46f 6380 	mvn.w	r3, #1024	@ 0x400
 80054fa:	614b      	str	r3, [r1, #20]
 80054fc:	2320      	movs	r3, #32
 80054fe:	6302      	str	r2, [r0, #48]	@ 0x30
 8005500:	f880 303d 	strb.w	r3, [r0, #61]	@ 0x3d
 8005504:	f880 203e 	strb.w	r2, [r0, #62]	@ 0x3e
 8005508:	6c03      	ldr	r3, [r0, #64]	@ 0x40
 800550a:	f880 203c 	strb.w	r2, [r0, #60]	@ 0x3c
 800550e:	f043 0304 	orr.w	r3, r3, #4
 8005512:	6403      	str	r3, [r0, #64]	@ 0x40
 8005514:	2001      	movs	r0, #1
 8005516:	4770      	bx	lr
 8005518:	4618      	mov	r0, r3
 800551a:	4770      	bx	lr

0800551c <I2C_WaitOnFlagUntilTimeout>:
 800551c:	e92d 46f8 	stmdb	sp!, {r3, r4, r5, r6, r7, r9, sl, lr}
 8005520:	4606      	mov	r6, r0
 8005522:	460f      	mov	r7, r1
 8005524:	4691      	mov	r9, r2
 8005526:	461d      	mov	r5, r3
 8005528:	ea4f 4a11 	mov.w	sl, r1, lsr #16
 800552c:	6833      	ldr	r3, [r6, #0]
 800552e:	f1ba 0f01 	cmp.w	sl, #1
 8005532:	bf0c      	ite	eq
 8005534:	695c      	ldreq	r4, [r3, #20]
 8005536:	699c      	ldrne	r4, [r3, #24]
 8005538:	ea27 0404 	bic.w	r4, r7, r4
 800553c:	b2a4      	uxth	r4, r4
 800553e:	fab4 f484 	clz	r4, r4
 8005542:	0964      	lsrs	r4, r4, #5
 8005544:	45a1      	cmp	r9, r4
 8005546:	d001      	beq.n	800554c <I2C_WaitOnFlagUntilTimeout+0x30>
 8005548:	2000      	movs	r0, #0
 800554a:	e025      	b.n	8005598 <I2C_WaitOnFlagUntilTimeout+0x7c>
 800554c:	1c6a      	adds	r2, r5, #1
 800554e:	d0ee      	beq.n	800552e <I2C_WaitOnFlagUntilTimeout+0x12>
 8005550:	f7ff f9e8 	bl	8004924 <HAL_GetTick>
 8005554:	9b08      	ldr	r3, [sp, #32]
 8005556:	1ac0      	subs	r0, r0, r3
 8005558:	42a8      	cmp	r0, r5
 800555a:	d801      	bhi.n	8005560 <I2C_WaitOnFlagUntilTimeout+0x44>
 800555c:	2d00      	cmp	r5, #0
 800555e:	d1e5      	bne.n	800552c <I2C_WaitOnFlagUntilTimeout+0x10>
 8005560:	6833      	ldr	r3, [r6, #0]
 8005562:	f1ba 0f01 	cmp.w	sl, #1
 8005566:	bf0c      	ite	eq
 8005568:	695b      	ldreq	r3, [r3, #20]
 800556a:	699b      	ldrne	r3, [r3, #24]
 800556c:	ea27 0303 	bic.w	r3, r7, r3
 8005570:	b29b      	uxth	r3, r3
 8005572:	fab3 f383 	clz	r3, r3
 8005576:	095b      	lsrs	r3, r3, #5
 8005578:	4599      	cmp	r9, r3
 800557a:	d1d7      	bne.n	800552c <I2C_WaitOnFlagUntilTimeout+0x10>
 800557c:	2300      	movs	r3, #0
 800557e:	2220      	movs	r2, #32
 8005580:	6333      	str	r3, [r6, #48]	@ 0x30
 8005582:	f886 203d 	strb.w	r2, [r6, #61]	@ 0x3d
 8005586:	f886 303e 	strb.w	r3, [r6, #62]	@ 0x3e
 800558a:	6c32      	ldr	r2, [r6, #64]	@ 0x40
 800558c:	f886 303c 	strb.w	r3, [r6, #60]	@ 0x3c
 8005590:	f042 0220 	orr.w	r2, r2, #32
 8005594:	6432      	str	r2, [r6, #64]	@ 0x40
 8005596:	2001      	movs	r0, #1
 8005598:	e8bd 86f8 	ldmia.w	sp!, {r3, r4, r5, r6, r7, r9, sl, pc}

0800559c <I2C_WaitOnMasterAddressFlagUntilTimeout>:
 800559c:	e92d 41f0 	stmdb	sp!, {r4, r5, r6, r7, r8, lr}
 80055a0:	4604      	mov	r4, r0
 80055a2:	460f      	mov	r7, r1
 80055a4:	4616      	mov	r6, r2
 80055a6:	4698      	mov	r8, r3
 80055a8:	6825      	ldr	r5, [r4, #0]
 80055aa:	6968      	ldr	r0, [r5, #20]
 80055ac:	ea27 0000 	bic.w	r0, r7, r0
 80055b0:	b280      	uxth	r0, r0
 80055b2:	b1c0      	cbz	r0, 80055e6 <I2C_WaitOnMasterAddressFlagUntilTimeout+0x4a>
 80055b4:	696b      	ldr	r3, [r5, #20]
 80055b6:	055a      	lsls	r2, r3, #21
 80055b8:	d517      	bpl.n	80055ea <I2C_WaitOnMasterAddressFlagUntilTimeout+0x4e>
 80055ba:	682b      	ldr	r3, [r5, #0]
 80055bc:	f443 7300 	orr.w	r3, r3, #512	@ 0x200
 80055c0:	602b      	str	r3, [r5, #0]
 80055c2:	f46f 6380 	mvn.w	r3, #1024	@ 0x400
 80055c6:	616b      	str	r3, [r5, #20]
 80055c8:	2220      	movs	r2, #32
 80055ca:	2300      	movs	r3, #0
 80055cc:	6323      	str	r3, [r4, #48]	@ 0x30
 80055ce:	f884 203d 	strb.w	r2, [r4, #61]	@ 0x3d
 80055d2:	f884 303e 	strb.w	r3, [r4, #62]	@ 0x3e
 80055d6:	6c23      	ldr	r3, [r4, #64]	@ 0x40
 80055d8:	f043 0304 	orr.w	r3, r3, #4
 80055dc:	6423      	str	r3, [r4, #64]	@ 0x40
 80055de:	2300      	movs	r3, #0
 80055e0:	f884 303c 	strb.w	r3, [r4, #60]	@ 0x3c
 80055e4:	2001      	movs	r0, #1
 80055e6:	e8bd 81f0 	ldmia.w	sp!, {r4, r5, r6, r7, r8, pc}
 80055ea:	1c73      	adds	r3, r6, #1
 80055ec:	d0dd      	beq.n	80055aa <I2C_WaitOnMasterAddressFlagUntilTimeout+0xe>
 80055ee:	f7ff f999 	bl	8004924 <HAL_GetTick>
 80055f2:	eba0 0008 	sub.w	r0, r0, r8
 80055f6:	42b0      	cmp	r0, r6
 80055f8:	d801      	bhi.n	80055fe <I2C_WaitOnMasterAddressFlagUntilTimeout+0x62>
 80055fa:	2e00      	cmp	r6, #0
 80055fc:	d1d4      	bne.n	80055a8 <I2C_WaitOnMasterAddressFlagUntilTimeout+0xc>
 80055fe:	6823      	ldr	r3, [r4, #0]
 8005600:	695a      	ldr	r2, [r3, #20]
 8005602:	ea27 0202 	bic.w	r2, r7, r2
 8005606:	b292      	uxth	r2, r2
 8005608:	2a00      	cmp	r2, #0
 800560a:	d0cd      	beq.n	80055a8 <I2C_WaitOnMasterAddressFlagUntilTimeout+0xc>
 800560c:	2300      	movs	r3, #0
 800560e:	2220      	movs	r2, #32
 8005610:	6323      	str	r3, [r4, #48]	@ 0x30
 8005612:	f884 203d 	strb.w	r2, [r4, #61]	@ 0x3d
 8005616:	f884 303e 	strb.w	r3, [r4, #62]	@ 0x3e
 800561a:	6c23      	ldr	r3, [r4, #64]	@ 0x40
 800561c:	4313      	orrs	r3, r2
 800561e:	e7dd      	b.n	80055dc <I2C_WaitOnMasterAddressFlagUntilTimeout+0x40>

08005620 <I2C_WaitOnTXEFlagUntilTimeout>:
 8005620:	b570      	push	{r4, r5, r6, lr}
 8005622:	4604      	mov	r4, r0
 8005624:	460d      	mov	r5, r1
 8005626:	4616      	mov	r6, r2
 8005628:	6823      	ldr	r3, [r4, #0]
 800562a:	695b      	ldr	r3, [r3, #20]
 800562c:	061b      	lsls	r3, r3, #24
 800562e:	d501      	bpl.n	8005634 <I2C_WaitOnTXEFlagUntilTimeout+0x14>
 8005630:	2000      	movs	r0, #0
 8005632:	e01e      	b.n	8005672 <I2C_WaitOnTXEFlagUntilTimeout+0x52>
 8005634:	4620      	mov	r0, r4
 8005636:	f7ff ff57 	bl	80054e8 <I2C_IsAcknowledgeFailed>
 800563a:	b9c8      	cbnz	r0, 8005670 <I2C_WaitOnTXEFlagUntilTimeout+0x50>
 800563c:	1c6a      	adds	r2, r5, #1
 800563e:	d0f3      	beq.n	8005628 <I2C_WaitOnTXEFlagUntilTimeout+0x8>
 8005640:	f7ff f970 	bl	8004924 <HAL_GetTick>
 8005644:	1b80      	subs	r0, r0, r6
 8005646:	42a8      	cmp	r0, r5
 8005648:	d801      	bhi.n	800564e <I2C_WaitOnTXEFlagUntilTimeout+0x2e>
 800564a:	2d00      	cmp	r5, #0
 800564c:	d1ec      	bne.n	8005628 <I2C_WaitOnTXEFlagUntilTimeout+0x8>
 800564e:	6823      	ldr	r3, [r4, #0]
 8005650:	695b      	ldr	r3, [r3, #20]
 8005652:	f013 0380 	ands.w	r3, r3, #128	@ 0x80
 8005656:	d1e7      	bne.n	8005628 <I2C_WaitOnTXEFlagUntilTimeout+0x8>
 8005658:	2220      	movs	r2, #32
 800565a:	6323      	str	r3, [r4, #48]	@ 0x30
 800565c:	f884 203d 	strb.w	r2, [r4, #61]	@ 0x3d
 8005660:	f884 303e 	strb.w	r3, [r4, #62]	@ 0x3e
 8005664:	6c22      	ldr	r2, [r4, #64]	@ 0x40
 8005666:	f884 303c 	strb.w	r3, [r4, #60]	@ 0x3c
 800566a:	f042 0220 	orr.w	r2, r2, #32
 800566e:	6422      	str	r2, [r4, #64]	@ 0x40
 8005670:	2001      	movs	r0, #1
 8005672:	bd70      	pop	{r4, r5, r6, pc}

08005674 <I2C_RequestMemoryWrite>:
 8005674:	e92d 43f0 	stmdb	sp!, {r4, r5, r6, r7, r8, r9, lr}
 8005678:	4615      	mov	r5, r2
 800567a:	6802      	ldr	r2, [r0, #0]
 800567c:	b085      	sub	sp, #20
 800567e:	e9dd 780c 	ldrd	r7, r8, [sp, #48]	@ 0x30
 8005682:	4699      	mov	r9, r3
 8005684:	6813      	ldr	r3, [r2, #0]
 8005686:	f443 7380 	orr.w	r3, r3, #256	@ 0x100
 800568a:	6013      	str	r3, [r2, #0]
 800568c:	460e      	mov	r6, r1
 800568e:	463b      	mov	r3, r7
 8005690:	f8cd 8000 	str.w	r8, [sp]
 8005694:	2200      	movs	r2, #0
 8005696:	f04f 1101 	mov.w	r1, #65537	@ 0x10001
 800569a:	4604      	mov	r4, r0
 800569c:	f7ff ff3e 	bl	800551c <I2C_WaitOnFlagUntilTimeout>
 80056a0:	6823      	ldr	r3, [r4, #0]
 80056a2:	b138      	cbz	r0, 80056b4 <I2C_RequestMemoryWrite+0x40>
 80056a4:	681b      	ldr	r3, [r3, #0]
 80056a6:	05db      	lsls	r3, r3, #23
 80056a8:	d502      	bpl.n	80056b0 <I2C_RequestMemoryWrite+0x3c>
 80056aa:	f44f 7300 	mov.w	r3, #512	@ 0x200
 80056ae:	6423      	str	r3, [r4, #64]	@ 0x40
 80056b0:	2603      	movs	r6, #3
 80056b2:	e020      	b.n	80056f6 <I2C_RequestMemoryWrite+0x82>
 80056b4:	f006 06fe 	and.w	r6, r6, #254	@ 0xfe
 80056b8:	611e      	str	r6, [r3, #16]
 80056ba:	491a      	ldr	r1, [pc, #104]	@ (8005724 <I2C_RequestMemoryWrite+0xb0>)
 80056bc:	4643      	mov	r3, r8
 80056be:	463a      	mov	r2, r7
 80056c0:	4620      	mov	r0, r4
 80056c2:	f7ff ff6b 	bl	800559c <I2C_WaitOnMasterAddressFlagUntilTimeout>
 80056c6:	b9a8      	cbnz	r0, 80056f4 <I2C_RequestMemoryWrite+0x80>
 80056c8:	6823      	ldr	r3, [r4, #0]
 80056ca:	9003      	str	r0, [sp, #12]
 80056cc:	695a      	ldr	r2, [r3, #20]
 80056ce:	9203      	str	r2, [sp, #12]
 80056d0:	699b      	ldr	r3, [r3, #24]
 80056d2:	9303      	str	r3, [sp, #12]
 80056d4:	4642      	mov	r2, r8
 80056d6:	4639      	mov	r1, r7
 80056d8:	4620      	mov	r0, r4
 80056da:	9b03      	ldr	r3, [sp, #12]
 80056dc:	f7ff ffa0 	bl	8005620 <I2C_WaitOnTXEFlagUntilTimeout>
 80056e0:	4606      	mov	r6, r0
 80056e2:	b160      	cbz	r0, 80056fe <I2C_RequestMemoryWrite+0x8a>
 80056e4:	6c23      	ldr	r3, [r4, #64]	@ 0x40
 80056e6:	2b04      	cmp	r3, #4
 80056e8:	bf01      	itttt	eq
 80056ea:	6822      	ldreq	r2, [r4, #0]
 80056ec:	6813      	ldreq	r3, [r2, #0]
 80056ee:	f443 7300 	orreq.w	r3, r3, #512	@ 0x200
 80056f2:	6013      	streq	r3, [r2, #0]
 80056f4:	2601      	movs	r6, #1
 80056f6:	4630      	mov	r0, r6
 80056f8:	b005      	add	sp, #20
 80056fa:	e8bd 83f0 	ldmia.w	sp!, {r4, r5, r6, r7, r8, r9, pc}
 80056fe:	f1b9 0f01 	cmp.w	r9, #1
 8005702:	6823      	ldr	r3, [r4, #0]
 8005704:	d102      	bne.n	800570c <I2C_RequestMemoryWrite+0x98>
 8005706:	b2ed      	uxtb	r5, r5
 8005708:	611d      	str	r5, [r3, #16]
 800570a:	e7f4      	b.n	80056f6 <I2C_RequestMemoryWrite+0x82>
 800570c:	0a2a      	lsrs	r2, r5, #8
 800570e:	611a      	str	r2, [r3, #16]
 8005710:	4639      	mov	r1, r7
 8005712:	4642      	mov	r2, r8
 8005714:	4620      	mov	r0, r4
 8005716:	f7ff ff83 	bl	8005620 <I2C_WaitOnTXEFlagUntilTimeout>
 800571a:	2800      	cmp	r0, #0
 800571c:	d1e2      	bne.n	80056e4 <I2C_RequestMemoryWrite+0x70>
 800571e:	6823      	ldr	r3, [r4, #0]
 8005720:	e7f1      	b.n	8005706 <I2C_RequestMemoryWrite+0x92>
 8005722:	bf00      	nop
 8005724:	00010002 	.word	0x00010002

08005728 <I2C_RequestMemoryRead>:
 8005728:	e92d 47ff 	stmdb	sp!, {r0, r1, r2, r3, r4, r5, r6, r7, r8, r9, sl, lr}
 800572c:	469a      	mov	sl, r3
 800572e:	6803      	ldr	r3, [r0, #0]
 8005730:	4615      	mov	r5, r2
 8005732:	681a      	ldr	r2, [r3, #0]
 8005734:	f442 6280 	orr.w	r2, r2, #1024	@ 0x400
 8005738:	601a      	str	r2, [r3, #0]
 800573a:	681a      	ldr	r2, [r3, #0]
 800573c:	e9dd 780c 	ldrd	r7, r8, [sp, #48]	@ 0x30
 8005740:	f442 7280 	orr.w	r2, r2, #256	@ 0x100
 8005744:	601a      	str	r2, [r3, #0]
 8005746:	460e      	mov	r6, r1
 8005748:	463b      	mov	r3, r7
 800574a:	f8cd 8000 	str.w	r8, [sp]
 800574e:	2200      	movs	r2, #0
 8005750:	f04f 1101 	mov.w	r1, #65537	@ 0x10001
 8005754:	4604      	mov	r4, r0
 8005756:	f7ff fee1 	bl	800551c <I2C_WaitOnFlagUntilTimeout>
 800575a:	6823      	ldr	r3, [r4, #0]
 800575c:	b138      	cbz	r0, 800576e <I2C_RequestMemoryRead+0x46>
 800575e:	681b      	ldr	r3, [r3, #0]
 8005760:	05db      	lsls	r3, r3, #23
 8005762:	bf44      	itt	mi
 8005764:	f44f 7300 	movmi.w	r3, #512	@ 0x200
 8005768:	6423      	strmi	r3, [r4, #64]	@ 0x40
 800576a:	2003      	movs	r0, #3
 800576c:	e021      	b.n	80057b2 <I2C_RequestMemoryRead+0x8a>
 800576e:	fa5f f986 	uxtb.w	r9, r6
 8005772:	f006 06fe 	and.w	r6, r6, #254	@ 0xfe
 8005776:	611e      	str	r6, [r3, #16]
 8005778:	492b      	ldr	r1, [pc, #172]	@ (8005828 <I2C_RequestMemoryRead+0x100>)
 800577a:	4643      	mov	r3, r8
 800577c:	463a      	mov	r2, r7
 800577e:	4620      	mov	r0, r4
 8005780:	f7ff ff0c 	bl	800559c <I2C_WaitOnMasterAddressFlagUntilTimeout>
 8005784:	b9a0      	cbnz	r0, 80057b0 <I2C_RequestMemoryRead+0x88>
 8005786:	6823      	ldr	r3, [r4, #0]
 8005788:	9003      	str	r0, [sp, #12]
 800578a:	695a      	ldr	r2, [r3, #20]
 800578c:	9203      	str	r2, [sp, #12]
 800578e:	699b      	ldr	r3, [r3, #24]
 8005790:	9303      	str	r3, [sp, #12]
 8005792:	4642      	mov	r2, r8
 8005794:	4639      	mov	r1, r7
 8005796:	4620      	mov	r0, r4
 8005798:	9b03      	ldr	r3, [sp, #12]
 800579a:	f7ff ff41 	bl	8005620 <I2C_WaitOnTXEFlagUntilTimeout>
 800579e:	b158      	cbz	r0, 80057b8 <I2C_RequestMemoryRead+0x90>
 80057a0:	6c23      	ldr	r3, [r4, #64]	@ 0x40
 80057a2:	2b04      	cmp	r3, #4
 80057a4:	bf01      	itttt	eq
 80057a6:	6822      	ldreq	r2, [r4, #0]
 80057a8:	6813      	ldreq	r3, [r2, #0]
 80057aa:	f443 7300 	orreq.w	r3, r3, #512	@ 0x200
 80057ae:	6013      	streq	r3, [r2, #0]
 80057b0:	2001      	movs	r0, #1
 80057b2:	b004      	add	sp, #16
 80057b4:	e8bd 87f0 	ldmia.w	sp!, {r4, r5, r6, r7, r8, r9, sl, pc}
 80057b8:	f1ba 0f01 	cmp.w	sl, #1
 80057bc:	6823      	ldr	r3, [r4, #0]
 80057be:	d11a      	bne.n	80057f6 <I2C_RequestMemoryRead+0xce>
 80057c0:	b2ed      	uxtb	r5, r5
 80057c2:	4642      	mov	r2, r8
 80057c4:	611d      	str	r5, [r3, #16]
 80057c6:	4639      	mov	r1, r7
 80057c8:	4620      	mov	r0, r4
 80057ca:	f7ff ff29 	bl	8005620 <I2C_WaitOnTXEFlagUntilTimeout>
 80057ce:	4602      	mov	r2, r0
 80057d0:	2800      	cmp	r0, #0
 80057d2:	d1e5      	bne.n	80057a0 <I2C_RequestMemoryRead+0x78>
 80057d4:	6821      	ldr	r1, [r4, #0]
 80057d6:	680b      	ldr	r3, [r1, #0]
 80057d8:	f443 7380 	orr.w	r3, r3, #256	@ 0x100
 80057dc:	600b      	str	r3, [r1, #0]
 80057de:	4620      	mov	r0, r4
 80057e0:	f8cd 8000 	str.w	r8, [sp]
 80057e4:	463b      	mov	r3, r7
 80057e6:	f04f 1101 	mov.w	r1, #65537	@ 0x10001
 80057ea:	f7ff fe97 	bl	800551c <I2C_WaitOnFlagUntilTimeout>
 80057ee:	6822      	ldr	r2, [r4, #0]
 80057f0:	b160      	cbz	r0, 800580c <I2C_RequestMemoryRead+0xe4>
 80057f2:	6813      	ldr	r3, [r2, #0]
 80057f4:	e7b4      	b.n	8005760 <I2C_RequestMemoryRead+0x38>
 80057f6:	0a2a      	lsrs	r2, r5, #8
 80057f8:	611a      	str	r2, [r3, #16]
 80057fa:	4639      	mov	r1, r7
 80057fc:	4642      	mov	r2, r8
 80057fe:	4620      	mov	r0, r4
 8005800:	f7ff ff0e 	bl	8005620 <I2C_WaitOnTXEFlagUntilTimeout>
 8005804:	2800      	cmp	r0, #0
 8005806:	d1cb      	bne.n	80057a0 <I2C_RequestMemoryRead+0x78>
 8005808:	6823      	ldr	r3, [r4, #0]
 800580a:	e7d9      	b.n	80057c0 <I2C_RequestMemoryRead+0x98>
 800580c:	f049 0301 	orr.w	r3, r9, #1
 8005810:	6113      	str	r3, [r2, #16]
 8005812:	4905      	ldr	r1, [pc, #20]	@ (8005828 <I2C_RequestMemoryRead+0x100>)
 8005814:	4643      	mov	r3, r8
 8005816:	463a      	mov	r2, r7
 8005818:	4620      	mov	r0, r4
 800581a:	f7ff febf 	bl	800559c <I2C_WaitOnMasterAddressFlagUntilTimeout>
 800581e:	3800      	subs	r0, #0
 8005820:	bf18      	it	ne
 8005822:	2001      	movne	r0, #1
 8005824:	e7c5      	b.n	80057b2 <I2C_RequestMemoryRead+0x8a>
 8005826:	bf00      	nop
 8005828:	00010002 	.word	0x00010002

0800582c <I2C_WaitOnBTFFlagUntilTimeout>:
 800582c:	b570      	push	{r4, r5, r6, lr}
 800582e:	4604      	mov	r4, r0
 8005830:	460d      	mov	r5, r1
 8005832:	4616      	mov	r6, r2
 8005834:	6823      	ldr	r3, [r4, #0]
 8005836:	695b      	ldr	r3, [r3, #20]
 8005838:	075b      	lsls	r3, r3, #29
 800583a:	d501      	bpl.n	8005840 <I2C_WaitOnBTFFlagUntilTimeout+0x14>
 800583c:	2000      	movs	r0, #0
 800583e:	e01e      	b.n	800587e <I2C_WaitOnBTFFlagUntilTimeout+0x52>
 8005840:	4620      	mov	r0, r4
 8005842:	f7ff fe51 	bl	80054e8 <I2C_IsAcknowledgeFailed>
 8005846:	b9c8      	cbnz	r0, 800587c <I2C_WaitOnBTFFlagUntilTimeout+0x50>
 8005848:	1c6a      	adds	r2, r5, #1
 800584a:	d0f3      	beq.n	8005834 <I2C_WaitOnBTFFlagUntilTimeout+0x8>
 800584c:	f7ff f86a 	bl	8004924 <HAL_GetTick>
 8005850:	1b80      	subs	r0, r0, r6
 8005852:	42a8      	cmp	r0, r5
 8005854:	d801      	bhi.n	800585a <I2C_WaitOnBTFFlagUntilTimeout+0x2e>
 8005856:	2d00      	cmp	r5, #0
 8005858:	d1ec      	bne.n	8005834 <I2C_WaitOnBTFFlagUntilTimeout+0x8>
 800585a:	6823      	ldr	r3, [r4, #0]
 800585c:	695b      	ldr	r3, [r3, #20]
 800585e:	f013 0304 	ands.w	r3, r3, #4
 8005862:	d1e7      	bne.n	8005834 <I2C_WaitOnBTFFlagUntilTimeout+0x8>
 8005864:	2220      	movs	r2, #32
 8005866:	6323      	str	r3, [r4, #48]	@ 0x30
 8005868:	f884 203d 	strb.w	r2, [r4, #61]	@ 0x3d
 800586c:	f884 303e 	strb.w	r3, [r4, #62]	@ 0x3e
 8005870:	6c22      	ldr	r2, [r4, #64]	@ 0x40
 8005872:	f884 303c 	strb.w	r3, [r4, #60]	@ 0x3c
 8005876:	f042 0220 	orr.w	r2, r2, #32
 800587a:	6422      	str	r2, [r4, #64]	@ 0x40
 800587c:	2001      	movs	r0, #1
 800587e:	bd70      	pop	{r4, r5, r6, pc}

08005880 <I2C_WaitOnRXNEFlagUntilTimeout>:
 8005880:	b570      	push	{r4, r5, r6, lr}
 8005882:	4604      	mov	r4, r0
 8005884:	460d      	mov	r5, r1
 8005886:	4616      	mov	r6, r2
 8005888:	6821      	ldr	r1, [r4, #0]
 800588a:	694b      	ldr	r3, [r1, #20]
 800588c:	f013 0340 	ands.w	r3, r3, #64	@ 0x40
 8005890:	d001      	beq.n	8005896 <I2C_WaitOnRXNEFlagUntilTimeout+0x16>
 8005892:	2000      	movs	r0, #0
 8005894:	e011      	b.n	80058ba <I2C_WaitOnRXNEFlagUntilTimeout+0x3a>
 8005896:	694a      	ldr	r2, [r1, #20]
 8005898:	06d2      	lsls	r2, r2, #27
 800589a:	d50f      	bpl.n	80058bc <I2C_WaitOnRXNEFlagUntilTimeout+0x3c>
 800589c:	f06f 0210 	mvn.w	r2, #16
 80058a0:	614a      	str	r2, [r1, #20]
 80058a2:	2220      	movs	r2, #32
 80058a4:	6323      	str	r3, [r4, #48]	@ 0x30
 80058a6:	f884 203d 	strb.w	r2, [r4, #61]	@ 0x3d
 80058aa:	f884 303e 	strb.w	r3, [r4, #62]	@ 0x3e
 80058ae:	6c23      	ldr	r3, [r4, #64]	@ 0x40
 80058b0:	6423      	str	r3, [r4, #64]	@ 0x40
 80058b2:	2300      	movs	r3, #0
 80058b4:	f884 303c 	strb.w	r3, [r4, #60]	@ 0x3c
 80058b8:	2001      	movs	r0, #1
 80058ba:	bd70      	pop	{r4, r5, r6, pc}
 80058bc:	f7ff f832 	bl	8004924 <HAL_GetTick>
 80058c0:	1b80      	subs	r0, r0, r6
 80058c2:	42a8      	cmp	r0, r5
 80058c4:	d801      	bhi.n	80058ca <I2C_WaitOnRXNEFlagUntilTimeout+0x4a>
 80058c6:	2d00      	cmp	r5, #0
 80058c8:	d1de      	bne.n	8005888 <I2C_WaitOnRXNEFlagUntilTimeout+0x8>
 80058ca:	6823      	ldr	r3, [r4, #0]
 80058cc:	695b      	ldr	r3, [r3, #20]
 80058ce:	f013 0340 	ands.w	r3, r3, #64	@ 0x40
 80058d2:	d1d9      	bne.n	8005888 <I2C_WaitOnRXNEFlagUntilTimeout+0x8>
 80058d4:	2220      	movs	r2, #32
 80058d6:	6323      	str	r3, [r4, #48]	@ 0x30
 80058d8:	f884 203d 	strb.w	r2, [r4, #61]	@ 0x3d
 80058dc:	f884 303e 	strb.w	r3, [r4, #62]	@ 0x3e
 80058e0:	6c23      	ldr	r3, [r4, #64]	@ 0x40
 80058e2:	4313      	orrs	r3, r2
 80058e4:	e7e4      	b.n	80058b0 <I2C_WaitOnRXNEFlagUntilTimeout+0x30>
	...

080058e8 <HAL_I2C_Init>:
 80058e8:	b570      	push	{r4, r5, r6, lr}
 80058ea:	4604      	mov	r4, r0
 80058ec:	b908      	cbnz	r0, 80058f2 <HAL_I2C_Init+0xa>
 80058ee:	2001      	movs	r0, #1
 80058f0:	bd70      	pop	{r4, r5, r6, pc}
 80058f2:	f890 303d 	ldrb.w	r3, [r0, #61]	@ 0x3d
 80058f6:	f003 02ff 	and.w	r2, r3, #255	@ 0xff
 80058fa:	b91b      	cbnz	r3, 8005904 <HAL_I2C_Init+0x1c>
 80058fc:	f880 203c 	strb.w	r2, [r0, #60]	@ 0x3c
 8005900:	f7fe fd7a 	bl	80043f8 <HAL_I2C_MspInit>
 8005904:	2324      	movs	r3, #36	@ 0x24
 8005906:	f884 303d 	strb.w	r3, [r4, #61]	@ 0x3d
 800590a:	6823      	ldr	r3, [r4, #0]
 800590c:	681a      	ldr	r2, [r3, #0]
 800590e:	f022 0201 	bic.w	r2, r2, #1
 8005912:	601a      	str	r2, [r3, #0]
 8005914:	681a      	ldr	r2, [r3, #0]
 8005916:	f442 4200 	orr.w	r2, r2, #32768	@ 0x8000
 800591a:	601a      	str	r2, [r3, #0]
 800591c:	681a      	ldr	r2, [r3, #0]
 800591e:	f422 4200 	bic.w	r2, r2, #32768	@ 0x8000
 8005922:	601a      	str	r2, [r3, #0]
 8005924:	f002 fb3c 	bl	8007fa0 <HAL_RCC_GetPCLK1Freq>
 8005928:	4b3f      	ldr	r3, [pc, #252]	@ (8005a28 <HAL_I2C_Init+0x140>)
 800592a:	6865      	ldr	r5, [r4, #4]
 800592c:	429d      	cmp	r5, r3
 800592e:	bf94      	ite	ls
 8005930:	4b3e      	ldrls	r3, [pc, #248]	@ (8005a2c <HAL_I2C_Init+0x144>)
 8005932:	4b3f      	ldrhi	r3, [pc, #252]	@ (8005a30 <HAL_I2C_Init+0x148>)
 8005934:	4298      	cmp	r0, r3
 8005936:	bf8c      	ite	hi
 8005938:	2300      	movhi	r3, #0
 800593a:	2301      	movls	r3, #1
 800593c:	2b00      	cmp	r3, #0
 800593e:	d1d6      	bne.n	80058ee <HAL_I2C_Init+0x6>
 8005940:	6822      	ldr	r2, [r4, #0]
 8005942:	4e39      	ldr	r6, [pc, #228]	@ (8005a28 <HAL_I2C_Init+0x140>)
 8005944:	6851      	ldr	r1, [r2, #4]
 8005946:	4b3b      	ldr	r3, [pc, #236]	@ (8005a34 <HAL_I2C_Init+0x14c>)
 8005948:	fbb0 f3f3 	udiv	r3, r0, r3
 800594c:	f021 013f 	bic.w	r1, r1, #63	@ 0x3f
 8005950:	4319      	orrs	r1, r3
 8005952:	42b5      	cmp	r5, r6
 8005954:	6051      	str	r1, [r2, #4]
 8005956:	bf88      	it	hi
 8005958:	f44f 7696 	movhi.w	r6, #300	@ 0x12c
 800595c:	6a11      	ldr	r1, [r2, #32]
 800595e:	bf88      	it	hi
 8005960:	4373      	mulhi	r3, r6
 8005962:	f021 013f 	bic.w	r1, r1, #63	@ 0x3f
 8005966:	bf84      	itt	hi
 8005968:	f44f 767a 	movhi.w	r6, #1000	@ 0x3e8
 800596c:	fbb3 f3f6 	udivhi	r3, r3, r6
 8005970:	3301      	adds	r3, #1
 8005972:	430b      	orrs	r3, r1
 8005974:	6213      	str	r3, [r2, #32]
 8005976:	69d1      	ldr	r1, [r2, #28]
 8005978:	1e43      	subs	r3, r0, #1
 800597a:	482b      	ldr	r0, [pc, #172]	@ (8005a28 <HAL_I2C_Init+0x140>)
 800597c:	f421 414f 	bic.w	r1, r1, #52992	@ 0xcf00
 8005980:	4285      	cmp	r5, r0
 8005982:	f021 01ff 	bic.w	r1, r1, #255	@ 0xff
 8005986:	d832      	bhi.n	80059ee <HAL_I2C_Init+0x106>
 8005988:	006d      	lsls	r5, r5, #1
 800598a:	f640 70fc 	movw	r0, #4092	@ 0xffc
 800598e:	fbb3 f3f5 	udiv	r3, r3, r5
 8005992:	3301      	adds	r3, #1
 8005994:	4203      	tst	r3, r0
 8005996:	d042      	beq.n	8005a1e <HAL_I2C_Init+0x136>
 8005998:	f3c3 030b 	ubfx	r3, r3, #0, #12
 800599c:	4319      	orrs	r1, r3
 800599e:	61d1      	str	r1, [r2, #28]
 80059a0:	e9d4 3007 	ldrd	r3, r0, [r4, #28]
 80059a4:	6811      	ldr	r1, [r2, #0]
 80059a6:	4303      	orrs	r3, r0
 80059a8:	f021 01c0 	bic.w	r1, r1, #192	@ 0xc0
 80059ac:	430b      	orrs	r3, r1
 80059ae:	6013      	str	r3, [r2, #0]
 80059b0:	6891      	ldr	r1, [r2, #8]
 80059b2:	e9d4 0303 	ldrd	r0, r3, [r4, #12]
 80059b6:	f421 4103 	bic.w	r1, r1, #33536	@ 0x8300
 80059ba:	4303      	orrs	r3, r0
 80059bc:	f021 01ff 	bic.w	r1, r1, #255	@ 0xff
 80059c0:	430b      	orrs	r3, r1
 80059c2:	6093      	str	r3, [r2, #8]
 80059c4:	e9d4 3005 	ldrd	r3, r0, [r4, #20]
 80059c8:	68d1      	ldr	r1, [r2, #12]
 80059ca:	4303      	orrs	r3, r0
 80059cc:	f021 01ff 	bic.w	r1, r1, #255	@ 0xff
 80059d0:	430b      	orrs	r3, r1
 80059d2:	60d3      	str	r3, [r2, #12]
 80059d4:	6813      	ldr	r3, [r2, #0]
 80059d6:	f043 0301 	orr.w	r3, r3, #1
 80059da:	6013      	str	r3, [r2, #0]
 80059dc:	2000      	movs	r0, #0
 80059de:	2320      	movs	r3, #32
 80059e0:	6420      	str	r0, [r4, #64]	@ 0x40
 80059e2:	f884 303d 	strb.w	r3, [r4, #61]	@ 0x3d
 80059e6:	6320      	str	r0, [r4, #48]	@ 0x30
 80059e8:	f884 003e 	strb.w	r0, [r4, #62]	@ 0x3e
 80059ec:	e780      	b.n	80058f0 <HAL_I2C_Init+0x8>
 80059ee:	68a0      	ldr	r0, [r4, #8]
 80059f0:	b950      	cbnz	r0, 8005a08 <HAL_I2C_Init+0x120>
 80059f2:	eb05 0545 	add.w	r5, r5, r5, lsl #1
 80059f6:	fbb3 f3f5 	udiv	r3, r3, r5
 80059fa:	3301      	adds	r3, #1
 80059fc:	f3c3 030b 	ubfx	r3, r3, #0, #12
 8005a00:	b17b      	cbz	r3, 8005a22 <HAL_I2C_Init+0x13a>
 8005a02:	f443 4300 	orr.w	r3, r3, #32768	@ 0x8000
 8005a06:	e7c9      	b.n	800599c <HAL_I2C_Init+0xb4>
 8005a08:	2019      	movs	r0, #25
 8005a0a:	4368      	muls	r0, r5
 8005a0c:	fbb3 f3f0 	udiv	r3, r3, r0
 8005a10:	3301      	adds	r3, #1
 8005a12:	f3c3 030b 	ubfx	r3, r3, #0, #12
 8005a16:	b123      	cbz	r3, 8005a22 <HAL_I2C_Init+0x13a>
 8005a18:	f443 4340 	orr.w	r3, r3, #49152	@ 0xc000
 8005a1c:	e7be      	b.n	800599c <HAL_I2C_Init+0xb4>
 8005a1e:	2304      	movs	r3, #4
 8005a20:	e7bc      	b.n	800599c <HAL_I2C_Init+0xb4>
 8005a22:	2301      	movs	r3, #1
 8005a24:	e7ba      	b.n	800599c <HAL_I2C_Init+0xb4>
 8005a26:	bf00      	nop
 8005a28:	000186a0 	.word	0x000186a0
 8005a2c:	001e847f 	.word	0x001e847f
 8005a30:	003d08ff 	.word	0x003d08ff
 8005a34:	000f4240 	.word	0x000f4240

08005a38 <HAL_I2C_Master_Transmit>:
 8005a38:	e92d 43f0 	stmdb	sp!, {r4, r5, r6, r7, r8, r9, lr}
 8005a3c:	4604      	mov	r4, r0
 8005a3e:	b085      	sub	sp, #20
 8005a40:	4698      	mov	r8, r3
 8005a42:	9f0c      	ldr	r7, [sp, #48]	@ 0x30
 8005a44:	460d      	mov	r5, r1
 8005a46:	4691      	mov	r9, r2
 8005a48:	f7fe ff6c 	bl	8004924 <HAL_GetTick>
 8005a4c:	f894 303d 	ldrb.w	r3, [r4, #61]	@ 0x3d
 8005a50:	2b20      	cmp	r3, #32
 8005a52:	4606      	mov	r6, r0
 8005a54:	d004      	beq.n	8005a60 <HAL_I2C_Master_Transmit+0x28>
 8005a56:	2502      	movs	r5, #2
 8005a58:	4628      	mov	r0, r5
 8005a5a:	b005      	add	sp, #20
 8005a5c:	e8bd 83f0 	ldmia.w	sp!, {r4, r5, r6, r7, r8, r9, pc}
 8005a60:	9000      	str	r0, [sp, #0]
 8005a62:	495e      	ldr	r1, [pc, #376]	@ (8005bdc <HAL_I2C_Master_Transmit+0x1a4>)
 8005a64:	2319      	movs	r3, #25
 8005a66:	2201      	movs	r2, #1
 8005a68:	4620      	mov	r0, r4
 8005a6a:	f7ff fd57 	bl	800551c <I2C_WaitOnFlagUntilTimeout>
 8005a6e:	2800      	cmp	r0, #0
 8005a70:	d1f1      	bne.n	8005a56 <HAL_I2C_Master_Transmit+0x1e>
 8005a72:	f894 303c 	ldrb.w	r3, [r4, #60]	@ 0x3c
 8005a76:	2b01      	cmp	r3, #1
 8005a78:	d0ed      	beq.n	8005a56 <HAL_I2C_Master_Transmit+0x1e>
 8005a7a:	6821      	ldr	r1, [r4, #0]
 8005a7c:	2301      	movs	r3, #1
 8005a7e:	f884 303c 	strb.w	r3, [r4, #60]	@ 0x3c
 8005a82:	680b      	ldr	r3, [r1, #0]
 8005a84:	07da      	lsls	r2, r3, #31
 8005a86:	bf5e      	ittt	pl
 8005a88:	680b      	ldrpl	r3, [r1, #0]
 8005a8a:	f043 0301 	orrpl.w	r3, r3, #1
 8005a8e:	600b      	strpl	r3, [r1, #0]
 8005a90:	680b      	ldr	r3, [r1, #0]
 8005a92:	f423 6300 	bic.w	r3, r3, #2048	@ 0x800
 8005a96:	600b      	str	r3, [r1, #0]
 8005a98:	2321      	movs	r3, #33	@ 0x21
 8005a9a:	f884 303d 	strb.w	r3, [r4, #61]	@ 0x3d
 8005a9e:	2310      	movs	r3, #16
 8005aa0:	f884 303e 	strb.w	r3, [r4, #62]	@ 0x3e
 8005aa4:	2300      	movs	r3, #0
 8005aa6:	6423      	str	r3, [r4, #64]	@ 0x40
 8005aa8:	f8a4 802a 	strh.w	r8, [r4, #42]	@ 0x2a
 8005aac:	8d63      	ldrh	r3, [r4, #42]	@ 0x2a
 8005aae:	8523      	strh	r3, [r4, #40]	@ 0x28
 8005ab0:	4b4b      	ldr	r3, [pc, #300]	@ (8005be0 <HAL_I2C_Master_Transmit+0x1a8>)
 8005ab2:	62e3      	str	r3, [r4, #44]	@ 0x2c
 8005ab4:	6ae3      	ldr	r3, [r4, #44]	@ 0x2c
 8005ab6:	f8c4 9024 	str.w	r9, [r4, #36]	@ 0x24
 8005aba:	2b08      	cmp	r3, #8
 8005abc:	d004      	beq.n	8005ac8 <HAL_I2C_Master_Transmit+0x90>
 8005abe:	2b01      	cmp	r3, #1
 8005ac0:	d002      	beq.n	8005ac8 <HAL_I2C_Master_Transmit+0x90>
 8005ac2:	f513 3f80 	cmn.w	r3, #65536	@ 0x10000
 8005ac6:	d104      	bne.n	8005ad2 <HAL_I2C_Master_Transmit+0x9a>
 8005ac8:	680b      	ldr	r3, [r1, #0]
 8005aca:	f443 7380 	orr.w	r3, r3, #256	@ 0x100
 8005ace:	600b      	str	r3, [r1, #0]
 8005ad0:	e002      	b.n	8005ad8 <HAL_I2C_Master_Transmit+0xa0>
 8005ad2:	6b23      	ldr	r3, [r4, #48]	@ 0x30
 8005ad4:	2b12      	cmp	r3, #18
 8005ad6:	d0f7      	beq.n	8005ac8 <HAL_I2C_Master_Transmit+0x90>
 8005ad8:	2200      	movs	r2, #0
 8005ada:	9600      	str	r6, [sp, #0]
 8005adc:	463b      	mov	r3, r7
 8005ade:	f04f 1101 	mov.w	r1, #65537	@ 0x10001
 8005ae2:	4620      	mov	r0, r4
 8005ae4:	f7ff fd1a 	bl	800551c <I2C_WaitOnFlagUntilTimeout>
 8005ae8:	6822      	ldr	r2, [r4, #0]
 8005aea:	b140      	cbz	r0, 8005afe <HAL_I2C_Master_Transmit+0xc6>
 8005aec:	6813      	ldr	r3, [r2, #0]
 8005aee:	05db      	lsls	r3, r3, #23
 8005af0:	d401      	bmi.n	8005af6 <HAL_I2C_Master_Transmit+0xbe>
 8005af2:	2501      	movs	r5, #1
 8005af4:	e7b0      	b.n	8005a58 <HAL_I2C_Master_Transmit+0x20>
 8005af6:	f44f 7300 	mov.w	r3, #512	@ 0x200
 8005afa:	6423      	str	r3, [r4, #64]	@ 0x40
 8005afc:	e7f9      	b.n	8005af2 <HAL_I2C_Master_Transmit+0xba>
 8005afe:	6923      	ldr	r3, [r4, #16]
 8005b00:	f5b3 4f80 	cmp.w	r3, #16384	@ 0x4000
 8005b04:	d121      	bne.n	8005b4a <HAL_I2C_Master_Transmit+0x112>
 8005b06:	f005 05fe 	and.w	r5, r5, #254	@ 0xfe
 8005b0a:	6115      	str	r5, [r2, #16]
 8005b0c:	4935      	ldr	r1, [pc, #212]	@ (8005be4 <HAL_I2C_Master_Transmit+0x1ac>)
 8005b0e:	4633      	mov	r3, r6
 8005b10:	463a      	mov	r2, r7
 8005b12:	4620      	mov	r0, r4
 8005b14:	f7ff fd42 	bl	800559c <I2C_WaitOnMasterAddressFlagUntilTimeout>
 8005b18:	4605      	mov	r5, r0
 8005b1a:	2800      	cmp	r0, #0
 8005b1c:	d1e9      	bne.n	8005af2 <HAL_I2C_Master_Transmit+0xba>
 8005b1e:	6823      	ldr	r3, [r4, #0]
 8005b20:	9003      	str	r0, [sp, #12]
 8005b22:	695a      	ldr	r2, [r3, #20]
 8005b24:	9203      	str	r2, [sp, #12]
 8005b26:	699b      	ldr	r3, [r3, #24]
 8005b28:	9303      	str	r3, [sp, #12]
 8005b2a:	9b03      	ldr	r3, [sp, #12]
 8005b2c:	8d23      	ldrh	r3, [r4, #40]	@ 0x28
 8005b2e:	b9f3      	cbnz	r3, 8005b6e <HAL_I2C_Master_Transmit+0x136>
 8005b30:	6821      	ldr	r1, [r4, #0]
 8005b32:	680a      	ldr	r2, [r1, #0]
 8005b34:	f442 7200 	orr.w	r2, r2, #512	@ 0x200
 8005b38:	600a      	str	r2, [r1, #0]
 8005b3a:	2220      	movs	r2, #32
 8005b3c:	f884 203d 	strb.w	r2, [r4, #61]	@ 0x3d
 8005b40:	f884 303c 	strb.w	r3, [r4, #60]	@ 0x3c
 8005b44:	f884 303e 	strb.w	r3, [r4, #62]	@ 0x3e
 8005b48:	e786      	b.n	8005a58 <HAL_I2C_Master_Transmit+0x20>
 8005b4a:	11eb      	asrs	r3, r5, #7
 8005b4c:	f003 0306 	and.w	r3, r3, #6
 8005b50:	f043 03f0 	orr.w	r3, r3, #240	@ 0xf0
 8005b54:	6113      	str	r3, [r2, #16]
 8005b56:	4924      	ldr	r1, [pc, #144]	@ (8005be8 <HAL_I2C_Master_Transmit+0x1b0>)
 8005b58:	4633      	mov	r3, r6
 8005b5a:	463a      	mov	r2, r7
 8005b5c:	4620      	mov	r0, r4
 8005b5e:	f7ff fd1d 	bl	800559c <I2C_WaitOnMasterAddressFlagUntilTimeout>
 8005b62:	2800      	cmp	r0, #0
 8005b64:	d1c5      	bne.n	8005af2 <HAL_I2C_Master_Transmit+0xba>
 8005b66:	6823      	ldr	r3, [r4, #0]
 8005b68:	b2ed      	uxtb	r5, r5
 8005b6a:	611d      	str	r5, [r3, #16]
 8005b6c:	e7ce      	b.n	8005b0c <HAL_I2C_Master_Transmit+0xd4>
 8005b6e:	4632      	mov	r2, r6
 8005b70:	4639      	mov	r1, r7
 8005b72:	4620      	mov	r0, r4
 8005b74:	f7ff fd54 	bl	8005620 <I2C_WaitOnTXEFlagUntilTimeout>
 8005b78:	b140      	cbz	r0, 8005b8c <HAL_I2C_Master_Transmit+0x154>
 8005b7a:	6c23      	ldr	r3, [r4, #64]	@ 0x40
 8005b7c:	2b04      	cmp	r3, #4
 8005b7e:	d1b8      	bne.n	8005af2 <HAL_I2C_Master_Transmit+0xba>
 8005b80:	6822      	ldr	r2, [r4, #0]
 8005b82:	6813      	ldr	r3, [r2, #0]
 8005b84:	f443 7300 	orr.w	r3, r3, #512	@ 0x200
 8005b88:	6013      	str	r3, [r2, #0]
 8005b8a:	e7b2      	b.n	8005af2 <HAL_I2C_Master_Transmit+0xba>
 8005b8c:	6a63      	ldr	r3, [r4, #36]	@ 0x24
 8005b8e:	6820      	ldr	r0, [r4, #0]
 8005b90:	461a      	mov	r2, r3
 8005b92:	f812 1b01 	ldrb.w	r1, [r2], #1
 8005b96:	6101      	str	r1, [r0, #16]
 8005b98:	6262      	str	r2, [r4, #36]	@ 0x24
 8005b9a:	8d62      	ldrh	r2, [r4, #42]	@ 0x2a
 8005b9c:	3a01      	subs	r2, #1
 8005b9e:	b292      	uxth	r2, r2
 8005ba0:	8562      	strh	r2, [r4, #42]	@ 0x2a
 8005ba2:	8d22      	ldrh	r2, [r4, #40]	@ 0x28
 8005ba4:	f8d0 c014 	ldr.w	ip, [r0, #20]
 8005ba8:	1e51      	subs	r1, r2, #1
 8005baa:	b289      	uxth	r1, r1
 8005bac:	f01c 0f04 	tst.w	ip, #4
 8005bb0:	8521      	strh	r1, [r4, #40]	@ 0x28
 8005bb2:	d00a      	beq.n	8005bca <HAL_I2C_Master_Transmit+0x192>
 8005bb4:	b149      	cbz	r1, 8005bca <HAL_I2C_Master_Transmit+0x192>
 8005bb6:	7859      	ldrb	r1, [r3, #1]
 8005bb8:	6101      	str	r1, [r0, #16]
 8005bba:	3302      	adds	r3, #2
 8005bbc:	6263      	str	r3, [r4, #36]	@ 0x24
 8005bbe:	8d63      	ldrh	r3, [r4, #42]	@ 0x2a
 8005bc0:	3b01      	subs	r3, #1
 8005bc2:	b29b      	uxth	r3, r3
 8005bc4:	3a02      	subs	r2, #2
 8005bc6:	8563      	strh	r3, [r4, #42]	@ 0x2a
 8005bc8:	8522      	strh	r2, [r4, #40]	@ 0x28
 8005bca:	4632      	mov	r2, r6
 8005bcc:	4639      	mov	r1, r7
 8005bce:	4620      	mov	r0, r4
 8005bd0:	f7ff fe2c 	bl	800582c <I2C_WaitOnBTFFlagUntilTimeout>
 8005bd4:	2800      	cmp	r0, #0
 8005bd6:	d0a9      	beq.n	8005b2c <HAL_I2C_Master_Transmit+0xf4>
 8005bd8:	e7cf      	b.n	8005b7a <HAL_I2C_Master_Transmit+0x142>
 8005bda:	bf00      	nop
 8005bdc:	00100002 	.word	0x00100002
 8005be0:	ffff0000 	.word	0xffff0000
 8005be4:	00010002 	.word	0x00010002
 8005be8:	00010008 	.word	0x00010008

08005bec <HAL_I2C_Master_Transmit_DMA>:
 8005bec:	b5f7      	push	{r0, r1, r2, r4, r5, r6, r7, lr}
 8005bee:	460f      	mov	r7, r1
 8005bf0:	4611      	mov	r1, r2
 8005bf2:	2200      	movs	r2, #0
 8005bf4:	9201      	str	r2, [sp, #4]
 8005bf6:	f890 203d 	ldrb.w	r2, [r0, #61]	@ 0x3d
 8005bfa:	2a20      	cmp	r2, #32
 8005bfc:	4604      	mov	r4, r0
 8005bfe:	d002      	beq.n	8005c06 <HAL_I2C_Master_Transmit_DMA+0x1a>
 8005c00:	2002      	movs	r0, #2
 8005c02:	b003      	add	sp, #12
 8005c04:	bdf0      	pop	{r4, r5, r6, r7, pc}
 8005c06:	4a45      	ldr	r2, [pc, #276]	@ (8005d1c <HAL_I2C_Master_Transmit_DMA+0x130>)
 8005c08:	6810      	ldr	r0, [r2, #0]
 8005c0a:	f246 12a8 	movw	r2, #25000	@ 0x61a8
 8005c0e:	fbb0 f0f2 	udiv	r0, r0, r2
 8005c12:	2219      	movs	r2, #25
 8005c14:	4350      	muls	r0, r2
 8005c16:	9001      	str	r0, [sp, #4]
 8005c18:	9a01      	ldr	r2, [sp, #4]
 8005c1a:	3a01      	subs	r2, #1
 8005c1c:	9201      	str	r2, [sp, #4]
 8005c1e:	9a01      	ldr	r2, [sp, #4]
 8005c20:	b952      	cbnz	r2, 8005c38 <HAL_I2C_Master_Transmit_DMA+0x4c>
 8005c22:	2320      	movs	r3, #32
 8005c24:	6322      	str	r2, [r4, #48]	@ 0x30
 8005c26:	f884 303d 	strb.w	r3, [r4, #61]	@ 0x3d
 8005c2a:	f884 203e 	strb.w	r2, [r4, #62]	@ 0x3e
 8005c2e:	6c23      	ldr	r3, [r4, #64]	@ 0x40
 8005c30:	f043 0320 	orr.w	r3, r3, #32
 8005c34:	6423      	str	r3, [r4, #64]	@ 0x40
 8005c36:	e7e3      	b.n	8005c00 <HAL_I2C_Master_Transmit_DMA+0x14>
 8005c38:	6825      	ldr	r5, [r4, #0]
 8005c3a:	69aa      	ldr	r2, [r5, #24]
 8005c3c:	0790      	lsls	r0, r2, #30
 8005c3e:	d4eb      	bmi.n	8005c18 <HAL_I2C_Master_Transmit_DMA+0x2c>
 8005c40:	f894 203c 	ldrb.w	r2, [r4, #60]	@ 0x3c
 8005c44:	2a01      	cmp	r2, #1
 8005c46:	d0db      	beq.n	8005c00 <HAL_I2C_Master_Transmit_DMA+0x14>
 8005c48:	2201      	movs	r2, #1
 8005c4a:	f884 203c 	strb.w	r2, [r4, #60]	@ 0x3c
 8005c4e:	682a      	ldr	r2, [r5, #0]
 8005c50:	07d2      	lsls	r2, r2, #31
 8005c52:	bf5e      	ittt	pl
 8005c54:	682a      	ldrpl	r2, [r5, #0]
 8005c56:	f042 0201 	orrpl.w	r2, r2, #1
 8005c5a:	602a      	strpl	r2, [r5, #0]
 8005c5c:	682a      	ldr	r2, [r5, #0]
 8005c5e:	f422 6200 	bic.w	r2, r2, #2048	@ 0x800
 8005c62:	602a      	str	r2, [r5, #0]
 8005c64:	2221      	movs	r2, #33	@ 0x21
 8005c66:	f884 203d 	strb.w	r2, [r4, #61]	@ 0x3d
 8005c6a:	2600      	movs	r6, #0
 8005c6c:	2210      	movs	r2, #16
 8005c6e:	f884 203e 	strb.w	r2, [r4, #62]	@ 0x3e
 8005c72:	6426      	str	r6, [r4, #64]	@ 0x40
 8005c74:	8563      	strh	r3, [r4, #42]	@ 0x2a
 8005c76:	8d63      	ldrh	r3, [r4, #42]	@ 0x2a
 8005c78:	4a29      	ldr	r2, [pc, #164]	@ (8005d20 <HAL_I2C_Master_Transmit_DMA+0x134>)
 8005c7a:	62e2      	str	r2, [r4, #44]	@ 0x2c
 8005c7c:	b29b      	uxth	r3, r3
 8005c7e:	6261      	str	r1, [r4, #36]	@ 0x24
 8005c80:	8523      	strh	r3, [r4, #40]	@ 0x28
 8005c82:	6467      	str	r7, [r4, #68]	@ 0x44
 8005c84:	2b00      	cmp	r3, #0
 8005c86:	d03a      	beq.n	8005cfe <HAL_I2C_Master_Transmit_DMA+0x112>
 8005c88:	6b60      	ldr	r0, [r4, #52]	@ 0x34
 8005c8a:	b1a8      	cbz	r0, 8005cb8 <HAL_I2C_Master_Transmit_DMA+0xcc>
 8005c8c:	4a25      	ldr	r2, [pc, #148]	@ (8005d24 <HAL_I2C_Master_Transmit_DMA+0x138>)
 8005c8e:	63c2      	str	r2, [r0, #60]	@ 0x3c
 8005c90:	4a25      	ldr	r2, [pc, #148]	@ (8005d28 <HAL_I2C_Master_Transmit_DMA+0x13c>)
 8005c92:	64c2      	str	r2, [r0, #76]	@ 0x4c
 8005c94:	e9c0 6610 	strd	r6, r6, [r0, #64]	@ 0x40
 8005c98:	6486      	str	r6, [r0, #72]	@ 0x48
 8005c9a:	6506      	str	r6, [r0, #80]	@ 0x50
 8005c9c:	f105 0210 	add.w	r2, r5, #16
 8005ca0:	f7ff fa00 	bl	80050a4 <HAL_DMA_Start_IT>
 8005ca4:	b1b0      	cbz	r0, 8005cd4 <HAL_I2C_Master_Transmit_DMA+0xe8>
 8005ca6:	2320      	movs	r3, #32
 8005ca8:	f884 303d 	strb.w	r3, [r4, #61]	@ 0x3d
 8005cac:	f884 603e 	strb.w	r6, [r4, #62]	@ 0x3e
 8005cb0:	6c23      	ldr	r3, [r4, #64]	@ 0x40
 8005cb2:	f043 0310 	orr.w	r3, r3, #16
 8005cb6:	e007      	b.n	8005cc8 <HAL_I2C_Master_Transmit_DMA+0xdc>
 8005cb8:	2320      	movs	r3, #32
 8005cba:	f884 303d 	strb.w	r3, [r4, #61]	@ 0x3d
 8005cbe:	f884 003e 	strb.w	r0, [r4, #62]	@ 0x3e
 8005cc2:	6c23      	ldr	r3, [r4, #64]	@ 0x40
 8005cc4:	f043 0380 	orr.w	r3, r3, #128	@ 0x80
 8005cc8:	6423      	str	r3, [r4, #64]	@ 0x40
 8005cca:	2300      	movs	r3, #0
 8005ccc:	f884 303c 	strb.w	r3, [r4, #60]	@ 0x3c
 8005cd0:	2001      	movs	r0, #1
 8005cd2:	e796      	b.n	8005c02 <HAL_I2C_Master_Transmit_DMA+0x16>
 8005cd4:	6823      	ldr	r3, [r4, #0]
 8005cd6:	f884 003c 	strb.w	r0, [r4, #60]	@ 0x3c
 8005cda:	685a      	ldr	r2, [r3, #4]
 8005cdc:	f442 7240 	orr.w	r2, r2, #768	@ 0x300
 8005ce0:	605a      	str	r2, [r3, #4]
 8005ce2:	685a      	ldr	r2, [r3, #4]
 8005ce4:	f442 6200 	orr.w	r2, r2, #2048	@ 0x800
 8005ce8:	605a      	str	r2, [r3, #4]
 8005cea:	681a      	ldr	r2, [r3, #0]
 8005cec:	f442 6280 	orr.w	r2, r2, #1024	@ 0x400
 8005cf0:	601a      	str	r2, [r3, #0]
 8005cf2:	681a      	ldr	r2, [r3, #0]
 8005cf4:	f442 7280 	orr.w	r2, r2, #256	@ 0x100
 8005cf8:	601a      	str	r2, [r3, #0]
 8005cfa:	2000      	movs	r0, #0
 8005cfc:	e781      	b.n	8005c02 <HAL_I2C_Master_Transmit_DMA+0x16>
 8005cfe:	682a      	ldr	r2, [r5, #0]
 8005d00:	f442 6280 	orr.w	r2, r2, #1024	@ 0x400
 8005d04:	602a      	str	r2, [r5, #0]
 8005d06:	682a      	ldr	r2, [r5, #0]
 8005d08:	f442 7280 	orr.w	r2, r2, #256	@ 0x100
 8005d0c:	602a      	str	r2, [r5, #0]
 8005d0e:	f884 303c 	strb.w	r3, [r4, #60]	@ 0x3c
 8005d12:	686b      	ldr	r3, [r5, #4]
 8005d14:	f443 63e0 	orr.w	r3, r3, #1792	@ 0x700
 8005d18:	606b      	str	r3, [r5, #4]
 8005d1a:	e7ee      	b.n	8005cfa <HAL_I2C_Master_Transmit_DMA+0x10e>
 8005d1c:	20000060 	.word	0x20000060
 8005d20:	ffff0000 	.word	0xffff0000
 8005d24:	08006345 	.word	0x08006345
 8005d28:	08006301 	.word	0x08006301

08005d2c <HAL_I2C_Mem_Write>:
 8005d2c:	e92d 43f7 	stmdb	sp!, {r0, r1, r2, r4, r5, r6, r7, r8, r9, lr}
 8005d30:	4604      	mov	r4, r0
 8005d32:	4699      	mov	r9, r3
 8005d34:	9e0c      	ldr	r6, [sp, #48]	@ 0x30
 8005d36:	460f      	mov	r7, r1
 8005d38:	4690      	mov	r8, r2
 8005d3a:	f7fe fdf3 	bl	8004924 <HAL_GetTick>
 8005d3e:	f894 303d 	ldrb.w	r3, [r4, #61]	@ 0x3d
 8005d42:	2b20      	cmp	r3, #32
 8005d44:	4605      	mov	r5, r0
 8005d46:	d003      	beq.n	8005d50 <HAL_I2C_Mem_Write+0x24>
 8005d48:	2002      	movs	r0, #2
 8005d4a:	b003      	add	sp, #12
 8005d4c:	e8bd 83f0 	ldmia.w	sp!, {r4, r5, r6, r7, r8, r9, pc}
 8005d50:	9000      	str	r0, [sp, #0]
 8005d52:	493c      	ldr	r1, [pc, #240]	@ (8005e44 <HAL_I2C_Mem_Write+0x118>)
 8005d54:	2319      	movs	r3, #25
 8005d56:	2201      	movs	r2, #1
 8005d58:	4620      	mov	r0, r4
 8005d5a:	f7ff fbdf 	bl	800551c <I2C_WaitOnFlagUntilTimeout>
 8005d5e:	2800      	cmp	r0, #0
 8005d60:	d1f2      	bne.n	8005d48 <HAL_I2C_Mem_Write+0x1c>
 8005d62:	f894 303c 	ldrb.w	r3, [r4, #60]	@ 0x3c
 8005d66:	2b01      	cmp	r3, #1
 8005d68:	d0ee      	beq.n	8005d48 <HAL_I2C_Mem_Write+0x1c>
 8005d6a:	6820      	ldr	r0, [r4, #0]
 8005d6c:	2301      	movs	r3, #1
 8005d6e:	f884 303c 	strb.w	r3, [r4, #60]	@ 0x3c
 8005d72:	6803      	ldr	r3, [r0, #0]
 8005d74:	07d9      	lsls	r1, r3, #31
 8005d76:	bf5e      	ittt	pl
 8005d78:	6803      	ldrpl	r3, [r0, #0]
 8005d7a:	f043 0301 	orrpl.w	r3, r3, #1
 8005d7e:	6003      	strpl	r3, [r0, #0]
 8005d80:	6803      	ldr	r3, [r0, #0]
 8005d82:	f423 6300 	bic.w	r3, r3, #2048	@ 0x800
 8005d86:	6003      	str	r3, [r0, #0]
 8005d88:	2321      	movs	r3, #33	@ 0x21
 8005d8a:	f884 303d 	strb.w	r3, [r4, #61]	@ 0x3d
 8005d8e:	2340      	movs	r3, #64	@ 0x40
 8005d90:	f884 303e 	strb.w	r3, [r4, #62]	@ 0x3e
 8005d94:	2300      	movs	r3, #0
 8005d96:	6423      	str	r3, [r4, #64]	@ 0x40
 8005d98:	9b0a      	ldr	r3, [sp, #40]	@ 0x28
 8005d9a:	6263      	str	r3, [r4, #36]	@ 0x24
 8005d9c:	f8bd 302c 	ldrh.w	r3, [sp, #44]	@ 0x2c
 8005da0:	8563      	strh	r3, [r4, #42]	@ 0x2a
 8005da2:	8d63      	ldrh	r3, [r4, #42]	@ 0x2a
 8005da4:	8523      	strh	r3, [r4, #40]	@ 0x28
 8005da6:	4b28      	ldr	r3, [pc, #160]	@ (8005e48 <HAL_I2C_Mem_Write+0x11c>)
 8005da8:	62e3      	str	r3, [r4, #44]	@ 0x2c
 8005daa:	4642      	mov	r2, r8
 8005dac:	e9cd 6500 	strd	r6, r5, [sp]
 8005db0:	464b      	mov	r3, r9
 8005db2:	4639      	mov	r1, r7
 8005db4:	4620      	mov	r0, r4
 8005db6:	f7ff fc5d 	bl	8005674 <I2C_RequestMemoryWrite>
 8005dba:	2800      	cmp	r0, #0
 8005dbc:	d02a      	beq.n	8005e14 <HAL_I2C_Mem_Write+0xe8>
 8005dbe:	2001      	movs	r0, #1
 8005dc0:	e7c3      	b.n	8005d4a <HAL_I2C_Mem_Write+0x1e>
 8005dc2:	f7ff fc2d 	bl	8005620 <I2C_WaitOnTXEFlagUntilTimeout>
 8005dc6:	b140      	cbz	r0, 8005dda <HAL_I2C_Mem_Write+0xae>
 8005dc8:	6c23      	ldr	r3, [r4, #64]	@ 0x40
 8005dca:	2b04      	cmp	r3, #4
 8005dcc:	bf01      	itttt	eq
 8005dce:	6822      	ldreq	r2, [r4, #0]
 8005dd0:	6813      	ldreq	r3, [r2, #0]
 8005dd2:	f443 7300 	orreq.w	r3, r3, #512	@ 0x200
 8005dd6:	6013      	streq	r3, [r2, #0]
 8005dd8:	e7f1      	b.n	8005dbe <HAL_I2C_Mem_Write+0x92>
 8005dda:	6a63      	ldr	r3, [r4, #36]	@ 0x24
 8005ddc:	6827      	ldr	r7, [r4, #0]
 8005dde:	461a      	mov	r2, r3
 8005de0:	f812 1b01 	ldrb.w	r1, [r2], #1
 8005de4:	6139      	str	r1, [r7, #16]
 8005de6:	6262      	str	r2, [r4, #36]	@ 0x24
 8005de8:	8d62      	ldrh	r2, [r4, #42]	@ 0x2a
 8005dea:	8d21      	ldrh	r1, [r4, #40]	@ 0x28
 8005dec:	3a01      	subs	r2, #1
 8005dee:	b292      	uxth	r2, r2
 8005df0:	8562      	strh	r2, [r4, #42]	@ 0x2a
 8005df2:	697a      	ldr	r2, [r7, #20]
 8005df4:	1e48      	subs	r0, r1, #1
 8005df6:	b280      	uxth	r0, r0
 8005df8:	0752      	lsls	r2, r2, #29
 8005dfa:	8520      	strh	r0, [r4, #40]	@ 0x28
 8005dfc:	d50a      	bpl.n	8005e14 <HAL_I2C_Mem_Write+0xe8>
 8005dfe:	b148      	cbz	r0, 8005e14 <HAL_I2C_Mem_Write+0xe8>
 8005e00:	785a      	ldrb	r2, [r3, #1]
 8005e02:	613a      	str	r2, [r7, #16]
 8005e04:	3302      	adds	r3, #2
 8005e06:	6263      	str	r3, [r4, #36]	@ 0x24
 8005e08:	8d63      	ldrh	r3, [r4, #42]	@ 0x2a
 8005e0a:	3b01      	subs	r3, #1
 8005e0c:	3902      	subs	r1, #2
 8005e0e:	b29b      	uxth	r3, r3
 8005e10:	8521      	strh	r1, [r4, #40]	@ 0x28
 8005e12:	8563      	strh	r3, [r4, #42]	@ 0x2a
 8005e14:	8d23      	ldrh	r3, [r4, #40]	@ 0x28
 8005e16:	462a      	mov	r2, r5
 8005e18:	4631      	mov	r1, r6
 8005e1a:	4620      	mov	r0, r4
 8005e1c:	2b00      	cmp	r3, #0
 8005e1e:	d1d0      	bne.n	8005dc2 <HAL_I2C_Mem_Write+0x96>
 8005e20:	f7ff fd04 	bl	800582c <I2C_WaitOnBTFFlagUntilTimeout>
 8005e24:	2800      	cmp	r0, #0
 8005e26:	d1cf      	bne.n	8005dc8 <HAL_I2C_Mem_Write+0x9c>
 8005e28:	6822      	ldr	r2, [r4, #0]
 8005e2a:	6813      	ldr	r3, [r2, #0]
 8005e2c:	f443 7300 	orr.w	r3, r3, #512	@ 0x200
 8005e30:	6013      	str	r3, [r2, #0]
 8005e32:	2320      	movs	r3, #32
 8005e34:	f884 303d 	strb.w	r3, [r4, #61]	@ 0x3d
 8005e38:	f884 003c 	strb.w	r0, [r4, #60]	@ 0x3c
 8005e3c:	f884 003e 	strb.w	r0, [r4, #62]	@ 0x3e
 8005e40:	e783      	b.n	8005d4a <HAL_I2C_Mem_Write+0x1e>
 8005e42:	bf00      	nop
 8005e44:	00100002 	.word	0x00100002
 8005e48:	ffff0000 	.word	0xffff0000

08005e4c <HAL_I2C_Mem_Read>:
 8005e4c:	e92d 43f0 	stmdb	sp!, {r4, r5, r6, r7, r8, r9, lr}
 8005e50:	4604      	mov	r4, r0
 8005e52:	b087      	sub	sp, #28
 8005e54:	4699      	mov	r9, r3
 8005e56:	9f10      	ldr	r7, [sp, #64]	@ 0x40
 8005e58:	460d      	mov	r5, r1
 8005e5a:	4690      	mov	r8, r2
 8005e5c:	f7fe fd62 	bl	8004924 <HAL_GetTick>
 8005e60:	f894 303d 	ldrb.w	r3, [r4, #61]	@ 0x3d
 8005e64:	2b20      	cmp	r3, #32
 8005e66:	4606      	mov	r6, r0
 8005e68:	d004      	beq.n	8005e74 <HAL_I2C_Mem_Read+0x28>
 8005e6a:	2502      	movs	r5, #2
 8005e6c:	4628      	mov	r0, r5
 8005e6e:	b007      	add	sp, #28
 8005e70:	e8bd 83f0 	ldmia.w	sp!, {r4, r5, r6, r7, r8, r9, pc}
 8005e74:	9000      	str	r0, [sp, #0]
 8005e76:	497a      	ldr	r1, [pc, #488]	@ (8006060 <HAL_I2C_Mem_Read+0x214>)
 8005e78:	2319      	movs	r3, #25
 8005e7a:	2201      	movs	r2, #1
 8005e7c:	4620      	mov	r0, r4
 8005e7e:	f7ff fb4d 	bl	800551c <I2C_WaitOnFlagUntilTimeout>
 8005e82:	2800      	cmp	r0, #0
 8005e84:	d1f1      	bne.n	8005e6a <HAL_I2C_Mem_Read+0x1e>
 8005e86:	f894 303c 	ldrb.w	r3, [r4, #60]	@ 0x3c
 8005e8a:	2b01      	cmp	r3, #1
 8005e8c:	d0ed      	beq.n	8005e6a <HAL_I2C_Mem_Read+0x1e>
 8005e8e:	6820      	ldr	r0, [r4, #0]
 8005e90:	2301      	movs	r3, #1
 8005e92:	f884 303c 	strb.w	r3, [r4, #60]	@ 0x3c
 8005e96:	6803      	ldr	r3, [r0, #0]
 8005e98:	07db      	lsls	r3, r3, #31
 8005e9a:	bf5e      	ittt	pl
 8005e9c:	6803      	ldrpl	r3, [r0, #0]
 8005e9e:	f043 0301 	orrpl.w	r3, r3, #1
 8005ea2:	6003      	strpl	r3, [r0, #0]
 8005ea4:	6803      	ldr	r3, [r0, #0]
 8005ea6:	f423 6300 	bic.w	r3, r3, #2048	@ 0x800
 8005eaa:	6003      	str	r3, [r0, #0]
 8005eac:	2322      	movs	r3, #34	@ 0x22
 8005eae:	f884 303d 	strb.w	r3, [r4, #61]	@ 0x3d
 8005eb2:	2340      	movs	r3, #64	@ 0x40
 8005eb4:	f884 303e 	strb.w	r3, [r4, #62]	@ 0x3e
 8005eb8:	2300      	movs	r3, #0
 8005eba:	6423      	str	r3, [r4, #64]	@ 0x40
 8005ebc:	9b0e      	ldr	r3, [sp, #56]	@ 0x38
 8005ebe:	6263      	str	r3, [r4, #36]	@ 0x24
 8005ec0:	f8bd 303c 	ldrh.w	r3, [sp, #60]	@ 0x3c
 8005ec4:	8563      	strh	r3, [r4, #42]	@ 0x2a
 8005ec6:	8d63      	ldrh	r3, [r4, #42]	@ 0x2a
 8005ec8:	8523      	strh	r3, [r4, #40]	@ 0x28
 8005eca:	4b66      	ldr	r3, [pc, #408]	@ (8006064 <HAL_I2C_Mem_Read+0x218>)
 8005ecc:	62e3      	str	r3, [r4, #44]	@ 0x2c
 8005ece:	4629      	mov	r1, r5
 8005ed0:	e9cd 7600 	strd	r7, r6, [sp]
 8005ed4:	464b      	mov	r3, r9
 8005ed6:	4642      	mov	r2, r8
 8005ed8:	4620      	mov	r0, r4
 8005eda:	f7ff fc25 	bl	8005728 <I2C_RequestMemoryRead>
 8005ede:	4605      	mov	r5, r0
 8005ee0:	b108      	cbz	r0, 8005ee6 <HAL_I2C_Mem_Read+0x9a>
 8005ee2:	2501      	movs	r5, #1
 8005ee4:	e7c2      	b.n	8005e6c <HAL_I2C_Mem_Read+0x20>
 8005ee6:	8d22      	ldrh	r2, [r4, #40]	@ 0x28
 8005ee8:	6823      	ldr	r3, [r4, #0]
 8005eea:	b9b2      	cbnz	r2, 8005f1a <HAL_I2C_Mem_Read+0xce>
 8005eec:	9002      	str	r0, [sp, #8]
 8005eee:	695a      	ldr	r2, [r3, #20]
 8005ef0:	9202      	str	r2, [sp, #8]
 8005ef2:	699a      	ldr	r2, [r3, #24]
 8005ef4:	9202      	str	r2, [sp, #8]
 8005ef6:	9a02      	ldr	r2, [sp, #8]
 8005ef8:	681a      	ldr	r2, [r3, #0]
 8005efa:	f442 7200 	orr.w	r2, r2, #512	@ 0x200
 8005efe:	601a      	str	r2, [r3, #0]
 8005f00:	f8df 8164 	ldr.w	r8, [pc, #356]	@ 8006068 <HAL_I2C_Mem_Read+0x21c>
 8005f04:	8d23      	ldrh	r3, [r4, #40]	@ 0x28
 8005f06:	2b00      	cmp	r3, #0
 8005f08:	d12c      	bne.n	8005f64 <HAL_I2C_Mem_Read+0x118>
 8005f0a:	2220      	movs	r2, #32
 8005f0c:	f884 203d 	strb.w	r2, [r4, #61]	@ 0x3d
 8005f10:	f884 303c 	strb.w	r3, [r4, #60]	@ 0x3c
 8005f14:	f884 303e 	strb.w	r3, [r4, #62]	@ 0x3e
 8005f18:	e7a8      	b.n	8005e6c <HAL_I2C_Mem_Read+0x20>
 8005f1a:	2a01      	cmp	r2, #1
 8005f1c:	d10a      	bne.n	8005f34 <HAL_I2C_Mem_Read+0xe8>
 8005f1e:	681a      	ldr	r2, [r3, #0]
 8005f20:	f422 6280 	bic.w	r2, r2, #1024	@ 0x400
 8005f24:	601a      	str	r2, [r3, #0]
 8005f26:	9003      	str	r0, [sp, #12]
 8005f28:	695a      	ldr	r2, [r3, #20]
 8005f2a:	9203      	str	r2, [sp, #12]
 8005f2c:	699a      	ldr	r2, [r3, #24]
 8005f2e:	9203      	str	r2, [sp, #12]
 8005f30:	9a03      	ldr	r2, [sp, #12]
 8005f32:	e7e1      	b.n	8005ef8 <HAL_I2C_Mem_Read+0xac>
 8005f34:	2a02      	cmp	r2, #2
 8005f36:	d10e      	bne.n	8005f56 <HAL_I2C_Mem_Read+0x10a>
 8005f38:	681a      	ldr	r2, [r3, #0]
 8005f3a:	f422 6280 	bic.w	r2, r2, #1024	@ 0x400
 8005f3e:	601a      	str	r2, [r3, #0]
 8005f40:	681a      	ldr	r2, [r3, #0]
 8005f42:	f442 6200 	orr.w	r2, r2, #2048	@ 0x800
 8005f46:	601a      	str	r2, [r3, #0]
 8005f48:	9004      	str	r0, [sp, #16]
 8005f4a:	695a      	ldr	r2, [r3, #20]
 8005f4c:	9204      	str	r2, [sp, #16]
 8005f4e:	699b      	ldr	r3, [r3, #24]
 8005f50:	9304      	str	r3, [sp, #16]
 8005f52:	9b04      	ldr	r3, [sp, #16]
 8005f54:	e7d4      	b.n	8005f00 <HAL_I2C_Mem_Read+0xb4>
 8005f56:	9005      	str	r0, [sp, #20]
 8005f58:	695a      	ldr	r2, [r3, #20]
 8005f5a:	9205      	str	r2, [sp, #20]
 8005f5c:	699b      	ldr	r3, [r3, #24]
 8005f5e:	9305      	str	r3, [sp, #20]
 8005f60:	9b05      	ldr	r3, [sp, #20]
 8005f62:	e7cd      	b.n	8005f00 <HAL_I2C_Mem_Read+0xb4>
 8005f64:	2b03      	cmp	r3, #3
 8005f66:	d856      	bhi.n	8006016 <HAL_I2C_Mem_Read+0x1ca>
 8005f68:	2b01      	cmp	r3, #1
 8005f6a:	d115      	bne.n	8005f98 <HAL_I2C_Mem_Read+0x14c>
 8005f6c:	4632      	mov	r2, r6
 8005f6e:	4639      	mov	r1, r7
 8005f70:	4620      	mov	r0, r4
 8005f72:	f7ff fc85 	bl	8005880 <I2C_WaitOnRXNEFlagUntilTimeout>
 8005f76:	2800      	cmp	r0, #0
 8005f78:	d1b3      	bne.n	8005ee2 <HAL_I2C_Mem_Read+0x96>
 8005f7a:	6823      	ldr	r3, [r4, #0]
 8005f7c:	691a      	ldr	r2, [r3, #16]
 8005f7e:	6a63      	ldr	r3, [r4, #36]	@ 0x24
 8005f80:	701a      	strb	r2, [r3, #0]
 8005f82:	6a63      	ldr	r3, [r4, #36]	@ 0x24
 8005f84:	3301      	adds	r3, #1
 8005f86:	6263      	str	r3, [r4, #36]	@ 0x24
 8005f88:	8d23      	ldrh	r3, [r4, #40]	@ 0x28
 8005f8a:	3b01      	subs	r3, #1
 8005f8c:	8523      	strh	r3, [r4, #40]	@ 0x28
 8005f8e:	8d63      	ldrh	r3, [r4, #42]	@ 0x2a
 8005f90:	3b01      	subs	r3, #1
 8005f92:	b29b      	uxth	r3, r3
 8005f94:	8563      	strh	r3, [r4, #42]	@ 0x2a
 8005f96:	e7b5      	b.n	8005f04 <HAL_I2C_Mem_Read+0xb8>
 8005f98:	2b02      	cmp	r3, #2
 8005f9a:	9600      	str	r6, [sp, #0]
 8005f9c:	463b      	mov	r3, r7
 8005f9e:	f04f 0200 	mov.w	r2, #0
 8005fa2:	4641      	mov	r1, r8
 8005fa4:	4620      	mov	r0, r4
 8005fa6:	d119      	bne.n	8005fdc <HAL_I2C_Mem_Read+0x190>
 8005fa8:	f7ff fab8 	bl	800551c <I2C_WaitOnFlagUntilTimeout>
 8005fac:	2800      	cmp	r0, #0
 8005fae:	d198      	bne.n	8005ee2 <HAL_I2C_Mem_Read+0x96>
 8005fb0:	6823      	ldr	r3, [r4, #0]
 8005fb2:	681a      	ldr	r2, [r3, #0]
 8005fb4:	f442 7200 	orr.w	r2, r2, #512	@ 0x200
 8005fb8:	601a      	str	r2, [r3, #0]
 8005fba:	691a      	ldr	r2, [r3, #16]
 8005fbc:	6a63      	ldr	r3, [r4, #36]	@ 0x24
 8005fbe:	701a      	strb	r2, [r3, #0]
 8005fc0:	6a62      	ldr	r2, [r4, #36]	@ 0x24
 8005fc2:	1c53      	adds	r3, r2, #1
 8005fc4:	6263      	str	r3, [r4, #36]	@ 0x24
 8005fc6:	8d23      	ldrh	r3, [r4, #40]	@ 0x28
 8005fc8:	3b01      	subs	r3, #1
 8005fca:	8523      	strh	r3, [r4, #40]	@ 0x28
 8005fcc:	8d63      	ldrh	r3, [r4, #42]	@ 0x2a
 8005fce:	3b01      	subs	r3, #1
 8005fd0:	b29b      	uxth	r3, r3
 8005fd2:	8563      	strh	r3, [r4, #42]	@ 0x2a
 8005fd4:	6823      	ldr	r3, [r4, #0]
 8005fd6:	691b      	ldr	r3, [r3, #16]
 8005fd8:	7053      	strb	r3, [r2, #1]
 8005fda:	e7d2      	b.n	8005f82 <HAL_I2C_Mem_Read+0x136>
 8005fdc:	f7ff fa9e 	bl	800551c <I2C_WaitOnFlagUntilTimeout>
 8005fe0:	4602      	mov	r2, r0
 8005fe2:	2800      	cmp	r0, #0
 8005fe4:	f47f af7d 	bne.w	8005ee2 <HAL_I2C_Mem_Read+0x96>
 8005fe8:	6823      	ldr	r3, [r4, #0]
 8005fea:	6819      	ldr	r1, [r3, #0]
 8005fec:	f421 6180 	bic.w	r1, r1, #1024	@ 0x400
 8005ff0:	6019      	str	r1, [r3, #0]
 8005ff2:	6919      	ldr	r1, [r3, #16]
 8005ff4:	6a63      	ldr	r3, [r4, #36]	@ 0x24
 8005ff6:	7019      	strb	r1, [r3, #0]
 8005ff8:	6a63      	ldr	r3, [r4, #36]	@ 0x24
 8005ffa:	3301      	adds	r3, #1
 8005ffc:	6263      	str	r3, [r4, #36]	@ 0x24
 8005ffe:	8d23      	ldrh	r3, [r4, #40]	@ 0x28
 8006000:	3b01      	subs	r3, #1
 8006002:	8523      	strh	r3, [r4, #40]	@ 0x28
 8006004:	8d63      	ldrh	r3, [r4, #42]	@ 0x2a
 8006006:	3b01      	subs	r3, #1
 8006008:	b29b      	uxth	r3, r3
 800600a:	8563      	strh	r3, [r4, #42]	@ 0x2a
 800600c:	4641      	mov	r1, r8
 800600e:	9600      	str	r6, [sp, #0]
 8006010:	463b      	mov	r3, r7
 8006012:	4620      	mov	r0, r4
 8006014:	e7c8      	b.n	8005fa8 <HAL_I2C_Mem_Read+0x15c>
 8006016:	4632      	mov	r2, r6
 8006018:	4639      	mov	r1, r7
 800601a:	4620      	mov	r0, r4
 800601c:	f7ff fc30 	bl	8005880 <I2C_WaitOnRXNEFlagUntilTimeout>
 8006020:	2800      	cmp	r0, #0
 8006022:	f47f af5e 	bne.w	8005ee2 <HAL_I2C_Mem_Read+0x96>
 8006026:	6823      	ldr	r3, [r4, #0]
 8006028:	691a      	ldr	r2, [r3, #16]
 800602a:	6a63      	ldr	r3, [r4, #36]	@ 0x24
 800602c:	701a      	strb	r2, [r3, #0]
 800602e:	8d62      	ldrh	r2, [r4, #42]	@ 0x2a
 8006030:	6a61      	ldr	r1, [r4, #36]	@ 0x24
 8006032:	3a01      	subs	r2, #1
 8006034:	b292      	uxth	r2, r2
 8006036:	1c4b      	adds	r3, r1, #1
 8006038:	8562      	strh	r2, [r4, #42]	@ 0x2a
 800603a:	6822      	ldr	r2, [r4, #0]
 800603c:	6263      	str	r3, [r4, #36]	@ 0x24
 800603e:	8d23      	ldrh	r3, [r4, #40]	@ 0x28
 8006040:	6950      	ldr	r0, [r2, #20]
 8006042:	3b01      	subs	r3, #1
 8006044:	b29b      	uxth	r3, r3
 8006046:	0740      	lsls	r0, r0, #29
 8006048:	8523      	strh	r3, [r4, #40]	@ 0x28
 800604a:	f57f af5b 	bpl.w	8005f04 <HAL_I2C_Mem_Read+0xb8>
 800604e:	2b03      	cmp	r3, #3
 8006050:	bf02      	ittt	eq
 8006052:	6813      	ldreq	r3, [r2, #0]
 8006054:	f423 6380 	biceq.w	r3, r3, #1024	@ 0x400
 8006058:	6013      	streq	r3, [r2, #0]
 800605a:	6913      	ldr	r3, [r2, #16]
 800605c:	704b      	strb	r3, [r1, #1]
 800605e:	e790      	b.n	8005f82 <HAL_I2C_Mem_Read+0x136>
 8006060:	00100002 	.word	0x00100002
 8006064:	ffff0000 	.word	0xffff0000
 8006068:	00010004 	.word	0x00010004

0800606c <HAL_I2C_Mem_Read_DMA>:
 800606c:	e92d 47f0 	stmdb	sp!, {r4, r5, r6, r7, r8, r9, sl, lr}
 8006070:	b086      	sub	sp, #24
 8006072:	4604      	mov	r4, r0
 8006074:	4698      	mov	r8, r3
 8006076:	f8dd a038 	ldr.w	sl, [sp, #56]	@ 0x38
 800607a:	460e      	mov	r6, r1
 800607c:	4617      	mov	r7, r2
 800607e:	f7fe fc51 	bl	8004924 <HAL_GetTick>
 8006082:	2300      	movs	r3, #0
 8006084:	9303      	str	r3, [sp, #12]
 8006086:	f894 303d 	ldrb.w	r3, [r4, #61]	@ 0x3d
 800608a:	2b20      	cmp	r3, #32
 800608c:	4681      	mov	r9, r0
 800608e:	d003      	beq.n	8006098 <HAL_I2C_Mem_Read_DMA+0x2c>
 8006090:	2002      	movs	r0, #2
 8006092:	b006      	add	sp, #24
 8006094:	e8bd 87f0 	ldmia.w	sp!, {r4, r5, r6, r7, r8, r9, sl, pc}
 8006098:	4b66      	ldr	r3, [pc, #408]	@ (8006234 <HAL_I2C_Mem_Read_DMA+0x1c8>)
 800609a:	f246 12a8 	movw	r2, #25000	@ 0x61a8
 800609e:	681b      	ldr	r3, [r3, #0]
 80060a0:	fbb3 f3f2 	udiv	r3, r3, r2
 80060a4:	2219      	movs	r2, #25
 80060a6:	4353      	muls	r3, r2
 80060a8:	9303      	str	r3, [sp, #12]
 80060aa:	9b03      	ldr	r3, [sp, #12]
 80060ac:	3b01      	subs	r3, #1
 80060ae:	9303      	str	r3, [sp, #12]
 80060b0:	9b03      	ldr	r3, [sp, #12]
 80060b2:	b94b      	cbnz	r3, 80060c8 <HAL_I2C_Mem_Read_DMA+0x5c>
 80060b4:	2220      	movs	r2, #32
 80060b6:	6323      	str	r3, [r4, #48]	@ 0x30
 80060b8:	f884 203d 	strb.w	r2, [r4, #61]	@ 0x3d
 80060bc:	f884 303e 	strb.w	r3, [r4, #62]	@ 0x3e
 80060c0:	6c23      	ldr	r3, [r4, #64]	@ 0x40
 80060c2:	4313      	orrs	r3, r2
 80060c4:	6423      	str	r3, [r4, #64]	@ 0x40
 80060c6:	e7e3      	b.n	8006090 <HAL_I2C_Mem_Read_DMA+0x24>
 80060c8:	6821      	ldr	r1, [r4, #0]
 80060ca:	698b      	ldr	r3, [r1, #24]
 80060cc:	079a      	lsls	r2, r3, #30
 80060ce:	d4ec      	bmi.n	80060aa <HAL_I2C_Mem_Read_DMA+0x3e>
 80060d0:	f894 303c 	ldrb.w	r3, [r4, #60]	@ 0x3c
 80060d4:	2b01      	cmp	r3, #1
 80060d6:	d0db      	beq.n	8006090 <HAL_I2C_Mem_Read_DMA+0x24>
 80060d8:	2301      	movs	r3, #1
 80060da:	f884 303c 	strb.w	r3, [r4, #60]	@ 0x3c
 80060de:	680b      	ldr	r3, [r1, #0]
 80060e0:	4a55      	ldr	r2, [pc, #340]	@ (8006238 <HAL_I2C_Mem_Read_DMA+0x1cc>)
 80060e2:	07db      	lsls	r3, r3, #31
 80060e4:	bf5e      	ittt	pl
 80060e6:	680b      	ldrpl	r3, [r1, #0]
 80060e8:	f043 0301 	orrpl.w	r3, r3, #1
 80060ec:	600b      	strpl	r3, [r1, #0]
 80060ee:	680b      	ldr	r3, [r1, #0]
 80060f0:	f423 6300 	bic.w	r3, r3, #2048	@ 0x800
 80060f4:	600b      	str	r3, [r1, #0]
 80060f6:	2322      	movs	r3, #34	@ 0x22
 80060f8:	f884 303d 	strb.w	r3, [r4, #61]	@ 0x3d
 80060fc:	2340      	movs	r3, #64	@ 0x40
 80060fe:	f884 303e 	strb.w	r3, [r4, #62]	@ 0x3e
 8006102:	2500      	movs	r5, #0
 8006104:	f8bd 303c 	ldrh.w	r3, [sp, #60]	@ 0x3c
 8006108:	6425      	str	r5, [r4, #64]	@ 0x40
 800610a:	8563      	strh	r3, [r4, #42]	@ 0x2a
 800610c:	8d63      	ldrh	r3, [r4, #42]	@ 0x2a
 800610e:	f8c4 a024 	str.w	sl, [r4, #36]	@ 0x24
 8006112:	b29b      	uxth	r3, r3
 8006114:	62e2      	str	r2, [r4, #44]	@ 0x2c
 8006116:	8523      	strh	r3, [r4, #40]	@ 0x28
 8006118:	6466      	str	r6, [r4, #68]	@ 0x44
 800611a:	64a7      	str	r7, [r4, #72]	@ 0x48
 800611c:	f8c4 804c 	str.w	r8, [r4, #76]	@ 0x4c
 8006120:	6525      	str	r5, [r4, #80]	@ 0x50
 8006122:	2b00      	cmp	r3, #0
 8006124:	d068      	beq.n	80061f8 <HAL_I2C_Mem_Read_DMA+0x18c>
 8006126:	6ba0      	ldr	r0, [r4, #56]	@ 0x38
 8006128:	b368      	cbz	r0, 8006186 <HAL_I2C_Mem_Read_DMA+0x11a>
 800612a:	4a44      	ldr	r2, [pc, #272]	@ (800623c <HAL_I2C_Mem_Read_DMA+0x1d0>)
 800612c:	63c2      	str	r2, [r0, #60]	@ 0x3c
 800612e:	4a44      	ldr	r2, [pc, #272]	@ (8006240 <HAL_I2C_Mem_Read_DMA+0x1d4>)
 8006130:	64c2      	str	r2, [r0, #76]	@ 0x4c
 8006132:	e9c0 5510 	strd	r5, r5, [r0, #64]	@ 0x40
 8006136:	4652      	mov	r2, sl
 8006138:	6485      	str	r5, [r0, #72]	@ 0x48
 800613a:	6505      	str	r5, [r0, #80]	@ 0x50
 800613c:	3110      	adds	r1, #16
 800613e:	f7fe ffb1 	bl	80050a4 <HAL_DMA_Start_IT>
 8006142:	4682      	mov	sl, r0
 8006144:	2800      	cmp	r0, #0
 8006146:	d14b      	bne.n	80061e0 <HAL_I2C_Mem_Read_DMA+0x174>
 8006148:	2323      	movs	r3, #35	@ 0x23
 800614a:	9300      	str	r3, [sp, #0]
 800614c:	f8cd 9004 	str.w	r9, [sp, #4]
 8006150:	4643      	mov	r3, r8
 8006152:	463a      	mov	r2, r7
 8006154:	4631      	mov	r1, r6
 8006156:	4620      	mov	r0, r4
 8006158:	f7ff fae6 	bl	8005728 <I2C_RequestMemoryRead>
 800615c:	b300      	cbz	r0, 80061a0 <HAL_I2C_Mem_Read_DMA+0x134>
 800615e:	6ba0      	ldr	r0, [r4, #56]	@ 0x38
 8006160:	f7ff f817 	bl	8005192 <HAL_DMA_Abort_IT>
 8006164:	6ba3      	ldr	r3, [r4, #56]	@ 0x38
 8006166:	f8c3 a03c 	str.w	sl, [r3, #60]	@ 0x3c
 800616a:	6823      	ldr	r3, [r4, #0]
 800616c:	681a      	ldr	r2, [r3, #0]
 800616e:	f422 6280 	bic.w	r2, r2, #1024	@ 0x400
 8006172:	601a      	str	r2, [r3, #0]
 8006174:	f8a4 a02a 	strh.w	sl, [r4, #42]	@ 0x2a
 8006178:	681a      	ldr	r2, [r3, #0]
 800617a:	f8a4 a028 	strh.w	sl, [r4, #40]	@ 0x28
 800617e:	f022 0201 	bic.w	r2, r2, #1
 8006182:	601a      	str	r2, [r3, #0]
 8006184:	e00a      	b.n	800619c <HAL_I2C_Mem_Read_DMA+0x130>
 8006186:	2320      	movs	r3, #32
 8006188:	f884 303d 	strb.w	r3, [r4, #61]	@ 0x3d
 800618c:	f884 003e 	strb.w	r0, [r4, #62]	@ 0x3e
 8006190:	6c23      	ldr	r3, [r4, #64]	@ 0x40
 8006192:	f884 003c 	strb.w	r0, [r4, #60]	@ 0x3c
 8006196:	f043 0380 	orr.w	r3, r3, #128	@ 0x80
 800619a:	6423      	str	r3, [r4, #64]	@ 0x40
 800619c:	2001      	movs	r0, #1
 800619e:	e778      	b.n	8006092 <HAL_I2C_Mem_Read_DMA+0x26>
 80061a0:	8d22      	ldrh	r2, [r4, #40]	@ 0x28
 80061a2:	6823      	ldr	r3, [r4, #0]
 80061a4:	2a01      	cmp	r2, #1
 80061a6:	bf0b      	itete	eq
 80061a8:	681a      	ldreq	r2, [r3, #0]
 80061aa:	685a      	ldrne	r2, [r3, #4]
 80061ac:	f422 6280 	biceq.w	r2, r2, #1024	@ 0x400
 80061b0:	f442 5280 	orrne.w	r2, r2, #4096	@ 0x1000
 80061b4:	bf0c      	ite	eq
 80061b6:	601a      	streq	r2, [r3, #0]
 80061b8:	605a      	strne	r2, [r3, #4]
 80061ba:	2200      	movs	r2, #0
 80061bc:	9204      	str	r2, [sp, #16]
 80061be:	6959      	ldr	r1, [r3, #20]
 80061c0:	9104      	str	r1, [sp, #16]
 80061c2:	6999      	ldr	r1, [r3, #24]
 80061c4:	9104      	str	r1, [sp, #16]
 80061c6:	f884 203c 	strb.w	r2, [r4, #60]	@ 0x3c
 80061ca:	9904      	ldr	r1, [sp, #16]
 80061cc:	685a      	ldr	r2, [r3, #4]
 80061ce:	f442 7280 	orr.w	r2, r2, #256	@ 0x100
 80061d2:	605a      	str	r2, [r3, #4]
 80061d4:	685a      	ldr	r2, [r3, #4]
 80061d6:	f442 6200 	orr.w	r2, r2, #2048	@ 0x800
 80061da:	605a      	str	r2, [r3, #4]
 80061dc:	2000      	movs	r0, #0
 80061de:	e758      	b.n	8006092 <HAL_I2C_Mem_Read_DMA+0x26>
 80061e0:	2320      	movs	r3, #32
 80061e2:	f884 303d 	strb.w	r3, [r4, #61]	@ 0x3d
 80061e6:	f884 503e 	strb.w	r5, [r4, #62]	@ 0x3e
 80061ea:	6c23      	ldr	r3, [r4, #64]	@ 0x40
 80061ec:	f884 503c 	strb.w	r5, [r4, #60]	@ 0x3c
 80061f0:	f043 0310 	orr.w	r3, r3, #16
 80061f4:	6423      	str	r3, [r4, #64]	@ 0x40
 80061f6:	e7d1      	b.n	800619c <HAL_I2C_Mem_Read_DMA+0x130>
 80061f8:	2323      	movs	r3, #35	@ 0x23
 80061fa:	9300      	str	r3, [sp, #0]
 80061fc:	f8cd 9004 	str.w	r9, [sp, #4]
 8006200:	4643      	mov	r3, r8
 8006202:	463a      	mov	r2, r7
 8006204:	4631      	mov	r1, r6
 8006206:	4620      	mov	r0, r4
 8006208:	f7ff fa8e 	bl	8005728 <I2C_RequestMemoryRead>
 800620c:	2800      	cmp	r0, #0
 800620e:	d1c5      	bne.n	800619c <HAL_I2C_Mem_Read_DMA+0x130>
 8006210:	6823      	ldr	r3, [r4, #0]
 8006212:	9005      	str	r0, [sp, #20]
 8006214:	695a      	ldr	r2, [r3, #20]
 8006216:	9205      	str	r2, [sp, #20]
 8006218:	699a      	ldr	r2, [r3, #24]
 800621a:	9205      	str	r2, [sp, #20]
 800621c:	9a05      	ldr	r2, [sp, #20]
 800621e:	681a      	ldr	r2, [r3, #0]
 8006220:	f442 7200 	orr.w	r2, r2, #512	@ 0x200
 8006224:	601a      	str	r2, [r3, #0]
 8006226:	2320      	movs	r3, #32
 8006228:	f884 303d 	strb.w	r3, [r4, #61]	@ 0x3d
 800622c:	f884 003c 	strb.w	r0, [r4, #60]	@ 0x3c
 8006230:	e7d4      	b.n	80061dc <HAL_I2C_Mem_Read_DMA+0x170>
 8006232:	bf00      	nop
 8006234:	20000060 	.word	0x20000060
 8006238:	ffff0000 	.word	0xffff0000
 800623c:	08006345 	.word	0x08006345
 8006240:	08006301 	.word	0x08006301

08006244 <HAL_I2C_MasterRxCpltCallback>:
 8006244:	4770      	bx	lr

08006246 <HAL_I2C_SlaveTxCpltCallback>:
 8006246:	4770      	bx	lr

08006248 <HAL_I2C_SlaveRxCpltCallback>:
 8006248:	4770      	bx	lr

0800624a <HAL_I2C_AddrCallback>:
 800624a:	4770      	bx	lr

0800624c <HAL_I2C_ListenCpltCallback>:
 800624c:	4770      	bx	lr

0800624e <HAL_I2C_MemTxCpltCallback>:
 800624e:	4770      	bx	lr

08006250 <I2C_MemoryTransmit_TXE_BTF>:
 8006250:	f890 203d 	ldrb.w	r2, [r0, #61]	@ 0x3d
 8006254:	b508      	push	{r3, lr}
 8006256:	6d03      	ldr	r3, [r0, #80]	@ 0x50
 8006258:	b2d2      	uxtb	r2, r2
 800625a:	b983      	cbnz	r3, 800627e <I2C_MemoryTransmit_TXE_BTF+0x2e>
 800625c:	6cc3      	ldr	r3, [r0, #76]	@ 0x4c
 800625e:	6802      	ldr	r2, [r0, #0]
 8006260:	2b01      	cmp	r3, #1
 8006262:	6c83      	ldr	r3, [r0, #72]	@ 0x48
 8006264:	d105      	bne.n	8006272 <I2C_MemoryTransmit_TXE_BTF+0x22>
 8006266:	b2db      	uxtb	r3, r3
 8006268:	6113      	str	r3, [r2, #16]
 800626a:	6d03      	ldr	r3, [r0, #80]	@ 0x50
 800626c:	3302      	adds	r3, #2
 800626e:	6503      	str	r3, [r0, #80]	@ 0x50
 8006270:	bd08      	pop	{r3, pc}
 8006272:	f3c3 2307 	ubfx	r3, r3, #8, #8
 8006276:	6113      	str	r3, [r2, #16]
 8006278:	6d03      	ldr	r3, [r0, #80]	@ 0x50
 800627a:	3301      	adds	r3, #1
 800627c:	e7f7      	b.n	800626e <I2C_MemoryTransmit_TXE_BTF+0x1e>
 800627e:	6d03      	ldr	r3, [r0, #80]	@ 0x50
 8006280:	2b01      	cmp	r3, #1
 8006282:	d103      	bne.n	800628c <I2C_MemoryTransmit_TXE_BTF+0x3c>
 8006284:	6c83      	ldr	r3, [r0, #72]	@ 0x48
 8006286:	6802      	ldr	r2, [r0, #0]
 8006288:	b2db      	uxtb	r3, r3
 800628a:	e7f4      	b.n	8006276 <I2C_MemoryTransmit_TXE_BTF+0x26>
 800628c:	6d03      	ldr	r3, [r0, #80]	@ 0x50
 800628e:	2b02      	cmp	r3, #2
 8006290:	d12f      	bne.n	80062f2 <I2C_MemoryTransmit_TXE_BTF+0xa2>
 8006292:	2a22      	cmp	r2, #34	@ 0x22
 8006294:	d105      	bne.n	80062a2 <I2C_MemoryTransmit_TXE_BTF+0x52>
 8006296:	6802      	ldr	r2, [r0, #0]
 8006298:	6813      	ldr	r3, [r2, #0]
 800629a:	f443 7380 	orr.w	r3, r3, #256	@ 0x100
 800629e:	6013      	str	r3, [r2, #0]
 80062a0:	e7ea      	b.n	8006278 <I2C_MemoryTransmit_TXE_BTF+0x28>
 80062a2:	8d43      	ldrh	r3, [r0, #42]	@ 0x2a
 80062a4:	b29b      	uxth	r3, r3
 80062a6:	b163      	cbz	r3, 80062c2 <I2C_MemoryTransmit_TXE_BTF+0x72>
 80062a8:	2a21      	cmp	r2, #33	@ 0x21
 80062aa:	d10a      	bne.n	80062c2 <I2C_MemoryTransmit_TXE_BTF+0x72>
 80062ac:	6a43      	ldr	r3, [r0, #36]	@ 0x24
 80062ae:	6802      	ldr	r2, [r0, #0]
 80062b0:	f813 1b01 	ldrb.w	r1, [r3], #1
 80062b4:	6111      	str	r1, [r2, #16]
 80062b6:	6243      	str	r3, [r0, #36]	@ 0x24
 80062b8:	8d43      	ldrh	r3, [r0, #42]	@ 0x2a
 80062ba:	3b01      	subs	r3, #1
 80062bc:	b29b      	uxth	r3, r3
 80062be:	8543      	strh	r3, [r0, #42]	@ 0x2a
 80062c0:	e7d6      	b.n	8006270 <I2C_MemoryTransmit_TXE_BTF+0x20>
 80062c2:	8d43      	ldrh	r3, [r0, #42]	@ 0x2a
 80062c4:	b29b      	uxth	r3, r3
 80062c6:	2b00      	cmp	r3, #0
 80062c8:	d1d2      	bne.n	8006270 <I2C_MemoryTransmit_TXE_BTF+0x20>
 80062ca:	2a21      	cmp	r2, #33	@ 0x21
 80062cc:	d1d0      	bne.n	8006270 <I2C_MemoryTransmit_TXE_BTF+0x20>
 80062ce:	6802      	ldr	r2, [r0, #0]
 80062d0:	6851      	ldr	r1, [r2, #4]
 80062d2:	f421 61e0 	bic.w	r1, r1, #1792	@ 0x700
 80062d6:	6051      	str	r1, [r2, #4]
 80062d8:	6811      	ldr	r1, [r2, #0]
 80062da:	f441 7100 	orr.w	r1, r1, #512	@ 0x200
 80062de:	6011      	str	r1, [r2, #0]
 80062e0:	2220      	movs	r2, #32
 80062e2:	6303      	str	r3, [r0, #48]	@ 0x30
 80062e4:	f880 203d 	strb.w	r2, [r0, #61]	@ 0x3d
 80062e8:	f880 303e 	strb.w	r3, [r0, #62]	@ 0x3e
 80062ec:	f7ff ffaf 	bl	800624e <HAL_I2C_MemTxCpltCallback>
 80062f0:	e7be      	b.n	8006270 <I2C_MemoryTransmit_TXE_BTF+0x20>
 80062f2:	6803      	ldr	r3, [r0, #0]
 80062f4:	695a      	ldr	r2, [r3, #20]
 80062f6:	0612      	lsls	r2, r2, #24
 80062f8:	bf44      	itt	mi
 80062fa:	2200      	movmi	r2, #0
 80062fc:	611a      	strmi	r2, [r3, #16]
 80062fe:	e7b7      	b.n	8006270 <I2C_MemoryTransmit_TXE_BTF+0x20>

08006300 <I2C_DMAError>:
 8006300:	b510      	push	{r4, lr}
 8006302:	6b84      	ldr	r4, [r0, #56]	@ 0x38
 8006304:	6b63      	ldr	r3, [r4, #52]	@ 0x34
 8006306:	b10b      	cbz	r3, 800630c <I2C_DMAError+0xc>
 8006308:	2200      	movs	r2, #0
 800630a:	63da      	str	r2, [r3, #60]	@ 0x3c
 800630c:	6ba3      	ldr	r3, [r4, #56]	@ 0x38
 800630e:	b10b      	cbz	r3, 8006314 <I2C_DMAError+0x14>
 8006310:	2200      	movs	r2, #0
 8006312:	63da      	str	r2, [r3, #60]	@ 0x3c
 8006314:	f7ff f811 	bl	800533a <HAL_DMA_GetError>
 8006318:	2802      	cmp	r0, #2
 800631a:	d012      	beq.n	8006342 <I2C_DMAError+0x42>
 800631c:	6822      	ldr	r2, [r4, #0]
 800631e:	6813      	ldr	r3, [r2, #0]
 8006320:	f423 6380 	bic.w	r3, r3, #1024	@ 0x400
 8006324:	6013      	str	r3, [r2, #0]
 8006326:	2300      	movs	r3, #0
 8006328:	2220      	movs	r2, #32
 800632a:	8563      	strh	r3, [r4, #42]	@ 0x2a
 800632c:	f884 203d 	strb.w	r2, [r4, #61]	@ 0x3d
 8006330:	f884 303e 	strb.w	r3, [r4, #62]	@ 0x3e
 8006334:	6c23      	ldr	r3, [r4, #64]	@ 0x40
 8006336:	f043 0310 	orr.w	r3, r3, #16
 800633a:	6423      	str	r3, [r4, #64]	@ 0x40
 800633c:	4620      	mov	r0, r4
 800633e:	f7fc fca9 	bl	8002c94 <HAL_I2C_ErrorCallback>
 8006342:	bd10      	pop	{r4, pc}

08006344 <I2C_DMAXferCplt>:
 8006344:	b570      	push	{r4, r5, r6, lr}
 8006346:	6b84      	ldr	r4, [r0, #56]	@ 0x38
 8006348:	6823      	ldr	r3, [r4, #0]
 800634a:	f894 103d 	ldrb.w	r1, [r4, #61]	@ 0x3d
 800634e:	f894 003e 	ldrb.w	r0, [r4, #62]	@ 0x3e
 8006352:	6ae2      	ldr	r2, [r4, #44]	@ 0x2c
 8006354:	685d      	ldr	r5, [r3, #4]
 8006356:	f425 7540 	bic.w	r5, r5, #768	@ 0x300
 800635a:	605d      	str	r5, [r3, #4]
 800635c:	6b65      	ldr	r5, [r4, #52]	@ 0x34
 800635e:	b2c9      	uxtb	r1, r1
 8006360:	b2c0      	uxtb	r0, r0
 8006362:	b10d      	cbz	r5, 8006368 <I2C_DMAXferCplt+0x24>
 8006364:	2600      	movs	r6, #0
 8006366:	63ee      	str	r6, [r5, #60]	@ 0x3c
 8006368:	6ba5      	ldr	r5, [r4, #56]	@ 0x38
 800636a:	b10d      	cbz	r5, 8006370 <I2C_DMAXferCplt+0x2c>
 800636c:	2600      	movs	r6, #0
 800636e:	63ee      	str	r6, [r5, #60]	@ 0x3c
 8006370:	f001 0521 	and.w	r5, r1, #33	@ 0x21
 8006374:	2d21      	cmp	r5, #33	@ 0x21
 8006376:	d005      	beq.n	8006384 <I2C_DMAXferCplt+0x40>
 8006378:	f001 0522 	and.w	r5, r1, #34	@ 0x22
 800637c:	2d22      	cmp	r5, #34	@ 0x22
 800637e:	d123      	bne.n	80063c8 <I2C_DMAXferCplt+0x84>
 8006380:	2820      	cmp	r0, #32
 8006382:	d121      	bne.n	80063c8 <I2C_DMAXferCplt+0x84>
 8006384:	685a      	ldr	r2, [r3, #4]
 8006386:	f422 6200 	bic.w	r2, r2, #2048	@ 0x800
 800638a:	605a      	str	r2, [r3, #4]
 800638c:	2929      	cmp	r1, #41	@ 0x29
 800638e:	f04f 0300 	mov.w	r3, #0
 8006392:	8563      	strh	r3, [r4, #42]	@ 0x2a
 8006394:	d10d      	bne.n	80063b2 <I2C_DMAXferCplt+0x6e>
 8006396:	2321      	movs	r3, #33	@ 0x21
 8006398:	6323      	str	r3, [r4, #48]	@ 0x30
 800639a:	2328      	movs	r3, #40	@ 0x28
 800639c:	f884 303d 	strb.w	r3, [r4, #61]	@ 0x3d
 80063a0:	4620      	mov	r0, r4
 80063a2:	f7ff ff50 	bl	8006246 <HAL_I2C_SlaveTxCpltCallback>
 80063a6:	6822      	ldr	r2, [r4, #0]
 80063a8:	6853      	ldr	r3, [r2, #4]
 80063aa:	f443 7340 	orr.w	r3, r3, #768	@ 0x300
 80063ae:	6053      	str	r3, [r2, #4]
 80063b0:	bd70      	pop	{r4, r5, r6, pc}
 80063b2:	292a      	cmp	r1, #42	@ 0x2a
 80063b4:	d1f7      	bne.n	80063a6 <I2C_DMAXferCplt+0x62>
 80063b6:	2322      	movs	r3, #34	@ 0x22
 80063b8:	6323      	str	r3, [r4, #48]	@ 0x30
 80063ba:	2328      	movs	r3, #40	@ 0x28
 80063bc:	f884 303d 	strb.w	r3, [r4, #61]	@ 0x3d
 80063c0:	4620      	mov	r0, r4
 80063c2:	f7ff ff41 	bl	8006248 <HAL_I2C_SlaveRxCpltCallback>
 80063c6:	e7ee      	b.n	80063a6 <I2C_DMAXferCplt+0x62>
 80063c8:	f894 103e 	ldrb.w	r1, [r4, #62]	@ 0x3e
 80063cc:	2900      	cmp	r1, #0
 80063ce:	d0ef      	beq.n	80063b0 <I2C_DMAXferCplt+0x6c>
 80063d0:	8d61      	ldrh	r1, [r4, #42]	@ 0x2a
 80063d2:	b289      	uxth	r1, r1
 80063d4:	2901      	cmp	r1, #1
 80063d6:	bf02      	ittt	eq
 80063d8:	6819      	ldreq	r1, [r3, #0]
 80063da:	f421 6180 	biceq.w	r1, r1, #1024	@ 0x400
 80063de:	6019      	streq	r1, [r3, #0]
 80063e0:	6859      	ldr	r1, [r3, #4]
 80063e2:	f512 3f80 	cmn.w	r2, #65536	@ 0x10000
 80063e6:	f421 7140 	bic.w	r1, r1, #768	@ 0x300
 80063ea:	6059      	str	r1, [r3, #4]
 80063ec:	d006      	beq.n	80063fc <I2C_DMAXferCplt+0xb8>
 80063ee:	2a08      	cmp	r2, #8
 80063f0:	d004      	beq.n	80063fc <I2C_DMAXferCplt+0xb8>
 80063f2:	f1b2 4f2a 	cmp.w	r2, #2852126720	@ 0xaa000000
 80063f6:	d001      	beq.n	80063fc <I2C_DMAXferCplt+0xb8>
 80063f8:	2a20      	cmp	r2, #32
 80063fa:	d103      	bne.n	8006404 <I2C_DMAXferCplt+0xc0>
 80063fc:	6819      	ldr	r1, [r3, #0]
 80063fe:	f441 7100 	orr.w	r1, r1, #512	@ 0x200
 8006402:	6019      	str	r1, [r3, #0]
 8006404:	6859      	ldr	r1, [r3, #4]
 8006406:	f421 5180 	bic.w	r1, r1, #4096	@ 0x1000
 800640a:	6059      	str	r1, [r3, #4]
 800640c:	6859      	ldr	r1, [r3, #4]
 800640e:	f421 6100 	bic.w	r1, r1, #2048	@ 0x800
 8006412:	6059      	str	r1, [r3, #4]
 8006414:	2300      	movs	r3, #0
 8006416:	8563      	strh	r3, [r4, #42]	@ 0x2a
 8006418:	6c23      	ldr	r3, [r4, #64]	@ 0x40
 800641a:	b11b      	cbz	r3, 8006424 <I2C_DMAXferCplt+0xe0>
 800641c:	4620      	mov	r0, r4
 800641e:	f7fc fc39 	bl	8002c94 <HAL_I2C_ErrorCallback>
 8006422:	e7c5      	b.n	80063b0 <I2C_DMAXferCplt+0x6c>
 8006424:	2120      	movs	r1, #32
 8006426:	f884 103d 	strb.w	r1, [r4, #61]	@ 0x3d
 800642a:	f894 103e 	ldrb.w	r1, [r4, #62]	@ 0x3e
 800642e:	f884 303e 	strb.w	r3, [r4, #62]	@ 0x3e
 8006432:	2940      	cmp	r1, #64	@ 0x40
 8006434:	d104      	bne.n	8006440 <I2C_DMAXferCplt+0xfc>
 8006436:	6323      	str	r3, [r4, #48]	@ 0x30
 8006438:	4620      	mov	r0, r4
 800643a:	f7fc fc11 	bl	8002c60 <HAL_I2C_MemRxCpltCallback>
 800643e:	e7b7      	b.n	80063b0 <I2C_DMAXferCplt+0x6c>
 8006440:	2a08      	cmp	r2, #8
 8006442:	d001      	beq.n	8006448 <I2C_DMAXferCplt+0x104>
 8006444:	2a20      	cmp	r2, #32
 8006446:	d105      	bne.n	8006454 <I2C_DMAXferCplt+0x110>
 8006448:	2300      	movs	r3, #0
 800644a:	6323      	str	r3, [r4, #48]	@ 0x30
 800644c:	4620      	mov	r0, r4
 800644e:	f7ff fef9 	bl	8006244 <HAL_I2C_MasterRxCpltCallback>
 8006452:	e7ad      	b.n	80063b0 <I2C_DMAXferCplt+0x6c>
 8006454:	2312      	movs	r3, #18
 8006456:	e7f8      	b.n	800644a <I2C_DMAXferCplt+0x106>

08006458 <HAL_I2C_AbortCpltCallback>:
 8006458:	4770      	bx	lr
	...

0800645c <I2C_DMAAbort>:
 800645c:	b537      	push	{r0, r1, r2, r4, r5, lr}
 800645e:	2300      	movs	r3, #0
 8006460:	9301      	str	r3, [sp, #4]
 8006462:	4b2d      	ldr	r3, [pc, #180]	@ (8006518 <I2C_DMAAbort+0xbc>)
 8006464:	6b80      	ldr	r0, [r0, #56]	@ 0x38
 8006466:	681b      	ldr	r3, [r3, #0]
 8006468:	f890 203d 	ldrb.w	r2, [r0, #61]	@ 0x3d
 800646c:	f246 11a8 	movw	r1, #25000	@ 0x61a8
 8006470:	fbb3 f3f1 	udiv	r3, r3, r1
 8006474:	2123      	movs	r1, #35	@ 0x23
 8006476:	434b      	muls	r3, r1
 8006478:	9301      	str	r3, [sp, #4]
 800647a:	6803      	ldr	r3, [r0, #0]
 800647c:	b2d2      	uxtb	r2, r2
 800647e:	9901      	ldr	r1, [sp, #4]
 8006480:	bb41      	cbnz	r1, 80064d4 <I2C_DMAAbort+0x78>
 8006482:	6c01      	ldr	r1, [r0, #64]	@ 0x40
 8006484:	f041 0120 	orr.w	r1, r1, #32
 8006488:	6401      	str	r1, [r0, #64]	@ 0x40
 800648a:	6b44      	ldr	r4, [r0, #52]	@ 0x34
 800648c:	b10c      	cbz	r4, 8006492 <I2C_DMAAbort+0x36>
 800648e:	2100      	movs	r1, #0
 8006490:	63e1      	str	r1, [r4, #60]	@ 0x3c
 8006492:	6b81      	ldr	r1, [r0, #56]	@ 0x38
 8006494:	b109      	cbz	r1, 800649a <I2C_DMAAbort+0x3e>
 8006496:	2500      	movs	r5, #0
 8006498:	63cd      	str	r5, [r1, #60]	@ 0x3c
 800649a:	681d      	ldr	r5, [r3, #0]
 800649c:	f425 6580 	bic.w	r5, r5, #1024	@ 0x400
 80064a0:	601d      	str	r5, [r3, #0]
 80064a2:	2500      	movs	r5, #0
 80064a4:	8545      	strh	r5, [r0, #42]	@ 0x2a
 80064a6:	b104      	cbz	r4, 80064aa <I2C_DMAAbort+0x4e>
 80064a8:	6525      	str	r5, [r4, #80]	@ 0x50
 80064aa:	b101      	cbz	r1, 80064ae <I2C_DMAAbort+0x52>
 80064ac:	650d      	str	r5, [r1, #80]	@ 0x50
 80064ae:	6819      	ldr	r1, [r3, #0]
 80064b0:	f021 0101 	bic.w	r1, r1, #1
 80064b4:	6019      	str	r1, [r3, #0]
 80064b6:	f890 103d 	ldrb.w	r1, [r0, #61]	@ 0x3d
 80064ba:	2960      	cmp	r1, #96	@ 0x60
 80064bc:	d111      	bne.n	80064e2 <I2C_DMAAbort+0x86>
 80064be:	2320      	movs	r3, #32
 80064c0:	f880 303d 	strb.w	r3, [r0, #61]	@ 0x3d
 80064c4:	2300      	movs	r3, #0
 80064c6:	f880 303e 	strb.w	r3, [r0, #62]	@ 0x3e
 80064ca:	6403      	str	r3, [r0, #64]	@ 0x40
 80064cc:	f7ff ffc4 	bl	8006458 <HAL_I2C_AbortCpltCallback>
 80064d0:	b003      	add	sp, #12
 80064d2:	bd30      	pop	{r4, r5, pc}
 80064d4:	9901      	ldr	r1, [sp, #4]
 80064d6:	3901      	subs	r1, #1
 80064d8:	9101      	str	r1, [sp, #4]
 80064da:	6819      	ldr	r1, [r3, #0]
 80064dc:	0589      	lsls	r1, r1, #22
 80064de:	d4ce      	bmi.n	800647e <I2C_DMAAbort+0x22>
 80064e0:	e7d3      	b.n	800648a <I2C_DMAAbort+0x2e>
 80064e2:	f002 0228 	and.w	r2, r2, #40	@ 0x28
 80064e6:	2a28      	cmp	r2, #40	@ 0x28
 80064e8:	d10e      	bne.n	8006508 <I2C_DMAAbort+0xac>
 80064ea:	6819      	ldr	r1, [r3, #0]
 80064ec:	f041 0101 	orr.w	r1, r1, #1
 80064f0:	6019      	str	r1, [r3, #0]
 80064f2:	6819      	ldr	r1, [r3, #0]
 80064f4:	f441 6180 	orr.w	r1, r1, #1024	@ 0x400
 80064f8:	6019      	str	r1, [r3, #0]
 80064fa:	2300      	movs	r3, #0
 80064fc:	6303      	str	r3, [r0, #48]	@ 0x30
 80064fe:	f880 203d 	strb.w	r2, [r0, #61]	@ 0x3d
 8006502:	f7fc fbc7 	bl	8002c94 <HAL_I2C_ErrorCallback>
 8006506:	e7e3      	b.n	80064d0 <I2C_DMAAbort+0x74>
 8006508:	2320      	movs	r3, #32
 800650a:	f880 303d 	strb.w	r3, [r0, #61]	@ 0x3d
 800650e:	2300      	movs	r3, #0
 8006510:	f880 303e 	strb.w	r3, [r0, #62]	@ 0x3e
 8006514:	e7f5      	b.n	8006502 <I2C_DMAAbort+0xa6>
 8006516:	bf00      	nop
 8006518:	20000060 	.word	0x20000060

0800651c <I2C_ITError>:
 800651c:	b510      	push	{r4, lr}
 800651e:	f890 203d 	ldrb.w	r2, [r0, #61]	@ 0x3d
 8006522:	f890 303e 	ldrb.w	r3, [r0, #62]	@ 0x3e
 8006526:	2b10      	cmp	r3, #16
 8006528:	b2d9      	uxtb	r1, r3
 800652a:	4604      	mov	r4, r0
 800652c:	6803      	ldr	r3, [r0, #0]
 800652e:	b2d2      	uxtb	r2, r2
 8006530:	d001      	beq.n	8006536 <I2C_ITError+0x1a>
 8006532:	2940      	cmp	r1, #64	@ 0x40
 8006534:	d113      	bne.n	800655e <I2C_ITError+0x42>
 8006536:	2a22      	cmp	r2, #34	@ 0x22
 8006538:	d111      	bne.n	800655e <I2C_ITError+0x42>
 800653a:	6819      	ldr	r1, [r3, #0]
 800653c:	f421 6100 	bic.w	r1, r1, #2048	@ 0x800
 8006540:	6019      	str	r1, [r3, #0]
 8006542:	6859      	ldr	r1, [r3, #4]
 8006544:	f411 6100 	ands.w	r1, r1, #2048	@ 0x800
 8006548:	d106      	bne.n	8006558 <I2C_ITError+0x3c>
 800654a:	2a60      	cmp	r2, #96	@ 0x60
 800654c:	bf1e      	ittt	ne
 800654e:	2220      	movne	r2, #32
 8006550:	f884 203d 	strbne.w	r2, [r4, #61]	@ 0x3d
 8006554:	f884 103e 	strbne.w	r1, [r4, #62]	@ 0x3e
 8006558:	2200      	movs	r2, #0
 800655a:	6322      	str	r2, [r4, #48]	@ 0x30
 800655c:	e007      	b.n	800656e <I2C_ITError+0x52>
 800655e:	f002 0128 	and.w	r1, r2, #40	@ 0x28
 8006562:	2928      	cmp	r1, #40	@ 0x28
 8006564:	d1ed      	bne.n	8006542 <I2C_ITError+0x26>
 8006566:	2200      	movs	r2, #0
 8006568:	6322      	str	r2, [r4, #48]	@ 0x30
 800656a:	f884 103d 	strb.w	r1, [r4, #61]	@ 0x3d
 800656e:	685a      	ldr	r2, [r3, #4]
 8006570:	f412 6200 	ands.w	r2, r2, #2048	@ 0x800
 8006574:	d04f      	beq.n	8006616 <I2C_ITError+0xfa>
 8006576:	685a      	ldr	r2, [r3, #4]
 8006578:	6b60      	ldr	r0, [r4, #52]	@ 0x34
 800657a:	f422 6200 	bic.w	r2, r2, #2048	@ 0x800
 800657e:	605a      	str	r2, [r3, #4]
 8006580:	f890 3035 	ldrb.w	r3, [r0, #53]	@ 0x35
 8006584:	2b01      	cmp	r3, #1
 8006586:	4b37      	ldr	r3, [pc, #220]	@ (8006664 <I2C_ITError+0x148>)
 8006588:	d02b      	beq.n	80065e2 <I2C_ITError+0xc6>
 800658a:	6503      	str	r3, [r0, #80]	@ 0x50
 800658c:	f7fe fe01 	bl	8005192 <HAL_DMA_Abort_IT>
 8006590:	b150      	cbz	r0, 80065a8 <I2C_ITError+0x8c>
 8006592:	6822      	ldr	r2, [r4, #0]
 8006594:	6b60      	ldr	r0, [r4, #52]	@ 0x34
 8006596:	6813      	ldr	r3, [r2, #0]
 8006598:	f023 0301 	bic.w	r3, r3, #1
 800659c:	6013      	str	r3, [r2, #0]
 800659e:	2320      	movs	r3, #32
 80065a0:	f884 303d 	strb.w	r3, [r4, #61]	@ 0x3d
 80065a4:	6d03      	ldr	r3, [r0, #80]	@ 0x50
 80065a6:	4798      	blx	r3
 80065a8:	6c23      	ldr	r3, [r4, #64]	@ 0x40
 80065aa:	0719      	lsls	r1, r3, #28
 80065ac:	bf1f      	itttt	ne
 80065ae:	6822      	ldrne	r2, [r4, #0]
 80065b0:	6853      	ldrne	r3, [r2, #4]
 80065b2:	f423 63e0 	bicne.w	r3, r3, #1792	@ 0x700
 80065b6:	6053      	strne	r3, [r2, #4]
 80065b8:	f894 303d 	ldrb.w	r3, [r4, #61]	@ 0x3d
 80065bc:	6c22      	ldr	r2, [r4, #64]	@ 0x40
 80065be:	0752      	lsls	r2, r2, #29
 80065c0:	b2db      	uxtb	r3, r3
 80065c2:	d50d      	bpl.n	80065e0 <I2C_ITError+0xc4>
 80065c4:	2b28      	cmp	r3, #40	@ 0x28
 80065c6:	d10b      	bne.n	80065e0 <I2C_ITError+0xc4>
 80065c8:	4b27      	ldr	r3, [pc, #156]	@ (8006668 <I2C_ITError+0x14c>)
 80065ca:	62e3      	str	r3, [r4, #44]	@ 0x2c
 80065cc:	2220      	movs	r2, #32
 80065ce:	2300      	movs	r3, #0
 80065d0:	6323      	str	r3, [r4, #48]	@ 0x30
 80065d2:	4620      	mov	r0, r4
 80065d4:	f884 203d 	strb.w	r2, [r4, #61]	@ 0x3d
 80065d8:	f884 303e 	strb.w	r3, [r4, #62]	@ 0x3e
 80065dc:	f7ff fe36 	bl	800624c <HAL_I2C_ListenCpltCallback>
 80065e0:	bd10      	pop	{r4, pc}
 80065e2:	6ba0      	ldr	r0, [r4, #56]	@ 0x38
 80065e4:	6503      	str	r3, [r0, #80]	@ 0x50
 80065e6:	f7fe fdd4 	bl	8005192 <HAL_DMA_Abort_IT>
 80065ea:	2800      	cmp	r0, #0
 80065ec:	d0dc      	beq.n	80065a8 <I2C_ITError+0x8c>
 80065ee:	6823      	ldr	r3, [r4, #0]
 80065f0:	695a      	ldr	r2, [r3, #20]
 80065f2:	0651      	lsls	r1, r2, #25
 80065f4:	d505      	bpl.n	8006602 <I2C_ITError+0xe6>
 80065f6:	691a      	ldr	r2, [r3, #16]
 80065f8:	6a63      	ldr	r3, [r4, #36]	@ 0x24
 80065fa:	701a      	strb	r2, [r3, #0]
 80065fc:	6a63      	ldr	r3, [r4, #36]	@ 0x24
 80065fe:	3301      	adds	r3, #1
 8006600:	6263      	str	r3, [r4, #36]	@ 0x24
 8006602:	6822      	ldr	r2, [r4, #0]
 8006604:	6ba0      	ldr	r0, [r4, #56]	@ 0x38
 8006606:	6813      	ldr	r3, [r2, #0]
 8006608:	f023 0301 	bic.w	r3, r3, #1
 800660c:	6013      	str	r3, [r2, #0]
 800660e:	2320      	movs	r3, #32
 8006610:	f884 303d 	strb.w	r3, [r4, #61]	@ 0x3d
 8006614:	e7c6      	b.n	80065a4 <I2C_ITError+0x88>
 8006616:	f894 103d 	ldrb.w	r1, [r4, #61]	@ 0x3d
 800661a:	2960      	cmp	r1, #96	@ 0x60
 800661c:	d115      	bne.n	800664a <I2C_ITError+0x12e>
 800661e:	2120      	movs	r1, #32
 8006620:	f884 103d 	strb.w	r1, [r4, #61]	@ 0x3d
 8006624:	6422      	str	r2, [r4, #64]	@ 0x40
 8006626:	695a      	ldr	r2, [r3, #20]
 8006628:	0652      	lsls	r2, r2, #25
 800662a:	d505      	bpl.n	8006638 <I2C_ITError+0x11c>
 800662c:	691a      	ldr	r2, [r3, #16]
 800662e:	6a63      	ldr	r3, [r4, #36]	@ 0x24
 8006630:	701a      	strb	r2, [r3, #0]
 8006632:	6a63      	ldr	r3, [r4, #36]	@ 0x24
 8006634:	3301      	adds	r3, #1
 8006636:	6263      	str	r3, [r4, #36]	@ 0x24
 8006638:	6822      	ldr	r2, [r4, #0]
 800663a:	6813      	ldr	r3, [r2, #0]
 800663c:	f023 0301 	bic.w	r3, r3, #1
 8006640:	6013      	str	r3, [r2, #0]
 8006642:	4620      	mov	r0, r4
 8006644:	f7ff ff08 	bl	8006458 <HAL_I2C_AbortCpltCallback>
 8006648:	e7ae      	b.n	80065a8 <I2C_ITError+0x8c>
 800664a:	695a      	ldr	r2, [r3, #20]
 800664c:	0650      	lsls	r0, r2, #25
 800664e:	d505      	bpl.n	800665c <I2C_ITError+0x140>
 8006650:	691a      	ldr	r2, [r3, #16]
 8006652:	6a63      	ldr	r3, [r4, #36]	@ 0x24
 8006654:	701a      	strb	r2, [r3, #0]
 8006656:	6a63      	ldr	r3, [r4, #36]	@ 0x24
 8006658:	3301      	adds	r3, #1
 800665a:	6263      	str	r3, [r4, #36]	@ 0x24
 800665c:	4620      	mov	r0, r4
 800665e:	f7fc fb19 	bl	8002c94 <HAL_I2C_ErrorCallback>
 8006662:	e7a1      	b.n	80065a8 <I2C_ITError+0x8c>
 8006664:	0800645d 	.word	0x0800645d
 8006668:	ffff0000 	.word	0xffff0000

0800666c <HAL_I2C_EV_IRQHandler>:
 800666c:	b5f0      	push	{r4, r5, r6, r7, lr}
 800666e:	6803      	ldr	r3, [r0, #0]
 8006670:	4604      	mov	r4, r0
 8006672:	685a      	ldr	r2, [r3, #4]
 8006674:	6ac6      	ldr	r6, [r0, #44]	@ 0x2c
 8006676:	f890 003e 	ldrb.w	r0, [r0, #62]	@ 0x3e
 800667a:	f894 103d 	ldrb.w	r1, [r4, #61]	@ 0x3d
 800667e:	2810      	cmp	r0, #16
 8006680:	b08f      	sub	sp, #60	@ 0x3c
 8006682:	b2c5      	uxtb	r5, r0
 8006684:	b2c9      	uxtb	r1, r1
 8006686:	d002      	beq.n	800668e <HAL_I2C_EV_IRQHandler+0x22>
 8006688:	2d40      	cmp	r5, #64	@ 0x40
 800668a:	f040 82dd 	bne.w	8006c48 <HAL_I2C_EV_IRQHandler+0x5dc>
 800668e:	699f      	ldr	r7, [r3, #24]
 8006690:	6958      	ldr	r0, [r3, #20]
 8006692:	f010 0f01 	tst.w	r0, #1
 8006696:	d107      	bne.n	80066a8 <HAL_I2C_EV_IRQHandler+0x3c>
 8006698:	f5b6 0f2a 	cmp.w	r6, #11141120	@ 0xaa0000
 800669c:	d002      	beq.n	80066a4 <HAL_I2C_EV_IRQHandler+0x38>
 800669e:	f1b6 4f2a 	cmp.w	r6, #2852126720	@ 0xaa000000
 80066a2:	d151      	bne.n	8006748 <HAL_I2C_EV_IRQHandler+0xdc>
 80066a4:	b00f      	add	sp, #60	@ 0x3c
 80066a6:	bdf0      	pop	{r4, r5, r6, r7, pc}
 80066a8:	0596      	lsls	r6, r2, #22
 80066aa:	d54d      	bpl.n	8006748 <HAL_I2C_EV_IRQHandler+0xdc>
 80066ac:	6ae2      	ldr	r2, [r4, #44]	@ 0x2c
 80066ae:	f5b2 0f2a 	cmp.w	r2, #11141120	@ 0xaa0000
 80066b2:	d10c      	bne.n	80066ce <HAL_I2C_EV_IRQHandler+0x62>
 80066b4:	2201      	movs	r2, #1
 80066b6:	62e2      	str	r2, [r4, #44]	@ 0x2c
 80066b8:	f894 203e 	ldrb.w	r2, [r4, #62]	@ 0x3e
 80066bc:	2a40      	cmp	r2, #64	@ 0x40
 80066be:	d111      	bne.n	80066e4 <HAL_I2C_EV_IRQHandler+0x78>
 80066c0:	6d22      	ldr	r2, [r4, #80]	@ 0x50
 80066c2:	b952      	cbnz	r2, 80066da <HAL_I2C_EV_IRQHandler+0x6e>
 80066c4:	6c62      	ldr	r2, [r4, #68]	@ 0x44
 80066c6:	f002 02fe 	and.w	r2, r2, #254	@ 0xfe
 80066ca:	611a      	str	r2, [r3, #16]
 80066cc:	e7ea      	b.n	80066a4 <HAL_I2C_EV_IRQHandler+0x38>
 80066ce:	6ae2      	ldr	r2, [r4, #44]	@ 0x2c
 80066d0:	f1b2 4f2a 	cmp.w	r2, #2852126720	@ 0xaa000000
 80066d4:	d1f0      	bne.n	80066b8 <HAL_I2C_EV_IRQHandler+0x4c>
 80066d6:	2208      	movs	r2, #8
 80066d8:	e7ed      	b.n	80066b6 <HAL_I2C_EV_IRQHandler+0x4a>
 80066da:	6c62      	ldr	r2, [r4, #68]	@ 0x44
 80066dc:	f042 0201 	orr.w	r2, r2, #1
 80066e0:	b2d2      	uxtb	r2, r2
 80066e2:	e7f2      	b.n	80066ca <HAL_I2C_EV_IRQHandler+0x5e>
 80066e4:	6922      	ldr	r2, [r4, #16]
 80066e6:	f5b2 4f80 	cmp.w	r2, #16384	@ 0x4000
 80066ea:	d11a      	bne.n	8006722 <HAL_I2C_EV_IRQHandler+0xb6>
 80066ec:	f894 203d 	ldrb.w	r2, [r4, #61]	@ 0x3d
 80066f0:	2a21      	cmp	r2, #33	@ 0x21
 80066f2:	6c62      	ldr	r2, [r4, #68]	@ 0x44
 80066f4:	d111      	bne.n	800671a <HAL_I2C_EV_IRQHandler+0xae>
 80066f6:	f002 02fe 	and.w	r2, r2, #254	@ 0xfe
 80066fa:	611a      	str	r2, [r3, #16]
 80066fc:	6b62      	ldr	r2, [r4, #52]	@ 0x34
 80066fe:	b10a      	cbz	r2, 8006704 <HAL_I2C_EV_IRQHandler+0x98>
 8006700:	6bd2      	ldr	r2, [r2, #60]	@ 0x3c
 8006702:	b92a      	cbnz	r2, 8006710 <HAL_I2C_EV_IRQHandler+0xa4>
 8006704:	6ba2      	ldr	r2, [r4, #56]	@ 0x38
 8006706:	2a00      	cmp	r2, #0
 8006708:	d0cc      	beq.n	80066a4 <HAL_I2C_EV_IRQHandler+0x38>
 800670a:	6bd2      	ldr	r2, [r2, #60]	@ 0x3c
 800670c:	2a00      	cmp	r2, #0
 800670e:	d0c9      	beq.n	80066a4 <HAL_I2C_EV_IRQHandler+0x38>
 8006710:	685a      	ldr	r2, [r3, #4]
 8006712:	f442 6200 	orr.w	r2, r2, #2048	@ 0x800
 8006716:	605a      	str	r2, [r3, #4]
 8006718:	e7c4      	b.n	80066a4 <HAL_I2C_EV_IRQHandler+0x38>
 800671a:	f042 0201 	orr.w	r2, r2, #1
 800671e:	b2d2      	uxtb	r2, r2
 8006720:	e7eb      	b.n	80066fa <HAL_I2C_EV_IRQHandler+0x8e>
 8006722:	6d22      	ldr	r2, [r4, #80]	@ 0x50
 8006724:	b932      	cbnz	r2, 8006734 <HAL_I2C_EV_IRQHandler+0xc8>
 8006726:	6c62      	ldr	r2, [r4, #68]	@ 0x44
 8006728:	11d2      	asrs	r2, r2, #7
 800672a:	f002 0206 	and.w	r2, r2, #6
 800672e:	f042 02f0 	orr.w	r2, r2, #240	@ 0xf0
 8006732:	e7ca      	b.n	80066ca <HAL_I2C_EV_IRQHandler+0x5e>
 8006734:	6d22      	ldr	r2, [r4, #80]	@ 0x50
 8006736:	2a01      	cmp	r2, #1
 8006738:	d1b4      	bne.n	80066a4 <HAL_I2C_EV_IRQHandler+0x38>
 800673a:	6c62      	ldr	r2, [r4, #68]	@ 0x44
 800673c:	11d2      	asrs	r2, r2, #7
 800673e:	f002 0206 	and.w	r2, r2, #6
 8006742:	f042 02f1 	orr.w	r2, r2, #241	@ 0xf1
 8006746:	e7c0      	b.n	80066ca <HAL_I2C_EV_IRQHandler+0x5e>
 8006748:	0706      	lsls	r6, r0, #28
 800674a:	d503      	bpl.n	8006754 <HAL_I2C_EV_IRQHandler+0xe8>
 800674c:	0596      	lsls	r6, r2, #22
 800674e:	d501      	bpl.n	8006754 <HAL_I2C_EV_IRQHandler+0xe8>
 8006750:	6c62      	ldr	r2, [r4, #68]	@ 0x44
 8006752:	e7e4      	b.n	800671e <HAL_I2C_EV_IRQHandler+0xb2>
 8006754:	0786      	lsls	r6, r0, #30
 8006756:	f140 80e8 	bpl.w	800692a <HAL_I2C_EV_IRQHandler+0x2be>
 800675a:	0596      	lsls	r6, r2, #22
 800675c:	f140 80e5 	bpl.w	800692a <HAL_I2C_EV_IRQHandler+0x2be>
 8006760:	f894 103e 	ldrb.w	r1, [r4, #62]	@ 0x3e
 8006764:	6ae2      	ldr	r2, [r4, #44]	@ 0x2c
 8006766:	6b25      	ldr	r5, [r4, #48]	@ 0x30
 8006768:	f894 003d 	ldrb.w	r0, [r4, #61]	@ 0x3d
 800676c:	2822      	cmp	r0, #34	@ 0x22
 800676e:	b2c9      	uxtb	r1, r1
 8006770:	f040 80d3 	bne.w	800691a <HAL_I2C_EV_IRQHandler+0x2ae>
 8006774:	6d20      	ldr	r0, [r4, #80]	@ 0x50
 8006776:	b940      	cbnz	r0, 800678a <HAL_I2C_EV_IRQHandler+0x11e>
 8006778:	2940      	cmp	r1, #64	@ 0x40
 800677a:	d106      	bne.n	800678a <HAL_I2C_EV_IRQHandler+0x11e>
 800677c:	9001      	str	r0, [sp, #4]
 800677e:	695a      	ldr	r2, [r3, #20]
 8006780:	9201      	str	r2, [sp, #4]
 8006782:	699b      	ldr	r3, [r3, #24]
 8006784:	9301      	str	r3, [sp, #4]
 8006786:	9b01      	ldr	r3, [sp, #4]
 8006788:	e78c      	b.n	80066a4 <HAL_I2C_EV_IRQHandler+0x38>
 800678a:	6d21      	ldr	r1, [r4, #80]	@ 0x50
 800678c:	b989      	cbnz	r1, 80067b2 <HAL_I2C_EV_IRQHandler+0x146>
 800678e:	6920      	ldr	r0, [r4, #16]
 8006790:	f5b0 4f40 	cmp.w	r0, #49152	@ 0xc000
 8006794:	d10d      	bne.n	80067b2 <HAL_I2C_EV_IRQHandler+0x146>
 8006796:	9102      	str	r1, [sp, #8]
 8006798:	695a      	ldr	r2, [r3, #20]
 800679a:	9202      	str	r2, [sp, #8]
 800679c:	699a      	ldr	r2, [r3, #24]
 800679e:	9202      	str	r2, [sp, #8]
 80067a0:	9a02      	ldr	r2, [sp, #8]
 80067a2:	681a      	ldr	r2, [r3, #0]
 80067a4:	f442 7280 	orr.w	r2, r2, #256	@ 0x100
 80067a8:	601a      	str	r2, [r3, #0]
 80067aa:	6d23      	ldr	r3, [r4, #80]	@ 0x50
 80067ac:	3301      	adds	r3, #1
 80067ae:	6523      	str	r3, [r4, #80]	@ 0x50
 80067b0:	e778      	b.n	80066a4 <HAL_I2C_EV_IRQHandler+0x38>
 80067b2:	8d61      	ldrh	r1, [r4, #42]	@ 0x2a
 80067b4:	b289      	uxth	r1, r1
 80067b6:	b951      	cbnz	r1, 80067ce <HAL_I2C_EV_IRQHandler+0x162>
 80067b8:	9103      	str	r1, [sp, #12]
 80067ba:	695a      	ldr	r2, [r3, #20]
 80067bc:	9203      	str	r2, [sp, #12]
 80067be:	699a      	ldr	r2, [r3, #24]
 80067c0:	9203      	str	r2, [sp, #12]
 80067c2:	9a03      	ldr	r2, [sp, #12]
 80067c4:	681a      	ldr	r2, [r3, #0]
 80067c6:	f442 7200 	orr.w	r2, r2, #512	@ 0x200
 80067ca:	601a      	str	r2, [r3, #0]
 80067cc:	e019      	b.n	8006802 <HAL_I2C_EV_IRQHandler+0x196>
 80067ce:	8d61      	ldrh	r1, [r4, #42]	@ 0x2a
 80067d0:	b289      	uxth	r1, r1
 80067d2:	2901      	cmp	r1, #1
 80067d4:	d149      	bne.n	800686a <HAL_I2C_EV_IRQHandler+0x1fe>
 80067d6:	f512 3f80 	cmn.w	r2, #65536	@ 0x10000
 80067da:	d11b      	bne.n	8006814 <HAL_I2C_EV_IRQHandler+0x1a8>
 80067dc:	681a      	ldr	r2, [r3, #0]
 80067de:	f422 6280 	bic.w	r2, r2, #1024	@ 0x400
 80067e2:	601a      	str	r2, [r3, #0]
 80067e4:	685a      	ldr	r2, [r3, #4]
 80067e6:	f412 6200 	ands.w	r2, r2, #2048	@ 0x800
 80067ea:	d00c      	beq.n	8006806 <HAL_I2C_EV_IRQHandler+0x19a>
 80067ec:	681a      	ldr	r2, [r3, #0]
 80067ee:	f422 6280 	bic.w	r2, r2, #1024	@ 0x400
 80067f2:	601a      	str	r2, [r3, #0]
 80067f4:	2200      	movs	r2, #0
 80067f6:	9204      	str	r2, [sp, #16]
 80067f8:	695a      	ldr	r2, [r3, #20]
 80067fa:	9204      	str	r2, [sp, #16]
 80067fc:	699b      	ldr	r3, [r3, #24]
 80067fe:	9304      	str	r3, [sp, #16]
 8006800:	9b04      	ldr	r3, [sp, #16]
 8006802:	2300      	movs	r3, #0
 8006804:	e7d3      	b.n	80067ae <HAL_I2C_EV_IRQHandler+0x142>
 8006806:	9205      	str	r2, [sp, #20]
 8006808:	695a      	ldr	r2, [r3, #20]
 800680a:	9205      	str	r2, [sp, #20]
 800680c:	699a      	ldr	r2, [r3, #24]
 800680e:	9205      	str	r2, [sp, #20]
 8006810:	9a05      	ldr	r2, [sp, #20]
 8006812:	e7d7      	b.n	80067c4 <HAL_I2C_EV_IRQHandler+0x158>
 8006814:	2a08      	cmp	r2, #8
 8006816:	d01c      	beq.n	8006852 <HAL_I2C_EV_IRQHandler+0x1e6>
 8006818:	2a20      	cmp	r2, #32
 800681a:	d01a      	beq.n	8006852 <HAL_I2C_EV_IRQHandler+0x1e6>
 800681c:	2d12      	cmp	r5, #18
 800681e:	d10d      	bne.n	800683c <HAL_I2C_EV_IRQHandler+0x1d0>
 8006820:	2a01      	cmp	r2, #1
 8006822:	d116      	bne.n	8006852 <HAL_I2C_EV_IRQHandler+0x1e6>
 8006824:	681a      	ldr	r2, [r3, #0]
 8006826:	f422 6280 	bic.w	r2, r2, #1024	@ 0x400
 800682a:	601a      	str	r2, [r3, #0]
 800682c:	2200      	movs	r2, #0
 800682e:	9206      	str	r2, [sp, #24]
 8006830:	695a      	ldr	r2, [r3, #20]
 8006832:	9206      	str	r2, [sp, #24]
 8006834:	699b      	ldr	r3, [r3, #24]
 8006836:	9306      	str	r3, [sp, #24]
 8006838:	9b06      	ldr	r3, [sp, #24]
 800683a:	e7e2      	b.n	8006802 <HAL_I2C_EV_IRQHandler+0x196>
 800683c:	2a10      	cmp	r2, #16
 800683e:	d8f1      	bhi.n	8006824 <HAL_I2C_EV_IRQHandler+0x1b8>
 8006840:	4982      	ldr	r1, [pc, #520]	@ (8006a4c <HAL_I2C_EV_IRQHandler+0x3e0>)
 8006842:	fa41 f202 	asr.w	r2, r1, r2
 8006846:	07d7      	lsls	r7, r2, #31
 8006848:	d4ec      	bmi.n	8006824 <HAL_I2C_EV_IRQHandler+0x1b8>
 800684a:	681a      	ldr	r2, [r3, #0]
 800684c:	f442 6280 	orr.w	r2, r2, #1024	@ 0x400
 8006850:	e7eb      	b.n	800682a <HAL_I2C_EV_IRQHandler+0x1be>
 8006852:	681a      	ldr	r2, [r3, #0]
 8006854:	f422 6280 	bic.w	r2, r2, #1024	@ 0x400
 8006858:	601a      	str	r2, [r3, #0]
 800685a:	2200      	movs	r2, #0
 800685c:	9207      	str	r2, [sp, #28]
 800685e:	695a      	ldr	r2, [r3, #20]
 8006860:	9207      	str	r2, [sp, #28]
 8006862:	699a      	ldr	r2, [r3, #24]
 8006864:	9207      	str	r2, [sp, #28]
 8006866:	9a07      	ldr	r2, [sp, #28]
 8006868:	e7ac      	b.n	80067c4 <HAL_I2C_EV_IRQHandler+0x158>
 800686a:	8d61      	ldrh	r1, [r4, #42]	@ 0x2a
 800686c:	b289      	uxth	r1, r1
 800686e:	2902      	cmp	r1, #2
 8006870:	d130      	bne.n	80068d4 <HAL_I2C_EV_IRQHandler+0x268>
 8006872:	2a10      	cmp	r2, #16
 8006874:	d803      	bhi.n	800687e <HAL_I2C_EV_IRQHandler+0x212>
 8006876:	4976      	ldr	r1, [pc, #472]	@ (8006a50 <HAL_I2C_EV_IRQHandler+0x3e4>)
 8006878:	40d1      	lsrs	r1, r2
 800687a:	07ce      	lsls	r6, r1, #31
 800687c:	d415      	bmi.n	80068aa <HAL_I2C_EV_IRQHandler+0x23e>
 800687e:	6819      	ldr	r1, [r3, #0]
 8006880:	f421 6180 	bic.w	r1, r1, #1024	@ 0x400
 8006884:	6019      	str	r1, [r3, #0]
 8006886:	6819      	ldr	r1, [r3, #0]
 8006888:	f441 6100 	orr.w	r1, r1, #2048	@ 0x800
 800688c:	6019      	str	r1, [r3, #0]
 800688e:	6859      	ldr	r1, [r3, #4]
 8006890:	050d      	lsls	r5, r1, #20
 8006892:	d514      	bpl.n	80068be <HAL_I2C_EV_IRQHandler+0x252>
 8006894:	2a20      	cmp	r2, #32
 8006896:	d81a      	bhi.n	80068ce <HAL_I2C_EV_IRQHandler+0x262>
 8006898:	2a07      	cmp	r2, #7
 800689a:	d80a      	bhi.n	80068b2 <HAL_I2C_EV_IRQHandler+0x246>
 800689c:	2a01      	cmp	r2, #1
 800689e:	d10e      	bne.n	80068be <HAL_I2C_EV_IRQHandler+0x252>
 80068a0:	685a      	ldr	r2, [r3, #4]
 80068a2:	f442 5280 	orr.w	r2, r2, #4096	@ 0x1000
 80068a6:	605a      	str	r2, [r3, #4]
 80068a8:	e009      	b.n	80068be <HAL_I2C_EV_IRQHandler+0x252>
 80068aa:	6819      	ldr	r1, [r3, #0]
 80068ac:	f441 6180 	orr.w	r1, r1, #1024	@ 0x400
 80068b0:	e7ec      	b.n	800688c <HAL_I2C_EV_IRQHandler+0x220>
 80068b2:	f1a2 0108 	sub.w	r1, r2, #8
 80068b6:	4a67      	ldr	r2, [pc, #412]	@ (8006a54 <HAL_I2C_EV_IRQHandler+0x3e8>)
 80068b8:	40ca      	lsrs	r2, r1
 80068ba:	07d0      	lsls	r0, r2, #31
 80068bc:	d4f0      	bmi.n	80068a0 <HAL_I2C_EV_IRQHandler+0x234>
 80068be:	2200      	movs	r2, #0
 80068c0:	9208      	str	r2, [sp, #32]
 80068c2:	695a      	ldr	r2, [r3, #20]
 80068c4:	9208      	str	r2, [sp, #32]
 80068c6:	699b      	ldr	r3, [r3, #24]
 80068c8:	9308      	str	r3, [sp, #32]
 80068ca:	9b08      	ldr	r3, [sp, #32]
 80068cc:	e799      	b.n	8006802 <HAL_I2C_EV_IRQHandler+0x196>
 80068ce:	f512 3f80 	cmn.w	r2, #65536	@ 0x10000
 80068d2:	e7e4      	b.n	800689e <HAL_I2C_EV_IRQHandler+0x232>
 80068d4:	6819      	ldr	r1, [r3, #0]
 80068d6:	f441 6180 	orr.w	r1, r1, #1024	@ 0x400
 80068da:	6019      	str	r1, [r3, #0]
 80068dc:	6859      	ldr	r1, [r3, #4]
 80068de:	0509      	lsls	r1, r1, #20
 80068e0:	d510      	bpl.n	8006904 <HAL_I2C_EV_IRQHandler+0x298>
 80068e2:	2a20      	cmp	r2, #32
 80068e4:	d816      	bhi.n	8006914 <HAL_I2C_EV_IRQHandler+0x2a8>
 80068e6:	2a07      	cmp	r2, #7
 80068e8:	d806      	bhi.n	80068f8 <HAL_I2C_EV_IRQHandler+0x28c>
 80068ea:	2a01      	cmp	r2, #1
 80068ec:	d10a      	bne.n	8006904 <HAL_I2C_EV_IRQHandler+0x298>
 80068ee:	685a      	ldr	r2, [r3, #4]
 80068f0:	f442 5280 	orr.w	r2, r2, #4096	@ 0x1000
 80068f4:	605a      	str	r2, [r3, #4]
 80068f6:	e005      	b.n	8006904 <HAL_I2C_EV_IRQHandler+0x298>
 80068f8:	f1a2 0108 	sub.w	r1, r2, #8
 80068fc:	4a55      	ldr	r2, [pc, #340]	@ (8006a54 <HAL_I2C_EV_IRQHandler+0x3e8>)
 80068fe:	40ca      	lsrs	r2, r1
 8006900:	07d2      	lsls	r2, r2, #31
 8006902:	d4f4      	bmi.n	80068ee <HAL_I2C_EV_IRQHandler+0x282>
 8006904:	2200      	movs	r2, #0
 8006906:	9209      	str	r2, [sp, #36]	@ 0x24
 8006908:	695a      	ldr	r2, [r3, #20]
 800690a:	9209      	str	r2, [sp, #36]	@ 0x24
 800690c:	699b      	ldr	r3, [r3, #24]
 800690e:	9309      	str	r3, [sp, #36]	@ 0x24
 8006910:	9b09      	ldr	r3, [sp, #36]	@ 0x24
 8006912:	e776      	b.n	8006802 <HAL_I2C_EV_IRQHandler+0x196>
 8006914:	f512 3f80 	cmn.w	r2, #65536	@ 0x10000
 8006918:	e7e8      	b.n	80068ec <HAL_I2C_EV_IRQHandler+0x280>
 800691a:	2200      	movs	r2, #0
 800691c:	920a      	str	r2, [sp, #40]	@ 0x28
 800691e:	695a      	ldr	r2, [r3, #20]
 8006920:	920a      	str	r2, [sp, #40]	@ 0x28
 8006922:	699b      	ldr	r3, [r3, #24]
 8006924:	930a      	str	r3, [sp, #40]	@ 0x28
 8006926:	9b0a      	ldr	r3, [sp, #40]	@ 0x28
 8006928:	e6bc      	b.n	80066a4 <HAL_I2C_EV_IRQHandler+0x38>
 800692a:	077f      	lsls	r7, r7, #29
 800692c:	f140 8094 	bpl.w	8006a58 <HAL_I2C_EV_IRQHandler+0x3ec>
 8006930:	685e      	ldr	r6, [r3, #4]
 8006932:	0536      	lsls	r6, r6, #20
 8006934:	f53f aeb6 	bmi.w	80066a4 <HAL_I2C_EV_IRQHandler+0x38>
 8006938:	0607      	lsls	r7, r0, #24
 800693a:	f000 0604 	and.w	r6, r0, #4
 800693e:	d53e      	bpl.n	80069be <HAL_I2C_EV_IRQHandler+0x352>
 8006940:	0550      	lsls	r0, r2, #21
 8006942:	d53c      	bpl.n	80069be <HAL_I2C_EV_IRQHandler+0x352>
 8006944:	2e00      	cmp	r6, #0
 8006946:	d13d      	bne.n	80069c4 <HAL_I2C_EV_IRQHandler+0x358>
 8006948:	f894 203d 	ldrb.w	r2, [r4, #61]	@ 0x3d
 800694c:	8d25      	ldrh	r5, [r4, #40]	@ 0x28
 800694e:	f894 103e 	ldrb.w	r1, [r4, #62]	@ 0x3e
 8006952:	6ae0      	ldr	r0, [r4, #44]	@ 0x2c
 8006954:	b2d2      	uxtb	r2, r2
 8006956:	b2c9      	uxtb	r1, r1
 8006958:	b9c5      	cbnz	r5, 800698c <HAL_I2C_EV_IRQHandler+0x320>
 800695a:	2a21      	cmp	r2, #33	@ 0x21
 800695c:	d118      	bne.n	8006990 <HAL_I2C_EV_IRQHandler+0x324>
 800695e:	2808      	cmp	r0, #8
 8006960:	d058      	beq.n	8006a14 <HAL_I2C_EV_IRQHandler+0x3a8>
 8006962:	2820      	cmp	r0, #32
 8006964:	d056      	beq.n	8006a14 <HAL_I2C_EV_IRQHandler+0x3a8>
 8006966:	f510 3f80 	cmn.w	r0, #65536	@ 0x10000
 800696a:	d053      	beq.n	8006a14 <HAL_I2C_EV_IRQHandler+0x3a8>
 800696c:	685a      	ldr	r2, [r3, #4]
 800696e:	f422 62e0 	bic.w	r2, r2, #1792	@ 0x700
 8006972:	605a      	str	r2, [r3, #4]
 8006974:	2311      	movs	r3, #17
 8006976:	6323      	str	r3, [r4, #48]	@ 0x30
 8006978:	2300      	movs	r3, #0
 800697a:	f884 303e 	strb.w	r3, [r4, #62]	@ 0x3e
 800697e:	2320      	movs	r3, #32
 8006980:	f884 303d 	strb.w	r3, [r4, #61]	@ 0x3d
 8006984:	4620      	mov	r0, r4
 8006986:	f7fc f979 	bl	8002c7c <HAL_I2C_MasterTxCpltCallback>
 800698a:	e68b      	b.n	80066a4 <HAL_I2C_EV_IRQHandler+0x38>
 800698c:	2a21      	cmp	r2, #33	@ 0x21
 800698e:	d005      	beq.n	800699c <HAL_I2C_EV_IRQHandler+0x330>
 8006990:	2940      	cmp	r1, #64	@ 0x40
 8006992:	f47f ae87 	bne.w	80066a4 <HAL_I2C_EV_IRQHandler+0x38>
 8006996:	2a22      	cmp	r2, #34	@ 0x22
 8006998:	f47f ae84 	bne.w	80066a4 <HAL_I2C_EV_IRQHandler+0x38>
 800699c:	8d62      	ldrh	r2, [r4, #42]	@ 0x2a
 800699e:	b292      	uxth	r2, r2
 80069a0:	b91a      	cbnz	r2, 80069aa <HAL_I2C_EV_IRQHandler+0x33e>
 80069a2:	685a      	ldr	r2, [r3, #4]
 80069a4:	f422 6280 	bic.w	r2, r2, #1024	@ 0x400
 80069a8:	e6b5      	b.n	8006716 <HAL_I2C_EV_IRQHandler+0xaa>
 80069aa:	f894 203e 	ldrb.w	r2, [r4, #62]	@ 0x3e
 80069ae:	2a40      	cmp	r2, #64	@ 0x40
 80069b0:	d116      	bne.n	80069e0 <HAL_I2C_EV_IRQHandler+0x374>
 80069b2:	4620      	mov	r0, r4
 80069b4:	b00f      	add	sp, #60	@ 0x3c
 80069b6:	e8bd 40f0 	ldmia.w	sp!, {r4, r5, r6, r7, lr}
 80069ba:	f7ff bc49 	b.w	8006250 <I2C_MemoryTransmit_TXE_BTF>
 80069be:	2e00      	cmp	r6, #0
 80069c0:	f43f ae70 	beq.w	80066a4 <HAL_I2C_EV_IRQHandler+0x38>
 80069c4:	0597      	lsls	r7, r2, #22
 80069c6:	f57f ae6d 	bpl.w	80066a4 <HAL_I2C_EV_IRQHandler+0x38>
 80069ca:	2921      	cmp	r1, #33	@ 0x21
 80069cc:	d139      	bne.n	8006a42 <HAL_I2C_EV_IRQHandler+0x3d6>
 80069ce:	6ae1      	ldr	r1, [r4, #44]	@ 0x2c
 80069d0:	f894 203d 	ldrb.w	r2, [r4, #61]	@ 0x3d
 80069d4:	2a21      	cmp	r2, #33	@ 0x21
 80069d6:	f47f ae65 	bne.w	80066a4 <HAL_I2C_EV_IRQHandler+0x38>
 80069da:	8d62      	ldrh	r2, [r4, #42]	@ 0x2a
 80069dc:	b292      	uxth	r2, r2
 80069de:	b14a      	cbz	r2, 80069f4 <HAL_I2C_EV_IRQHandler+0x388>
 80069e0:	6a62      	ldr	r2, [r4, #36]	@ 0x24
 80069e2:	f812 1b01 	ldrb.w	r1, [r2], #1
 80069e6:	6119      	str	r1, [r3, #16]
 80069e8:	6262      	str	r2, [r4, #36]	@ 0x24
 80069ea:	8d63      	ldrh	r3, [r4, #42]	@ 0x2a
 80069ec:	3b01      	subs	r3, #1
 80069ee:	b29b      	uxth	r3, r3
 80069f0:	8563      	strh	r3, [r4, #42]	@ 0x2a
 80069f2:	e657      	b.n	80066a4 <HAL_I2C_EV_IRQHandler+0x38>
 80069f4:	2908      	cmp	r1, #8
 80069f6:	d00d      	beq.n	8006a14 <HAL_I2C_EV_IRQHandler+0x3a8>
 80069f8:	2920      	cmp	r1, #32
 80069fa:	d00b      	beq.n	8006a14 <HAL_I2C_EV_IRQHandler+0x3a8>
 80069fc:	f511 3f80 	cmn.w	r1, #65536	@ 0x10000
 8006a00:	d008      	beq.n	8006a14 <HAL_I2C_EV_IRQHandler+0x3a8>
 8006a02:	6859      	ldr	r1, [r3, #4]
 8006a04:	f421 61e0 	bic.w	r1, r1, #1792	@ 0x700
 8006a08:	6059      	str	r1, [r3, #4]
 8006a0a:	2311      	movs	r3, #17
 8006a0c:	6323      	str	r3, [r4, #48]	@ 0x30
 8006a0e:	f884 203e 	strb.w	r2, [r4, #62]	@ 0x3e
 8006a12:	e7b4      	b.n	800697e <HAL_I2C_EV_IRQHandler+0x312>
 8006a14:	685a      	ldr	r2, [r3, #4]
 8006a16:	f422 62e0 	bic.w	r2, r2, #1792	@ 0x700
 8006a1a:	605a      	str	r2, [r3, #4]
 8006a1c:	681a      	ldr	r2, [r3, #0]
 8006a1e:	f442 7200 	orr.w	r2, r2, #512	@ 0x200
 8006a22:	601a      	str	r2, [r3, #0]
 8006a24:	2300      	movs	r3, #0
 8006a26:	2220      	movs	r2, #32
 8006a28:	6323      	str	r3, [r4, #48]	@ 0x30
 8006a2a:	f884 203d 	strb.w	r2, [r4, #61]	@ 0x3d
 8006a2e:	f894 203e 	ldrb.w	r2, [r4, #62]	@ 0x3e
 8006a32:	f884 303e 	strb.w	r3, [r4, #62]	@ 0x3e
 8006a36:	2a40      	cmp	r2, #64	@ 0x40
 8006a38:	4620      	mov	r0, r4
 8006a3a:	d1a4      	bne.n	8006986 <HAL_I2C_EV_IRQHandler+0x31a>
 8006a3c:	f7ff fc07 	bl	800624e <HAL_I2C_MemTxCpltCallback>
 8006a40:	e630      	b.n	80066a4 <HAL_I2C_EV_IRQHandler+0x38>
 8006a42:	2d40      	cmp	r5, #64	@ 0x40
 8006a44:	f47f ae2e 	bne.w	80066a4 <HAL_I2C_EV_IRQHandler+0x38>
 8006a48:	e7b3      	b.n	80069b2 <HAL_I2C_EV_IRQHandler+0x346>
 8006a4a:	bf00      	nop
 8006a4c:	fffeffeb 	.word	0xfffeffeb
 8006a50:	00010014 	.word	0x00010014
 8006a54:	01000101 	.word	0x01000101
 8006a58:	6859      	ldr	r1, [r3, #4]
 8006a5a:	050e      	lsls	r6, r1, #20
 8006a5c:	f53f ae22 	bmi.w	80066a4 <HAL_I2C_EV_IRQHandler+0x38>
 8006a60:	0645      	lsls	r5, r0, #25
 8006a62:	f000 0104 	and.w	r1, r0, #4
 8006a66:	f140 8086 	bpl.w	8006b76 <HAL_I2C_EV_IRQHandler+0x50a>
 8006a6a:	0550      	lsls	r0, r2, #21
 8006a6c:	f140 8083 	bpl.w	8006b76 <HAL_I2C_EV_IRQHandler+0x50a>
 8006a70:	2900      	cmp	r1, #0
 8006a72:	f040 8083 	bne.w	8006b7c <HAL_I2C_EV_IRQHandler+0x510>
 8006a76:	f894 203d 	ldrb.w	r2, [r4, #61]	@ 0x3d
 8006a7a:	2a22      	cmp	r2, #34	@ 0x22
 8006a7c:	f47f ae12 	bne.w	80066a4 <HAL_I2C_EV_IRQHandler+0x38>
 8006a80:	6ae0      	ldr	r0, [r4, #44]	@ 0x2c
 8006a82:	8d62      	ldrh	r2, [r4, #42]	@ 0x2a
 8006a84:	b292      	uxth	r2, r2
 8006a86:	2a03      	cmp	r2, #3
 8006a88:	d914      	bls.n	8006ab4 <HAL_I2C_EV_IRQHandler+0x448>
 8006a8a:	691a      	ldr	r2, [r3, #16]
 8006a8c:	6a63      	ldr	r3, [r4, #36]	@ 0x24
 8006a8e:	701a      	strb	r2, [r3, #0]
 8006a90:	6a63      	ldr	r3, [r4, #36]	@ 0x24
 8006a92:	3301      	adds	r3, #1
 8006a94:	6263      	str	r3, [r4, #36]	@ 0x24
 8006a96:	8d63      	ldrh	r3, [r4, #42]	@ 0x2a
 8006a98:	3b01      	subs	r3, #1
 8006a9a:	b29b      	uxth	r3, r3
 8006a9c:	8563      	strh	r3, [r4, #42]	@ 0x2a
 8006a9e:	8d63      	ldrh	r3, [r4, #42]	@ 0x2a
 8006aa0:	b29b      	uxth	r3, r3
 8006aa2:	2b03      	cmp	r3, #3
 8006aa4:	f47f adfe 	bne.w	80066a4 <HAL_I2C_EV_IRQHandler+0x38>
 8006aa8:	6822      	ldr	r2, [r4, #0]
 8006aaa:	6853      	ldr	r3, [r2, #4]
 8006aac:	f423 6380 	bic.w	r3, r3, #1024	@ 0x400
 8006ab0:	6053      	str	r3, [r2, #4]
 8006ab2:	e5f7      	b.n	80066a4 <HAL_I2C_EV_IRQHandler+0x38>
 8006ab4:	6ae5      	ldr	r5, [r4, #44]	@ 0x2c
 8006ab6:	2d02      	cmp	r5, #2
 8006ab8:	f43f af73 	beq.w	80069a2 <HAL_I2C_EV_IRQHandler+0x336>
 8006abc:	2a01      	cmp	r2, #1
 8006abe:	f63f af70 	bhi.w	80069a2 <HAL_I2C_EV_IRQHandler+0x336>
 8006ac2:	4a7a      	ldr	r2, [pc, #488]	@ (8006cac <HAL_I2C_EV_IRQHandler+0x640>)
 8006ac4:	910b      	str	r1, [sp, #44]	@ 0x2c
 8006ac6:	6812      	ldr	r2, [r2, #0]
 8006ac8:	f246 11a8 	movw	r1, #25000	@ 0x61a8
 8006acc:	fbb2 f2f1 	udiv	r2, r2, r1
 8006ad0:	eb02 0282 	add.w	r2, r2, r2, lsl #2
 8006ad4:	920b      	str	r2, [sp, #44]	@ 0x2c
 8006ad6:	9a0b      	ldr	r2, [sp, #44]	@ 0x2c
 8006ad8:	3a01      	subs	r2, #1
 8006ada:	920b      	str	r2, [sp, #44]	@ 0x2c
 8006adc:	990b      	ldr	r1, [sp, #44]	@ 0x2c
 8006ade:	b9d1      	cbnz	r1, 8006b16 <HAL_I2C_EV_IRQHandler+0x4aa>
 8006ae0:	6c22      	ldr	r2, [r4, #64]	@ 0x40
 8006ae2:	f042 0220 	orr.w	r2, r2, #32
 8006ae6:	6422      	str	r2, [r4, #64]	@ 0x40
 8006ae8:	685a      	ldr	r2, [r3, #4]
 8006aea:	f422 62e0 	bic.w	r2, r2, #1792	@ 0x700
 8006aee:	605a      	str	r2, [r3, #4]
 8006af0:	691a      	ldr	r2, [r3, #16]
 8006af2:	6a63      	ldr	r3, [r4, #36]	@ 0x24
 8006af4:	701a      	strb	r2, [r3, #0]
 8006af6:	6a63      	ldr	r3, [r4, #36]	@ 0x24
 8006af8:	3301      	adds	r3, #1
 8006afa:	6263      	str	r3, [r4, #36]	@ 0x24
 8006afc:	8d63      	ldrh	r3, [r4, #42]	@ 0x2a
 8006afe:	3b01      	subs	r3, #1
 8006b00:	b29b      	uxth	r3, r3
 8006b02:	8563      	strh	r3, [r4, #42]	@ 0x2a
 8006b04:	2320      	movs	r3, #32
 8006b06:	f884 303d 	strb.w	r3, [r4, #61]	@ 0x3d
 8006b0a:	4620      	mov	r0, r4
 8006b0c:	f884 103e 	strb.w	r1, [r4, #62]	@ 0x3e
 8006b10:	f7fc f8c0 	bl	8002c94 <HAL_I2C_ErrorCallback>
 8006b14:	e5c6      	b.n	80066a4 <HAL_I2C_EV_IRQHandler+0x38>
 8006b16:	681a      	ldr	r2, [r3, #0]
 8006b18:	f412 7200 	ands.w	r2, r2, #512	@ 0x200
 8006b1c:	d1db      	bne.n	8006ad6 <HAL_I2C_EV_IRQHandler+0x46a>
 8006b1e:	6819      	ldr	r1, [r3, #0]
 8006b20:	f421 6180 	bic.w	r1, r1, #1024	@ 0x400
 8006b24:	6019      	str	r1, [r3, #0]
 8006b26:	6859      	ldr	r1, [r3, #4]
 8006b28:	f421 61e0 	bic.w	r1, r1, #1792	@ 0x700
 8006b2c:	6059      	str	r1, [r3, #4]
 8006b2e:	6919      	ldr	r1, [r3, #16]
 8006b30:	6a63      	ldr	r3, [r4, #36]	@ 0x24
 8006b32:	7019      	strb	r1, [r3, #0]
 8006b34:	6a63      	ldr	r3, [r4, #36]	@ 0x24
 8006b36:	3301      	adds	r3, #1
 8006b38:	6263      	str	r3, [r4, #36]	@ 0x24
 8006b3a:	8d63      	ldrh	r3, [r4, #42]	@ 0x2a
 8006b3c:	3b01      	subs	r3, #1
 8006b3e:	b29b      	uxth	r3, r3
 8006b40:	8563      	strh	r3, [r4, #42]	@ 0x2a
 8006b42:	2320      	movs	r3, #32
 8006b44:	f884 303d 	strb.w	r3, [r4, #61]	@ 0x3d
 8006b48:	f894 303e 	ldrb.w	r3, [r4, #62]	@ 0x3e
 8006b4c:	f884 203e 	strb.w	r2, [r4, #62]	@ 0x3e
 8006b50:	2b40      	cmp	r3, #64	@ 0x40
 8006b52:	d104      	bne.n	8006b5e <HAL_I2C_EV_IRQHandler+0x4f2>
 8006b54:	6322      	str	r2, [r4, #48]	@ 0x30
 8006b56:	4620      	mov	r0, r4
 8006b58:	f7fc f882 	bl	8002c60 <HAL_I2C_MemRxCpltCallback>
 8006b5c:	e5a2      	b.n	80066a4 <HAL_I2C_EV_IRQHandler+0x38>
 8006b5e:	2808      	cmp	r0, #8
 8006b60:	d001      	beq.n	8006b66 <HAL_I2C_EV_IRQHandler+0x4fa>
 8006b62:	2820      	cmp	r0, #32
 8006b64:	d101      	bne.n	8006b6a <HAL_I2C_EV_IRQHandler+0x4fe>
 8006b66:	2300      	movs	r3, #0
 8006b68:	e000      	b.n	8006b6c <HAL_I2C_EV_IRQHandler+0x500>
 8006b6a:	2312      	movs	r3, #18
 8006b6c:	6323      	str	r3, [r4, #48]	@ 0x30
 8006b6e:	4620      	mov	r0, r4
 8006b70:	f7ff fb68 	bl	8006244 <HAL_I2C_MasterRxCpltCallback>
 8006b74:	e596      	b.n	80066a4 <HAL_I2C_EV_IRQHandler+0x38>
 8006b76:	2900      	cmp	r1, #0
 8006b78:	f43f ad94 	beq.w	80066a4 <HAL_I2C_EV_IRQHandler+0x38>
 8006b7c:	0592      	lsls	r2, r2, #22
 8006b7e:	f57f ad91 	bpl.w	80066a4 <HAL_I2C_EV_IRQHandler+0x38>
 8006b82:	6ae2      	ldr	r2, [r4, #44]	@ 0x2c
 8006b84:	8d60      	ldrh	r0, [r4, #42]	@ 0x2a
 8006b86:	6a61      	ldr	r1, [r4, #36]	@ 0x24
 8006b88:	b280      	uxth	r0, r0
 8006b8a:	2804      	cmp	r0, #4
 8006b8c:	d109      	bne.n	8006ba2 <HAL_I2C_EV_IRQHandler+0x536>
 8006b8e:	685a      	ldr	r2, [r3, #4]
 8006b90:	f422 6280 	bic.w	r2, r2, #1024	@ 0x400
 8006b94:	605a      	str	r2, [r3, #4]
 8006b96:	691b      	ldr	r3, [r3, #16]
 8006b98:	700b      	strb	r3, [r1, #0]
 8006b9a:	6a63      	ldr	r3, [r4, #36]	@ 0x24
 8006b9c:	3301      	adds	r3, #1
 8006b9e:	6263      	str	r3, [r4, #36]	@ 0x24
 8006ba0:	e723      	b.n	80069ea <HAL_I2C_EV_IRQHandler+0x37e>
 8006ba2:	8d60      	ldrh	r0, [r4, #42]	@ 0x2a
 8006ba4:	b280      	uxth	r0, r0
 8006ba6:	2803      	cmp	r0, #3
 8006ba8:	d10c      	bne.n	8006bc4 <HAL_I2C_EV_IRQHandler+0x558>
 8006baa:	6858      	ldr	r0, [r3, #4]
 8006bac:	2a04      	cmp	r2, #4
 8006bae:	f420 6080 	bic.w	r0, r0, #1024	@ 0x400
 8006bb2:	6058      	str	r0, [r3, #4]
 8006bb4:	d0ef      	beq.n	8006b96 <HAL_I2C_EV_IRQHandler+0x52a>
 8006bb6:	2a02      	cmp	r2, #2
 8006bb8:	d0ed      	beq.n	8006b96 <HAL_I2C_EV_IRQHandler+0x52a>
 8006bba:	681a      	ldr	r2, [r3, #0]
 8006bbc:	f422 6280 	bic.w	r2, r2, #1024	@ 0x400
 8006bc0:	601a      	str	r2, [r3, #0]
 8006bc2:	e7e8      	b.n	8006b96 <HAL_I2C_EV_IRQHandler+0x52a>
 8006bc4:	8d60      	ldrh	r0, [r4, #42]	@ 0x2a
 8006bc6:	b280      	uxth	r0, r0
 8006bc8:	2802      	cmp	r0, #2
 8006bca:	d1e4      	bne.n	8006b96 <HAL_I2C_EV_IRQHandler+0x52a>
 8006bcc:	2a04      	cmp	r2, #4
 8006bce:	d033      	beq.n	8006c38 <HAL_I2C_EV_IRQHandler+0x5cc>
 8006bd0:	d807      	bhi.n	8006be2 <HAL_I2C_EV_IRQHandler+0x576>
 8006bd2:	2a01      	cmp	r2, #1
 8006bd4:	d007      	beq.n	8006be6 <HAL_I2C_EV_IRQHandler+0x57a>
 8006bd6:	2a02      	cmp	r2, #2
 8006bd8:	d02e      	beq.n	8006c38 <HAL_I2C_EV_IRQHandler+0x5cc>
 8006bda:	6818      	ldr	r0, [r3, #0]
 8006bdc:	f440 7000 	orr.w	r0, r0, #512	@ 0x200
 8006be0:	e004      	b.n	8006bec <HAL_I2C_EV_IRQHandler+0x580>
 8006be2:	2a10      	cmp	r2, #16
 8006be4:	d1f9      	bne.n	8006bda <HAL_I2C_EV_IRQHandler+0x56e>
 8006be6:	6818      	ldr	r0, [r3, #0]
 8006be8:	f420 6080 	bic.w	r0, r0, #1024	@ 0x400
 8006bec:	6018      	str	r0, [r3, #0]
 8006bee:	691b      	ldr	r3, [r3, #16]
 8006bf0:	700b      	strb	r3, [r1, #0]
 8006bf2:	6a61      	ldr	r1, [r4, #36]	@ 0x24
 8006bf4:	1c4b      	adds	r3, r1, #1
 8006bf6:	6263      	str	r3, [r4, #36]	@ 0x24
 8006bf8:	8d63      	ldrh	r3, [r4, #42]	@ 0x2a
 8006bfa:	3b01      	subs	r3, #1
 8006bfc:	b29b      	uxth	r3, r3
 8006bfe:	8563      	strh	r3, [r4, #42]	@ 0x2a
 8006c00:	6823      	ldr	r3, [r4, #0]
 8006c02:	691b      	ldr	r3, [r3, #16]
 8006c04:	704b      	strb	r3, [r1, #1]
 8006c06:	6a63      	ldr	r3, [r4, #36]	@ 0x24
 8006c08:	6821      	ldr	r1, [r4, #0]
 8006c0a:	3301      	adds	r3, #1
 8006c0c:	6263      	str	r3, [r4, #36]	@ 0x24
 8006c0e:	8d63      	ldrh	r3, [r4, #42]	@ 0x2a
 8006c10:	3b01      	subs	r3, #1
 8006c12:	b29b      	uxth	r3, r3
 8006c14:	8563      	strh	r3, [r4, #42]	@ 0x2a
 8006c16:	684b      	ldr	r3, [r1, #4]
 8006c18:	f423 7340 	bic.w	r3, r3, #768	@ 0x300
 8006c1c:	604b      	str	r3, [r1, #4]
 8006c1e:	2320      	movs	r3, #32
 8006c20:	f884 303d 	strb.w	r3, [r4, #61]	@ 0x3d
 8006c24:	f894 303e 	ldrb.w	r3, [r4, #62]	@ 0x3e
 8006c28:	2b40      	cmp	r3, #64	@ 0x40
 8006c2a:	f04f 0300 	mov.w	r3, #0
 8006c2e:	f884 303e 	strb.w	r3, [r4, #62]	@ 0x3e
 8006c32:	d105      	bne.n	8006c40 <HAL_I2C_EV_IRQHandler+0x5d4>
 8006c34:	6323      	str	r3, [r4, #48]	@ 0x30
 8006c36:	e78e      	b.n	8006b56 <HAL_I2C_EV_IRQHandler+0x4ea>
 8006c38:	6818      	ldr	r0, [r3, #0]
 8006c3a:	f440 6080 	orr.w	r0, r0, #1024	@ 0x400
 8006c3e:	e7d5      	b.n	8006bec <HAL_I2C_EV_IRQHandler+0x580>
 8006c40:	2a08      	cmp	r2, #8
 8006c42:	d090      	beq.n	8006b66 <HAL_I2C_EV_IRQHandler+0x4fa>
 8006c44:	2a20      	cmp	r2, #32
 8006c46:	e78d      	b.n	8006b64 <HAL_I2C_EV_IRQHandler+0x4f8>
 8006c48:	6c20      	ldr	r0, [r4, #64]	@ 0x40
 8006c4a:	b310      	cbz	r0, 8006c92 <HAL_I2C_EV_IRQHandler+0x626>
 8006c4c:	6958      	ldr	r0, [r3, #20]
 8006c4e:	2500      	movs	r5, #0
 8006c50:	0787      	lsls	r7, r0, #30
 8006c52:	d52d      	bpl.n	8006cb0 <HAL_I2C_EV_IRQHandler+0x644>
 8006c54:	0596      	lsls	r6, r2, #22
 8006c56:	d52b      	bpl.n	8006cb0 <HAL_I2C_EV_IRQHandler+0x644>
 8006c58:	6c22      	ldr	r2, [r4, #64]	@ 0x40
 8006c5a:	b102      	cbz	r2, 8006c5e <HAL_I2C_EV_IRQHandler+0x5f2>
 8006c5c:	699d      	ldr	r5, [r3, #24]
 8006c5e:	f894 203d 	ldrb.w	r2, [r4, #61]	@ 0x3d
 8006c62:	f002 0228 	and.w	r2, r2, #40	@ 0x28
 8006c66:	2a28      	cmp	r2, #40	@ 0x28
 8006c68:	d116      	bne.n	8006c98 <HAL_I2C_EV_IRQHandler+0x62c>
 8006c6a:	685a      	ldr	r2, [r3, #4]
 8006c6c:	f422 6280 	bic.w	r2, r2, #1024	@ 0x400
 8006c70:	605a      	str	r2, [r3, #4]
 8006c72:	062f      	lsls	r7, r5, #24
 8006c74:	f085 0104 	eor.w	r1, r5, #4
 8006c78:	f04f 0300 	mov.w	r3, #0
 8006c7c:	bf54      	ite	pl
 8006c7e:	89a2      	ldrhpl	r2, [r4, #12]
 8006c80:	8b22      	ldrhmi	r2, [r4, #24]
 8006c82:	f884 303c 	strb.w	r3, [r4, #60]	@ 0x3c
 8006c86:	f3c1 0180 	ubfx	r1, r1, #2, #1
 8006c8a:	4620      	mov	r0, r4
 8006c8c:	f7ff fadd 	bl	800624a <HAL_I2C_AddrCallback>
 8006c90:	e508      	b.n	80066a4 <HAL_I2C_EV_IRQHandler+0x38>
 8006c92:	699d      	ldr	r5, [r3, #24]
 8006c94:	6958      	ldr	r0, [r3, #20]
 8006c96:	e7db      	b.n	8006c50 <HAL_I2C_EV_IRQHandler+0x5e4>
 8006c98:	2200      	movs	r2, #0
 8006c9a:	920c      	str	r2, [sp, #48]	@ 0x30
 8006c9c:	6959      	ldr	r1, [r3, #20]
 8006c9e:	910c      	str	r1, [sp, #48]	@ 0x30
 8006ca0:	699b      	ldr	r3, [r3, #24]
 8006ca2:	930c      	str	r3, [sp, #48]	@ 0x30
 8006ca4:	9b0c      	ldr	r3, [sp, #48]	@ 0x30
 8006ca6:	f884 203c 	strb.w	r2, [r4, #60]	@ 0x3c
 8006caa:	e4fb      	b.n	80066a4 <HAL_I2C_EV_IRQHandler+0x38>
 8006cac:	20000060 	.word	0x20000060
 8006cb0:	06c6      	lsls	r6, r0, #27
 8006cb2:	f140 80b1 	bpl.w	8006e18 <HAL_I2C_EV_IRQHandler+0x7ac>
 8006cb6:	0595      	lsls	r5, r2, #22
 8006cb8:	f140 80ae 	bpl.w	8006e18 <HAL_I2C_EV_IRQHandler+0x7ac>
 8006cbc:	f894 503d 	ldrb.w	r5, [r4, #61]	@ 0x3d
 8006cc0:	685a      	ldr	r2, [r3, #4]
 8006cc2:	f422 62e0 	bic.w	r2, r2, #1792	@ 0x700
 8006cc6:	605a      	str	r2, [r3, #4]
 8006cc8:	2200      	movs	r2, #0
 8006cca:	920d      	str	r2, [sp, #52]	@ 0x34
 8006ccc:	695a      	ldr	r2, [r3, #20]
 8006cce:	920d      	str	r2, [sp, #52]	@ 0x34
 8006cd0:	681a      	ldr	r2, [r3, #0]
 8006cd2:	f042 0201 	orr.w	r2, r2, #1
 8006cd6:	601a      	str	r2, [r3, #0]
 8006cd8:	9a0d      	ldr	r2, [sp, #52]	@ 0x34
 8006cda:	681a      	ldr	r2, [r3, #0]
 8006cdc:	f422 6280 	bic.w	r2, r2, #1024	@ 0x400
 8006ce0:	601a      	str	r2, [r3, #0]
 8006ce2:	685a      	ldr	r2, [r3, #4]
 8006ce4:	0510      	lsls	r0, r2, #20
 8006ce6:	b2ed      	uxtb	r5, r5
 8006ce8:	d520      	bpl.n	8006d2c <HAL_I2C_EV_IRQHandler+0x6c0>
 8006cea:	f005 02f7 	and.w	r2, r5, #247	@ 0xf7
 8006cee:	2a22      	cmp	r2, #34	@ 0x22
 8006cf0:	d14a      	bne.n	8006d88 <HAL_I2C_EV_IRQHandler+0x71c>
 8006cf2:	6ba0      	ldr	r0, [r4, #56]	@ 0x38
 8006cf4:	6802      	ldr	r2, [r0, #0]
 8006cf6:	6852      	ldr	r2, [r2, #4]
 8006cf8:	b292      	uxth	r2, r2
 8006cfa:	8562      	strh	r2, [r4, #42]	@ 0x2a
 8006cfc:	8d62      	ldrh	r2, [r4, #42]	@ 0x2a
 8006cfe:	b292      	uxth	r2, r2
 8006d00:	b11a      	cbz	r2, 8006d0a <HAL_I2C_EV_IRQHandler+0x69e>
 8006d02:	6c22      	ldr	r2, [r4, #64]	@ 0x40
 8006d04:	f042 0204 	orr.w	r2, r2, #4
 8006d08:	6422      	str	r2, [r4, #64]	@ 0x40
 8006d0a:	685a      	ldr	r2, [r3, #4]
 8006d0c:	f422 6200 	bic.w	r2, r2, #2048	@ 0x800
 8006d10:	605a      	str	r2, [r3, #4]
 8006d12:	f7fe fb0f 	bl	8005334 <HAL_DMA_GetState>
 8006d16:	2801      	cmp	r0, #1
 8006d18:	d008      	beq.n	8006d2c <HAL_I2C_EV_IRQHandler+0x6c0>
 8006d1a:	6ba0      	ldr	r0, [r4, #56]	@ 0x38
 8006d1c:	4b79      	ldr	r3, [pc, #484]	@ (8006f04 <HAL_I2C_EV_IRQHandler+0x898>)
 8006d1e:	6503      	str	r3, [r0, #80]	@ 0x50
 8006d20:	f7fe fa37 	bl	8005192 <HAL_DMA_Abort_IT>
 8006d24:	b110      	cbz	r0, 8006d2c <HAL_I2C_EV_IRQHandler+0x6c0>
 8006d26:	6ba0      	ldr	r0, [r4, #56]	@ 0x38
 8006d28:	6d03      	ldr	r3, [r0, #80]	@ 0x50
 8006d2a:	4798      	blx	r3
 8006d2c:	8d63      	ldrh	r3, [r4, #42]	@ 0x2a
 8006d2e:	b29b      	uxth	r3, r3
 8006d30:	b313      	cbz	r3, 8006d78 <HAL_I2C_EV_IRQHandler+0x70c>
 8006d32:	6823      	ldr	r3, [r4, #0]
 8006d34:	695a      	ldr	r2, [r3, #20]
 8006d36:	0751      	lsls	r1, r2, #29
 8006d38:	d509      	bpl.n	8006d4e <HAL_I2C_EV_IRQHandler+0x6e2>
 8006d3a:	691a      	ldr	r2, [r3, #16]
 8006d3c:	6a63      	ldr	r3, [r4, #36]	@ 0x24
 8006d3e:	701a      	strb	r2, [r3, #0]
 8006d40:	6a63      	ldr	r3, [r4, #36]	@ 0x24
 8006d42:	3301      	adds	r3, #1
 8006d44:	6263      	str	r3, [r4, #36]	@ 0x24
 8006d46:	8d63      	ldrh	r3, [r4, #42]	@ 0x2a
 8006d48:	3b01      	subs	r3, #1
 8006d4a:	b29b      	uxth	r3, r3
 8006d4c:	8563      	strh	r3, [r4, #42]	@ 0x2a
 8006d4e:	6823      	ldr	r3, [r4, #0]
 8006d50:	695a      	ldr	r2, [r3, #20]
 8006d52:	0652      	lsls	r2, r2, #25
 8006d54:	d509      	bpl.n	8006d6a <HAL_I2C_EV_IRQHandler+0x6fe>
 8006d56:	691a      	ldr	r2, [r3, #16]
 8006d58:	6a63      	ldr	r3, [r4, #36]	@ 0x24
 8006d5a:	701a      	strb	r2, [r3, #0]
 8006d5c:	6a63      	ldr	r3, [r4, #36]	@ 0x24
 8006d5e:	3301      	adds	r3, #1
 8006d60:	6263      	str	r3, [r4, #36]	@ 0x24
 8006d62:	8d63      	ldrh	r3, [r4, #42]	@ 0x2a
 8006d64:	3b01      	subs	r3, #1
 8006d66:	b29b      	uxth	r3, r3
 8006d68:	8563      	strh	r3, [r4, #42]	@ 0x2a
 8006d6a:	8d63      	ldrh	r3, [r4, #42]	@ 0x2a
 8006d6c:	b29b      	uxth	r3, r3
 8006d6e:	b11b      	cbz	r3, 8006d78 <HAL_I2C_EV_IRQHandler+0x70c>
 8006d70:	6c23      	ldr	r3, [r4, #64]	@ 0x40
 8006d72:	f043 0304 	orr.w	r3, r3, #4
 8006d76:	6423      	str	r3, [r4, #64]	@ 0x40
 8006d78:	6c23      	ldr	r3, [r4, #64]	@ 0x40
 8006d7a:	b313      	cbz	r3, 8006dc2 <HAL_I2C_EV_IRQHandler+0x756>
 8006d7c:	4620      	mov	r0, r4
 8006d7e:	b00f      	add	sp, #60	@ 0x3c
 8006d80:	e8bd 40f0 	ldmia.w	sp!, {r4, r5, r6, r7, lr}
 8006d84:	f7ff bbca 	b.w	800651c <I2C_ITError>
 8006d88:	6b60      	ldr	r0, [r4, #52]	@ 0x34
 8006d8a:	6802      	ldr	r2, [r0, #0]
 8006d8c:	6852      	ldr	r2, [r2, #4]
 8006d8e:	b292      	uxth	r2, r2
 8006d90:	8562      	strh	r2, [r4, #42]	@ 0x2a
 8006d92:	8d62      	ldrh	r2, [r4, #42]	@ 0x2a
 8006d94:	b292      	uxth	r2, r2
 8006d96:	b11a      	cbz	r2, 8006da0 <HAL_I2C_EV_IRQHandler+0x734>
 8006d98:	6c22      	ldr	r2, [r4, #64]	@ 0x40
 8006d9a:	f042 0204 	orr.w	r2, r2, #4
 8006d9e:	6422      	str	r2, [r4, #64]	@ 0x40
 8006da0:	685a      	ldr	r2, [r3, #4]
 8006da2:	f422 6200 	bic.w	r2, r2, #2048	@ 0x800
 8006da6:	605a      	str	r2, [r3, #4]
 8006da8:	f7fe fac4 	bl	8005334 <HAL_DMA_GetState>
 8006dac:	2801      	cmp	r0, #1
 8006dae:	d0bd      	beq.n	8006d2c <HAL_I2C_EV_IRQHandler+0x6c0>
 8006db0:	6b60      	ldr	r0, [r4, #52]	@ 0x34
 8006db2:	4b54      	ldr	r3, [pc, #336]	@ (8006f04 <HAL_I2C_EV_IRQHandler+0x898>)
 8006db4:	6503      	str	r3, [r0, #80]	@ 0x50
 8006db6:	f7fe f9ec 	bl	8005192 <HAL_DMA_Abort_IT>
 8006dba:	2800      	cmp	r0, #0
 8006dbc:	d0b6      	beq.n	8006d2c <HAL_I2C_EV_IRQHandler+0x6c0>
 8006dbe:	6b60      	ldr	r0, [r4, #52]	@ 0x34
 8006dc0:	e7b2      	b.n	8006d28 <HAL_I2C_EV_IRQHandler+0x6bc>
 8006dc2:	2d2a      	cmp	r5, #42	@ 0x2a
 8006dc4:	d106      	bne.n	8006dd4 <HAL_I2C_EV_IRQHandler+0x768>
 8006dc6:	6323      	str	r3, [r4, #48]	@ 0x30
 8006dc8:	2328      	movs	r3, #40	@ 0x28
 8006dca:	f884 303d 	strb.w	r3, [r4, #61]	@ 0x3d
 8006dce:	4620      	mov	r0, r4
 8006dd0:	f7ff fa3a 	bl	8006248 <HAL_I2C_SlaveRxCpltCallback>
 8006dd4:	f894 303d 	ldrb.w	r3, [r4, #61]	@ 0x3d
 8006dd8:	2b28      	cmp	r3, #40	@ 0x28
 8006dda:	d10c      	bne.n	8006df6 <HAL_I2C_EV_IRQHandler+0x78a>
 8006ddc:	4b4a      	ldr	r3, [pc, #296]	@ (8006f08 <HAL_I2C_EV_IRQHandler+0x89c>)
 8006dde:	62e3      	str	r3, [r4, #44]	@ 0x2c
 8006de0:	2220      	movs	r2, #32
 8006de2:	2300      	movs	r3, #0
 8006de4:	6323      	str	r3, [r4, #48]	@ 0x30
 8006de6:	4620      	mov	r0, r4
 8006de8:	f884 203d 	strb.w	r2, [r4, #61]	@ 0x3d
 8006dec:	f884 303e 	strb.w	r3, [r4, #62]	@ 0x3e
 8006df0:	f7ff fa2c 	bl	800624c <HAL_I2C_ListenCpltCallback>
 8006df4:	e456      	b.n	80066a4 <HAL_I2C_EV_IRQHandler+0x38>
 8006df6:	6b23      	ldr	r3, [r4, #48]	@ 0x30
 8006df8:	2b22      	cmp	r3, #34	@ 0x22
 8006dfa:	d002      	beq.n	8006e02 <HAL_I2C_EV_IRQHandler+0x796>
 8006dfc:	2d22      	cmp	r5, #34	@ 0x22
 8006dfe:	f47f ac51 	bne.w	80066a4 <HAL_I2C_EV_IRQHandler+0x38>
 8006e02:	2300      	movs	r3, #0
 8006e04:	2220      	movs	r2, #32
 8006e06:	6323      	str	r3, [r4, #48]	@ 0x30
 8006e08:	f884 203d 	strb.w	r2, [r4, #61]	@ 0x3d
 8006e0c:	f884 303e 	strb.w	r3, [r4, #62]	@ 0x3e
 8006e10:	4620      	mov	r0, r4
 8006e12:	f7ff fa19 	bl	8006248 <HAL_I2C_SlaveRxCpltCallback>
 8006e16:	e445      	b.n	80066a4 <HAL_I2C_EV_IRQHandler+0x38>
 8006e18:	f001 01f7 	and.w	r1, r1, #247	@ 0xf7
 8006e1c:	2921      	cmp	r1, #33	@ 0x21
 8006e1e:	f000 0504 	and.w	r5, r0, #4
 8006e22:	d135      	bne.n	8006e90 <HAL_I2C_EV_IRQHandler+0x824>
 8006e24:	0607      	lsls	r7, r0, #24
 8006e26:	d527      	bpl.n	8006e78 <HAL_I2C_EV_IRQHandler+0x80c>
 8006e28:	0556      	lsls	r6, r2, #21
 8006e2a:	d525      	bpl.n	8006e78 <HAL_I2C_EV_IRQHandler+0x80c>
 8006e2c:	bb3d      	cbnz	r5, 8006e7e <HAL_I2C_EV_IRQHandler+0x812>
 8006e2e:	f894 003d 	ldrb.w	r0, [r4, #61]	@ 0x3d
 8006e32:	8d62      	ldrh	r2, [r4, #42]	@ 0x2a
 8006e34:	b292      	uxth	r2, r2
 8006e36:	b2c0      	uxtb	r0, r0
 8006e38:	2a00      	cmp	r2, #0
 8006e3a:	f43f ac33 	beq.w	80066a4 <HAL_I2C_EV_IRQHandler+0x38>
 8006e3e:	6a62      	ldr	r2, [r4, #36]	@ 0x24
 8006e40:	f812 5b01 	ldrb.w	r5, [r2], #1
 8006e44:	611d      	str	r5, [r3, #16]
 8006e46:	6262      	str	r2, [r4, #36]	@ 0x24
 8006e48:	8d62      	ldrh	r2, [r4, #42]	@ 0x2a
 8006e4a:	3a01      	subs	r2, #1
 8006e4c:	b292      	uxth	r2, r2
 8006e4e:	8562      	strh	r2, [r4, #42]	@ 0x2a
 8006e50:	8d62      	ldrh	r2, [r4, #42]	@ 0x2a
 8006e52:	b292      	uxth	r2, r2
 8006e54:	2a00      	cmp	r2, #0
 8006e56:	f47f ac25 	bne.w	80066a4 <HAL_I2C_EV_IRQHandler+0x38>
 8006e5a:	2829      	cmp	r0, #41	@ 0x29
 8006e5c:	f47f ac22 	bne.w	80066a4 <HAL_I2C_EV_IRQHandler+0x38>
 8006e60:	685a      	ldr	r2, [r3, #4]
 8006e62:	f422 6280 	bic.w	r2, r2, #1024	@ 0x400
 8006e66:	605a      	str	r2, [r3, #4]
 8006e68:	2328      	movs	r3, #40	@ 0x28
 8006e6a:	6321      	str	r1, [r4, #48]	@ 0x30
 8006e6c:	4620      	mov	r0, r4
 8006e6e:	f884 303d 	strb.w	r3, [r4, #61]	@ 0x3d
 8006e72:	f7ff f9e8 	bl	8006246 <HAL_I2C_SlaveTxCpltCallback>
 8006e76:	e415      	b.n	80066a4 <HAL_I2C_EV_IRQHandler+0x38>
 8006e78:	2d00      	cmp	r5, #0
 8006e7a:	f43f ac13 	beq.w	80066a4 <HAL_I2C_EV_IRQHandler+0x38>
 8006e7e:	0595      	lsls	r5, r2, #22
 8006e80:	f57f ac10 	bpl.w	80066a4 <HAL_I2C_EV_IRQHandler+0x38>
 8006e84:	8d62      	ldrh	r2, [r4, #42]	@ 0x2a
 8006e86:	b292      	uxth	r2, r2
 8006e88:	2a00      	cmp	r2, #0
 8006e8a:	f43f ac0b 	beq.w	80066a4 <HAL_I2C_EV_IRQHandler+0x38>
 8006e8e:	e5a7      	b.n	80069e0 <HAL_I2C_EV_IRQHandler+0x374>
 8006e90:	0640      	lsls	r0, r0, #25
 8006e92:	d527      	bpl.n	8006ee4 <HAL_I2C_EV_IRQHandler+0x878>
 8006e94:	0551      	lsls	r1, r2, #21
 8006e96:	d525      	bpl.n	8006ee4 <HAL_I2C_EV_IRQHandler+0x878>
 8006e98:	bb3d      	cbnz	r5, 8006eea <HAL_I2C_EV_IRQHandler+0x87e>
 8006e9a:	f894 203d 	ldrb.w	r2, [r4, #61]	@ 0x3d
 8006e9e:	8d61      	ldrh	r1, [r4, #42]	@ 0x2a
 8006ea0:	b289      	uxth	r1, r1
 8006ea2:	b2d2      	uxtb	r2, r2
 8006ea4:	2900      	cmp	r1, #0
 8006ea6:	f43f abfd 	beq.w	80066a4 <HAL_I2C_EV_IRQHandler+0x38>
 8006eaa:	6919      	ldr	r1, [r3, #16]
 8006eac:	6a63      	ldr	r3, [r4, #36]	@ 0x24
 8006eae:	7019      	strb	r1, [r3, #0]
 8006eb0:	6a63      	ldr	r3, [r4, #36]	@ 0x24
 8006eb2:	3301      	adds	r3, #1
 8006eb4:	6263      	str	r3, [r4, #36]	@ 0x24
 8006eb6:	8d63      	ldrh	r3, [r4, #42]	@ 0x2a
 8006eb8:	3b01      	subs	r3, #1
 8006eba:	b29b      	uxth	r3, r3
 8006ebc:	8563      	strh	r3, [r4, #42]	@ 0x2a
 8006ebe:	8d63      	ldrh	r3, [r4, #42]	@ 0x2a
 8006ec0:	b29b      	uxth	r3, r3
 8006ec2:	2b00      	cmp	r3, #0
 8006ec4:	f47f abee 	bne.w	80066a4 <HAL_I2C_EV_IRQHandler+0x38>
 8006ec8:	2a2a      	cmp	r2, #42	@ 0x2a
 8006eca:	f47f abeb 	bne.w	80066a4 <HAL_I2C_EV_IRQHandler+0x38>
 8006ece:	6822      	ldr	r2, [r4, #0]
 8006ed0:	6853      	ldr	r3, [r2, #4]
 8006ed2:	f423 6380 	bic.w	r3, r3, #1024	@ 0x400
 8006ed6:	6053      	str	r3, [r2, #4]
 8006ed8:	2322      	movs	r3, #34	@ 0x22
 8006eda:	6323      	str	r3, [r4, #48]	@ 0x30
 8006edc:	2328      	movs	r3, #40	@ 0x28
 8006ede:	f884 303d 	strb.w	r3, [r4, #61]	@ 0x3d
 8006ee2:	e795      	b.n	8006e10 <HAL_I2C_EV_IRQHandler+0x7a4>
 8006ee4:	2d00      	cmp	r5, #0
 8006ee6:	f43f abdd 	beq.w	80066a4 <HAL_I2C_EV_IRQHandler+0x38>
 8006eea:	0592      	lsls	r2, r2, #22
 8006eec:	f57f abda 	bpl.w	80066a4 <HAL_I2C_EV_IRQHandler+0x38>
 8006ef0:	8d62      	ldrh	r2, [r4, #42]	@ 0x2a
 8006ef2:	b292      	uxth	r2, r2
 8006ef4:	2a00      	cmp	r2, #0
 8006ef6:	f43f abd5 	beq.w	80066a4 <HAL_I2C_EV_IRQHandler+0x38>
 8006efa:	691a      	ldr	r2, [r3, #16]
 8006efc:	6a63      	ldr	r3, [r4, #36]	@ 0x24
 8006efe:	701a      	strb	r2, [r3, #0]
 8006f00:	e64b      	b.n	8006b9a <HAL_I2C_EV_IRQHandler+0x52e>
 8006f02:	bf00      	nop
 8006f04:	0800645d 	.word	0x0800645d
 8006f08:	ffff0000 	.word	0xffff0000

08006f0c <HAL_I2C_ER_IRQHandler>:
 8006f0c:	b5f8      	push	{r3, r4, r5, r6, r7, lr}
 8006f0e:	6803      	ldr	r3, [r0, #0]
 8006f10:	695f      	ldr	r7, [r3, #20]
 8006f12:	685e      	ldr	r6, [r3, #4]
 8006f14:	f890 203e 	ldrb.w	r2, [r0, #62]	@ 0x3e
 8006f18:	f417 7580 	ands.w	r5, r7, #256	@ 0x100
 8006f1c:	4604      	mov	r4, r0
 8006f1e:	b2d2      	uxtb	r2, r2
 8006f20:	d006      	beq.n	8006f30 <HAL_I2C_ER_IRQHandler+0x24>
 8006f22:	f416 7580 	ands.w	r5, r6, #256	@ 0x100
 8006f26:	bf1e      	ittt	ne
 8006f28:	f46f 7180 	mvnne.w	r1, #256	@ 0x100
 8006f2c:	6159      	strne	r1, [r3, #20]
 8006f2e:	2501      	movne	r5, #1
 8006f30:	05b8      	lsls	r0, r7, #22
 8006f32:	d506      	bpl.n	8006f42 <HAL_I2C_ER_IRQHandler+0x36>
 8006f34:	05f1      	lsls	r1, r6, #23
 8006f36:	bf42      	ittt	mi
 8006f38:	f46f 7100 	mvnmi.w	r1, #512	@ 0x200
 8006f3c:	f045 0502 	orrmi.w	r5, r5, #2
 8006f40:	6159      	strmi	r1, [r3, #20]
 8006f42:	0578      	lsls	r0, r7, #21
 8006f44:	d536      	bpl.n	8006fb4 <HAL_I2C_ER_IRQHandler+0xa8>
 8006f46:	05f1      	lsls	r1, r6, #23
 8006f48:	d534      	bpl.n	8006fb4 <HAL_I2C_ER_IRQHandler+0xa8>
 8006f4a:	8d60      	ldrh	r0, [r4, #42]	@ 0x2a
 8006f4c:	f894 103d 	ldrb.w	r1, [r4, #61]	@ 0x3d
 8006f50:	f8d4 c030 	ldr.w	ip, [r4, #48]	@ 0x30
 8006f54:	2a20      	cmp	r2, #32
 8006f56:	b280      	uxth	r0, r0
 8006f58:	b2c9      	uxtb	r1, r1
 8006f5a:	d15f      	bne.n	800701c <HAL_I2C_ER_IRQHandler+0x110>
 8006f5c:	2800      	cmp	r0, #0
 8006f5e:	d15d      	bne.n	800701c <HAL_I2C_ER_IRQHandler+0x110>
 8006f60:	f001 00f7 	and.w	r0, r1, #247	@ 0xf7
 8006f64:	2821      	cmp	r0, #33	@ 0x21
 8006f66:	d004      	beq.n	8006f72 <HAL_I2C_ER_IRQHandler+0x66>
 8006f68:	2928      	cmp	r1, #40	@ 0x28
 8006f6a:	d157      	bne.n	800701c <HAL_I2C_ER_IRQHandler+0x110>
 8006f6c:	f1bc 0f21 	cmp.w	ip, #33	@ 0x21
 8006f70:	d154      	bne.n	800701c <HAL_I2C_ER_IRQHandler+0x110>
 8006f72:	f894 203d 	ldrb.w	r2, [r4, #61]	@ 0x3d
 8006f76:	6ae1      	ldr	r1, [r4, #44]	@ 0x2c
 8006f78:	2908      	cmp	r1, #8
 8006f7a:	b2d2      	uxtb	r2, r2
 8006f7c:	d001      	beq.n	8006f82 <HAL_I2C_ER_IRQHandler+0x76>
 8006f7e:	2920      	cmp	r1, #32
 8006f80:	d12a      	bne.n	8006fd8 <HAL_I2C_ER_IRQHandler+0xcc>
 8006f82:	2a28      	cmp	r2, #40	@ 0x28
 8006f84:	d128      	bne.n	8006fd8 <HAL_I2C_ER_IRQHandler+0xcc>
 8006f86:	4a2e      	ldr	r2, [pc, #184]	@ (8007040 <HAL_I2C_ER_IRQHandler+0x134>)
 8006f88:	62e2      	str	r2, [r4, #44]	@ 0x2c
 8006f8a:	685a      	ldr	r2, [r3, #4]
 8006f8c:	f422 62e0 	bic.w	r2, r2, #1792	@ 0x700
 8006f90:	605a      	str	r2, [r3, #4]
 8006f92:	f46f 6280 	mvn.w	r2, #1024	@ 0x400
 8006f96:	615a      	str	r2, [r3, #20]
 8006f98:	681a      	ldr	r2, [r3, #0]
 8006f9a:	f422 6280 	bic.w	r2, r2, #1024	@ 0x400
 8006f9e:	601a      	str	r2, [r3, #0]
 8006fa0:	2300      	movs	r3, #0
 8006fa2:	2220      	movs	r2, #32
 8006fa4:	6323      	str	r3, [r4, #48]	@ 0x30
 8006fa6:	4620      	mov	r0, r4
 8006fa8:	f884 203d 	strb.w	r2, [r4, #61]	@ 0x3d
 8006fac:	f884 303e 	strb.w	r3, [r4, #62]	@ 0x3e
 8006fb0:	f7ff f94c 	bl	800624c <HAL_I2C_ListenCpltCallback>
 8006fb4:	053a      	lsls	r2, r7, #20
 8006fb6:	d53f      	bpl.n	8007038 <HAL_I2C_ER_IRQHandler+0x12c>
 8006fb8:	05f3      	lsls	r3, r6, #23
 8006fba:	d53d      	bpl.n	8007038 <HAL_I2C_ER_IRQHandler+0x12c>
 8006fbc:	6823      	ldr	r3, [r4, #0]
 8006fbe:	f46f 6200 	mvn.w	r2, #2048	@ 0x800
 8006fc2:	f045 0508 	orr.w	r5, r5, #8
 8006fc6:	615a      	str	r2, [r3, #20]
 8006fc8:	6c23      	ldr	r3, [r4, #64]	@ 0x40
 8006fca:	432b      	orrs	r3, r5
 8006fcc:	6423      	str	r3, [r4, #64]	@ 0x40
 8006fce:	4620      	mov	r0, r4
 8006fd0:	e8bd 40f8 	ldmia.w	sp!, {r3, r4, r5, r6, r7, lr}
 8006fd4:	f7ff baa2 	b.w	800651c <I2C_ITError>
 8006fd8:	2a21      	cmp	r2, #33	@ 0x21
 8006fda:	d11b      	bne.n	8007014 <HAL_I2C_ER_IRQHandler+0x108>
 8006fdc:	4918      	ldr	r1, [pc, #96]	@ (8007040 <HAL_I2C_ER_IRQHandler+0x134>)
 8006fde:	62e1      	str	r1, [r4, #44]	@ 0x2c
 8006fe0:	6322      	str	r2, [r4, #48]	@ 0x30
 8006fe2:	2100      	movs	r1, #0
 8006fe4:	2220      	movs	r2, #32
 8006fe6:	f884 203d 	strb.w	r2, [r4, #61]	@ 0x3d
 8006fea:	f884 103e 	strb.w	r1, [r4, #62]	@ 0x3e
 8006fee:	685a      	ldr	r2, [r3, #4]
 8006ff0:	f422 62e0 	bic.w	r2, r2, #1792	@ 0x700
 8006ff4:	605a      	str	r2, [r3, #4]
 8006ff6:	f46f 6280 	mvn.w	r2, #1024	@ 0x400
 8006ffa:	615a      	str	r2, [r3, #20]
 8006ffc:	681a      	ldr	r2, [r3, #0]
 8006ffe:	f422 6280 	bic.w	r2, r2, #1024	@ 0x400
 8007002:	601a      	str	r2, [r3, #0]
 8007004:	695a      	ldr	r2, [r3, #20]
 8007006:	0610      	lsls	r0, r2, #24
 8007008:	bf48      	it	mi
 800700a:	6119      	strmi	r1, [r3, #16]
 800700c:	4620      	mov	r0, r4
 800700e:	f7ff f91a 	bl	8006246 <HAL_I2C_SlaveTxCpltCallback>
 8007012:	e7cf      	b.n	8006fb4 <HAL_I2C_ER_IRQHandler+0xa8>
 8007014:	f46f 6280 	mvn.w	r2, #1024	@ 0x400
 8007018:	615a      	str	r2, [r3, #20]
 800701a:	e7cb      	b.n	8006fb4 <HAL_I2C_ER_IRQHandler+0xa8>
 800701c:	f46f 6180 	mvn.w	r1, #1024	@ 0x400
 8007020:	2a10      	cmp	r2, #16
 8007022:	6159      	str	r1, [r3, #20]
 8007024:	f045 0504 	orr.w	r5, r5, #4
 8007028:	d001      	beq.n	800702e <HAL_I2C_ER_IRQHandler+0x122>
 800702a:	2a40      	cmp	r2, #64	@ 0x40
 800702c:	d1c2      	bne.n	8006fb4 <HAL_I2C_ER_IRQHandler+0xa8>
 800702e:	681a      	ldr	r2, [r3, #0]
 8007030:	f442 7200 	orr.w	r2, r2, #512	@ 0x200
 8007034:	601a      	str	r2, [r3, #0]
 8007036:	e7bd      	b.n	8006fb4 <HAL_I2C_ER_IRQHandler+0xa8>
 8007038:	2d00      	cmp	r5, #0
 800703a:	d1c5      	bne.n	8006fc8 <HAL_I2C_ER_IRQHandler+0xbc>
 800703c:	bdf8      	pop	{r3, r4, r5, r6, r7, pc}
 800703e:	bf00      	nop
 8007040:	ffff0000 	.word	0xffff0000

08007044 <HAL_PCD_Init>:
 8007044:	b5f7      	push	{r0, r1, r2, r4, r5, r6, r7, lr}
 8007046:	4604      	mov	r4, r0
 8007048:	b310      	cbz	r0, 8007090 <HAL_PCD_Init+0x4c>
 800704a:	f890 3495 	ldrb.w	r3, [r0, #1173]	@ 0x495
 800704e:	6805      	ldr	r5, [r0, #0]
 8007050:	f003 02ff 	and.w	r2, r3, #255	@ 0xff
 8007054:	b91b      	cbnz	r3, 800705e <HAL_PCD_Init+0x1a>
 8007056:	f880 2494 	strb.w	r2, [r0, #1172]	@ 0x494
 800705a:	f003 fb47 	bl	800a6ec <HAL_PCD_MspInit>
 800705e:	2303      	movs	r3, #3
 8007060:	f1b5 4fa0 	cmp.w	r5, #1342177280	@ 0x50000000
 8007064:	f884 3495 	strb.w	r3, [r4, #1173]	@ 0x495
 8007068:	bf04      	itt	eq
 800706a:	2300      	moveq	r3, #0
 800706c:	71a3      	strbeq	r3, [r4, #6]
 800706e:	6820      	ldr	r0, [r4, #0]
 8007070:	f001 ff7c 	bl	8008f6c <USB_DisableGlobalInt>
 8007074:	7c23      	ldrb	r3, [r4, #16]
 8007076:	f88d 3000 	strb.w	r3, [sp]
 800707a:	1d25      	adds	r5, r4, #4
 800707c:	e895 000e 	ldmia.w	r5, {r1, r2, r3}
 8007080:	6820      	ldr	r0, [r4, #0]
 8007082:	f001 feb9 	bl	8008df8 <USB_CoreInit>
 8007086:	4601      	mov	r1, r0
 8007088:	b130      	cbz	r0, 8007098 <HAL_PCD_Init+0x54>
 800708a:	2302      	movs	r3, #2
 800708c:	f884 3495 	strb.w	r3, [r4, #1173]	@ 0x495
 8007090:	2501      	movs	r5, #1
 8007092:	4628      	mov	r0, r5
 8007094:	b003      	add	sp, #12
 8007096:	bdf0      	pop	{r4, r5, r6, r7, pc}
 8007098:	6820      	ldr	r0, [r4, #0]
 800709a:	f001 ff6d 	bl	8008f78 <USB_SetCurrentMode>
 800709e:	2800      	cmp	r0, #0
 80070a0:	d1f3      	bne.n	800708a <HAL_PCD_Init+0x46>
 80070a2:	7926      	ldrb	r6, [r4, #4]
 80070a4:	f104 0314 	add.w	r3, r4, #20
 80070a8:	2701      	movs	r7, #1
 80070aa:	4602      	mov	r2, r0
 80070ac:	b2c1      	uxtb	r1, r0
 80070ae:	428e      	cmp	r6, r1
 80070b0:	f103 0324 	add.w	r3, r3, #36	@ 0x24
 80070b4:	d81b      	bhi.n	80070ee <HAL_PCD_Init+0xaa>
 80070b6:	2100      	movs	r1, #0
 80070b8:	f504 7315 	add.w	r3, r4, #596	@ 0x254
 80070bc:	460a      	mov	r2, r1
 80070be:	b2c8      	uxtb	r0, r1
 80070c0:	4286      	cmp	r6, r0
 80070c2:	f103 0324 	add.w	r3, r3, #36	@ 0x24
 80070c6:	d820      	bhi.n	800710a <HAL_PCD_Init+0xc6>
 80070c8:	7c23      	ldrb	r3, [r4, #16]
 80070ca:	f88d 3000 	strb.w	r3, [sp]
 80070ce:	e895 000e 	ldmia.w	r5, {r1, r2, r3}
 80070d2:	6820      	ldr	r0, [r4, #0]
 80070d4:	f001 ffcc 	bl	8009070 <USB_DevInit>
 80070d8:	4605      	mov	r5, r0
 80070da:	2800      	cmp	r0, #0
 80070dc:	d1d5      	bne.n	800708a <HAL_PCD_Init+0x46>
 80070de:	2301      	movs	r3, #1
 80070e0:	7460      	strb	r0, [r4, #17]
 80070e2:	6820      	ldr	r0, [r4, #0]
 80070e4:	f884 3495 	strb.w	r3, [r4, #1173]	@ 0x495
 80070e8:	f002 fb06 	bl	80096f8 <USB_DevDisconnect>
 80070ec:	e7d1      	b.n	8007092 <HAL_PCD_Init+0x4e>
 80070ee:	f823 0c0a 	strh.w	r0, [r3, #-10]
 80070f2:	e943 2207 	strd	r2, r2, [r3, #-28]
 80070f6:	f803 7c23 	strb.w	r7, [r3, #-35]
 80070fa:	f803 1c24 	strb.w	r1, [r3, #-36]
 80070fe:	f803 2c20 	strb.w	r2, [r3, #-32]
 8007102:	f843 2c14 	str.w	r2, [r3, #-20]
 8007106:	3001      	adds	r0, #1
 8007108:	e7d0      	b.n	80070ac <HAL_PCD_Init+0x68>
 800710a:	e943 2207 	strd	r2, r2, [r3, #-28]
 800710e:	f803 2c23 	strb.w	r2, [r3, #-35]
 8007112:	f803 0c24 	strb.w	r0, [r3, #-36]
 8007116:	f803 2c20 	strb.w	r2, [r3, #-32]
 800711a:	f843 2c14 	str.w	r2, [r3, #-20]
 800711e:	3101      	adds	r1, #1
 8007120:	e7cd      	b.n	80070be <HAL_PCD_Init+0x7a>

08007122 <HAL_PCD_Start>:
 8007122:	b510      	push	{r4, lr}
 8007124:	4604      	mov	r4, r0
 8007126:	6800      	ldr	r0, [r0, #0]
 8007128:	f894 3494 	ldrb.w	r3, [r4, #1172]	@ 0x494
 800712c:	2b01      	cmp	r3, #1
 800712e:	d015      	beq.n	800715c <HAL_PCD_Start+0x3a>
 8007130:	2301      	movs	r3, #1
 8007132:	f884 3494 	strb.w	r3, [r4, #1172]	@ 0x494
 8007136:	68c3      	ldr	r3, [r0, #12]
 8007138:	065b      	lsls	r3, r3, #25
 800713a:	d506      	bpl.n	800714a <HAL_PCD_Start+0x28>
 800713c:	7b63      	ldrb	r3, [r4, #13]
 800713e:	2b01      	cmp	r3, #1
 8007140:	bf02      	ittt	eq
 8007142:	6b83      	ldreq	r3, [r0, #56]	@ 0x38
 8007144:	f443 3380 	orreq.w	r3, r3, #65536	@ 0x10000
 8007148:	6383      	streq	r3, [r0, #56]	@ 0x38
 800714a:	f001 ff09 	bl	8008f60 <USB_EnableGlobalInt>
 800714e:	6820      	ldr	r0, [r4, #0]
 8007150:	f002 fac4 	bl	80096dc <USB_DevConnect>
 8007154:	2000      	movs	r0, #0
 8007156:	f884 0494 	strb.w	r0, [r4, #1172]	@ 0x494
 800715a:	bd10      	pop	{r4, pc}
 800715c:	2002      	movs	r0, #2
 800715e:	e7fc      	b.n	800715a <HAL_PCD_Start+0x38>

08007160 <HAL_PCD_SetAddress>:
 8007160:	b510      	push	{r4, lr}
 8007162:	f890 2494 	ldrb.w	r2, [r0, #1172]	@ 0x494
 8007166:	2a01      	cmp	r2, #1
 8007168:	4604      	mov	r4, r0
 800716a:	d00a      	beq.n	8007182 <HAL_PCD_SetAddress+0x22>
 800716c:	2201      	movs	r2, #1
 800716e:	f880 2494 	strb.w	r2, [r0, #1172]	@ 0x494
 8007172:	7441      	strb	r1, [r0, #17]
 8007174:	6800      	ldr	r0, [r0, #0]
 8007176:	f002 faa1 	bl	80096bc <USB_SetDevAddress>
 800717a:	2000      	movs	r0, #0
 800717c:	f884 0494 	strb.w	r0, [r4, #1172]	@ 0x494
 8007180:	bd10      	pop	{r4, pc}
 8007182:	2002      	movs	r0, #2
 8007184:	e7fc      	b.n	8007180 <HAL_PCD_SetAddress+0x20>

08007186 <HAL_PCD_EP_Open>:
 8007186:	b570      	push	{r4, r5, r6, lr}
 8007188:	f001 060f 	and.w	r6, r1, #15
 800718c:	eb06 04c6 	add.w	r4, r6, r6, lsl #3
 8007190:	f011 0f80 	tst.w	r1, #128	@ 0x80
 8007194:	4605      	mov	r5, r0
 8007196:	ea4f 0484 	mov.w	r4, r4, lsl #2
 800719a:	f04f 0024 	mov.w	r0, #36	@ 0x24
 800719e:	d020      	beq.n	80071e2 <HAL_PCD_EP_Open+0x5c>
 80071a0:	fb00 5006 	mla	r0, r0, r6, r5
 80071a4:	f104 0114 	add.w	r1, r4, #20
 80071a8:	2401      	movs	r4, #1
 80071aa:	4429      	add	r1, r5
 80071ac:	7544      	strb	r4, [r0, #21]
 80071ae:	f3c2 020a 	ubfx	r2, r2, #0, #11
 80071b2:	608a      	str	r2, [r1, #8]
 80071b4:	784a      	ldrb	r2, [r1, #1]
 80071b6:	700e      	strb	r6, [r1, #0]
 80071b8:	710b      	strb	r3, [r1, #4]
 80071ba:	b102      	cbz	r2, 80071be <HAL_PCD_EP_Open+0x38>
 80071bc:	834e      	strh	r6, [r1, #26]
 80071be:	2b02      	cmp	r3, #2
 80071c0:	bf04      	itt	eq
 80071c2:	2300      	moveq	r3, #0
 80071c4:	714b      	strbeq	r3, [r1, #5]
 80071c6:	f895 3494 	ldrb.w	r3, [r5, #1172]	@ 0x494
 80071ca:	2b01      	cmp	r3, #1
 80071cc:	d012      	beq.n	80071f4 <HAL_PCD_EP_Open+0x6e>
 80071ce:	2301      	movs	r3, #1
 80071d0:	6828      	ldr	r0, [r5, #0]
 80071d2:	f885 3494 	strb.w	r3, [r5, #1172]	@ 0x494
 80071d6:	f002 f810 	bl	80091fa <USB_ActivateEndpoint>
 80071da:	2000      	movs	r0, #0
 80071dc:	f885 0494 	strb.w	r0, [r5, #1172]	@ 0x494
 80071e0:	bd70      	pop	{r4, r5, r6, pc}
 80071e2:	fb00 5006 	mla	r0, r0, r6, r5
 80071e6:	f504 7115 	add.w	r1, r4, #596	@ 0x254
 80071ea:	2400      	movs	r4, #0
 80071ec:	4429      	add	r1, r5
 80071ee:	f880 4255 	strb.w	r4, [r0, #597]	@ 0x255
 80071f2:	e7dc      	b.n	80071ae <HAL_PCD_EP_Open+0x28>
 80071f4:	2002      	movs	r0, #2
 80071f6:	e7f3      	b.n	80071e0 <HAL_PCD_EP_Open+0x5a>

080071f8 <HAL_PCD_EP_Close>:
 80071f8:	b510      	push	{r4, lr}
 80071fa:	4604      	mov	r4, r0
 80071fc:	f001 000f 	and.w	r0, r1, #15
 8007200:	eb00 03c0 	add.w	r3, r0, r0, lsl #3
 8007204:	f011 0f80 	tst.w	r1, #128	@ 0x80
 8007208:	ea4f 0383 	mov.w	r3, r3, lsl #2
 800720c:	f04f 0224 	mov.w	r2, #36	@ 0x24
 8007210:	d015      	beq.n	800723e <HAL_PCD_EP_Close+0x46>
 8007212:	fb02 4200 	mla	r2, r2, r0, r4
 8007216:	f103 0114 	add.w	r1, r3, #20
 800721a:	2301      	movs	r3, #1
 800721c:	4421      	add	r1, r4
 800721e:	7553      	strb	r3, [r2, #21]
 8007220:	7008      	strb	r0, [r1, #0]
 8007222:	f894 3494 	ldrb.w	r3, [r4, #1172]	@ 0x494
 8007226:	2b01      	cmp	r3, #1
 8007228:	d012      	beq.n	8007250 <HAL_PCD_EP_Close+0x58>
 800722a:	2301      	movs	r3, #1
 800722c:	6820      	ldr	r0, [r4, #0]
 800722e:	f884 3494 	strb.w	r3, [r4, #1172]	@ 0x494
 8007232:	f002 f821 	bl	8009278 <USB_DeactivateEndpoint>
 8007236:	2000      	movs	r0, #0
 8007238:	f884 0494 	strb.w	r0, [r4, #1172]	@ 0x494
 800723c:	bd10      	pop	{r4, pc}
 800723e:	fb02 4200 	mla	r2, r2, r0, r4
 8007242:	f503 7115 	add.w	r1, r3, #596	@ 0x254
 8007246:	2300      	movs	r3, #0
 8007248:	4421      	add	r1, r4
 800724a:	f882 3255 	strb.w	r3, [r2, #597]	@ 0x255
 800724e:	e7e7      	b.n	8007220 <HAL_PCD_EP_Close+0x28>
 8007250:	2002      	movs	r0, #2
 8007252:	e7f3      	b.n	800723c <HAL_PCD_EP_Close+0x44>

08007254 <HAL_PCD_EP_Receive>:
 8007254:	b570      	push	{r4, r5, r6, lr}
 8007256:	f001 050f 	and.w	r5, r1, #15
 800725a:	2424      	movs	r4, #36	@ 0x24
 800725c:	fb04 0105 	mla	r1, r4, r5, r0
 8007260:	fb04 0405 	mla	r4, r4, r5, r0
 8007264:	e9c4 2398 	strd	r2, r3, [r4, #608]	@ 0x260
 8007268:	2300      	movs	r3, #0
 800726a:	f8c4 3268 	str.w	r3, [r4, #616]	@ 0x268
 800726e:	f884 3255 	strb.w	r3, [r4, #597]	@ 0x255
 8007272:	f884 5254 	strb.w	r5, [r4, #596]	@ 0x254
 8007276:	4616      	mov	r6, r2
 8007278:	7982      	ldrb	r2, [r0, #6]
 800727a:	6800      	ldr	r0, [r0, #0]
 800727c:	2a01      	cmp	r2, #1
 800727e:	f501 7115 	add.w	r1, r1, #596	@ 0x254
 8007282:	bf08      	it	eq
 8007284:	f8c4 6270 	streq.w	r6, [r4, #624]	@ 0x270
 8007288:	f002 f8a2 	bl	80093d0 <USB_EPStartXfer>
 800728c:	2000      	movs	r0, #0
 800728e:	bd70      	pop	{r4, r5, r6, pc}

08007290 <HAL_PCD_EP_GetRxCount>:
 8007290:	f001 010f 	and.w	r1, r1, #15
 8007294:	2324      	movs	r3, #36	@ 0x24
 8007296:	fb03 0001 	mla	r0, r3, r1, r0
 800729a:	f8d0 0268 	ldr.w	r0, [r0, #616]	@ 0x268
 800729e:	4770      	bx	lr

080072a0 <HAL_PCD_EP_Transmit>:
 80072a0:	b570      	push	{r4, r5, r6, lr}
 80072a2:	f001 050f 	and.w	r5, r1, #15
 80072a6:	2424      	movs	r4, #36	@ 0x24
 80072a8:	fb04 0105 	mla	r1, r4, r5, r0
 80072ac:	fb04 0405 	mla	r4, r4, r5, r0
 80072b0:	e9c4 2308 	strd	r2, r3, [r4, #32]
 80072b4:	2300      	movs	r3, #0
 80072b6:	62a3      	str	r3, [r4, #40]	@ 0x28
 80072b8:	2301      	movs	r3, #1
 80072ba:	7563      	strb	r3, [r4, #21]
 80072bc:	7525      	strb	r5, [r4, #20]
 80072be:	4616      	mov	r6, r2
 80072c0:	7982      	ldrb	r2, [r0, #6]
 80072c2:	6800      	ldr	r0, [r0, #0]
 80072c4:	429a      	cmp	r2, r3
 80072c6:	f101 0114 	add.w	r1, r1, #20
 80072ca:	bf08      	it	eq
 80072cc:	6326      	streq	r6, [r4, #48]	@ 0x30
 80072ce:	f002 f87f 	bl	80093d0 <USB_EPStartXfer>
 80072d2:	2000      	movs	r0, #0
 80072d4:	bd70      	pop	{r4, r5, r6, pc}

080072d6 <HAL_PCD_EP_SetStall>:
 80072d6:	b538      	push	{r3, r4, r5, lr}
 80072d8:	7903      	ldrb	r3, [r0, #4]
 80072da:	f001 050f 	and.w	r5, r1, #15
 80072de:	42ab      	cmp	r3, r5
 80072e0:	4604      	mov	r4, r0
 80072e2:	d32b      	bcc.n	800733c <HAL_PCD_EP_SetStall+0x66>
 80072e4:	f011 0f80 	tst.w	r1, #128	@ 0x80
 80072e8:	f04f 0024 	mov.w	r0, #36	@ 0x24
 80072ec:	d01d      	beq.n	800732a <HAL_PCD_EP_SetStall+0x54>
 80072ee:	fb00 4105 	mla	r1, r0, r5, r4
 80072f2:	fb00 4005 	mla	r0, r0, r5, r4
 80072f6:	2301      	movs	r3, #1
 80072f8:	3114      	adds	r1, #20
 80072fa:	7543      	strb	r3, [r0, #21]
 80072fc:	2301      	movs	r3, #1
 80072fe:	708b      	strb	r3, [r1, #2]
 8007300:	700d      	strb	r5, [r1, #0]
 8007302:	f894 2494 	ldrb.w	r2, [r4, #1172]	@ 0x494
 8007306:	429a      	cmp	r2, r3
 8007308:	d01a      	beq.n	8007340 <HAL_PCD_EP_SetStall+0x6a>
 800730a:	6820      	ldr	r0, [r4, #0]
 800730c:	f884 3494 	strb.w	r3, [r4, #1172]	@ 0x494
 8007310:	f002 f980 	bl	8009614 <USB_EPSetStall>
 8007314:	b92d      	cbnz	r5, 8007322 <HAL_PCD_EP_SetStall+0x4c>
 8007316:	79a1      	ldrb	r1, [r4, #6]
 8007318:	6820      	ldr	r0, [r4, #0]
 800731a:	f204 429c 	addw	r2, r4, #1180	@ 0x49c
 800731e:	f002 fa39 	bl	8009794 <USB_EP0_OutStart>
 8007322:	2000      	movs	r0, #0
 8007324:	f884 0494 	strb.w	r0, [r4, #1172]	@ 0x494
 8007328:	bd38      	pop	{r3, r4, r5, pc}
 800732a:	fb00 4301 	mla	r3, r0, r1, r4
 800732e:	461a      	mov	r2, r3
 8007330:	f503 7115 	add.w	r1, r3, #596	@ 0x254
 8007334:	2300      	movs	r3, #0
 8007336:	f882 3255 	strb.w	r3, [r2, #597]	@ 0x255
 800733a:	e7df      	b.n	80072fc <HAL_PCD_EP_SetStall+0x26>
 800733c:	2001      	movs	r0, #1
 800733e:	e7f3      	b.n	8007328 <HAL_PCD_EP_SetStall+0x52>
 8007340:	2002      	movs	r0, #2
 8007342:	e7f1      	b.n	8007328 <HAL_PCD_EP_SetStall+0x52>

08007344 <HAL_PCD_EP_ClrStall>:
 8007344:	b538      	push	{r3, r4, r5, lr}
 8007346:	7903      	ldrb	r3, [r0, #4]
 8007348:	f001 020f 	and.w	r2, r1, #15
 800734c:	4293      	cmp	r3, r2
 800734e:	4604      	mov	r4, r0
 8007350:	d329      	bcc.n	80073a6 <HAL_PCD_EP_ClrStall+0x62>
 8007352:	eb02 03c2 	add.w	r3, r2, r2, lsl #3
 8007356:	f011 0f80 	tst.w	r1, #128	@ 0x80
 800735a:	ea4f 0383 	mov.w	r3, r3, lsl #2
 800735e:	f04f 0024 	mov.w	r0, #36	@ 0x24
 8007362:	d017      	beq.n	8007394 <HAL_PCD_EP_ClrStall+0x50>
 8007364:	fb00 4002 	mla	r0, r0, r2, r4
 8007368:	f103 0114 	add.w	r1, r3, #20
 800736c:	2301      	movs	r3, #1
 800736e:	4421      	add	r1, r4
 8007370:	7543      	strb	r3, [r0, #21]
 8007372:	2500      	movs	r5, #0
 8007374:	708d      	strb	r5, [r1, #2]
 8007376:	700a      	strb	r2, [r1, #0]
 8007378:	f894 3494 	ldrb.w	r3, [r4, #1172]	@ 0x494
 800737c:	2b01      	cmp	r3, #1
 800737e:	d014      	beq.n	80073aa <HAL_PCD_EP_ClrStall+0x66>
 8007380:	2301      	movs	r3, #1
 8007382:	6820      	ldr	r0, [r4, #0]
 8007384:	f884 3494 	strb.w	r3, [r4, #1172]	@ 0x494
 8007388:	f002 f96f 	bl	800966a <USB_EPClearStall>
 800738c:	f884 5494 	strb.w	r5, [r4, #1172]	@ 0x494
 8007390:	4628      	mov	r0, r5
 8007392:	bd38      	pop	{r3, r4, r5, pc}
 8007394:	fb00 4002 	mla	r0, r0, r2, r4
 8007398:	f503 7115 	add.w	r1, r3, #596	@ 0x254
 800739c:	2300      	movs	r3, #0
 800739e:	4421      	add	r1, r4
 80073a0:	f880 3255 	strb.w	r3, [r0, #597]	@ 0x255
 80073a4:	e7e5      	b.n	8007372 <HAL_PCD_EP_ClrStall+0x2e>
 80073a6:	2001      	movs	r0, #1
 80073a8:	e7f3      	b.n	8007392 <HAL_PCD_EP_ClrStall+0x4e>
 80073aa:	2002      	movs	r0, #2
 80073ac:	e7f1      	b.n	8007392 <HAL_PCD_EP_ClrStall+0x4e>

080073ae <HAL_PCD_EP_Abort>:
 80073ae:	f001 030f 	and.w	r3, r1, #15
 80073b2:	eb03 03c3 	add.w	r3, r3, r3, lsl #3
 80073b6:	060a      	lsls	r2, r1, #24
 80073b8:	ea4f 0383 	mov.w	r3, r3, lsl #2
 80073bc:	bf4c      	ite	mi
 80073be:	f103 0114 	addmi.w	r1, r3, #20
 80073c2:	f503 7115 	addpl.w	r1, r3, #596	@ 0x254
 80073c6:	4401      	add	r1, r0
 80073c8:	6800      	ldr	r0, [r0, #0]
 80073ca:	f001 bfab 	b.w	8009324 <USB_EPStopXfer>
	...

080073d0 <HAL_PCD_IRQHandler>:
 80073d0:	e92d 4ff0 	stmdb	sp!, {r4, r5, r6, r7, r8, r9, sl, fp, lr}
 80073d4:	6806      	ldr	r6, [r0, #0]
 80073d6:	b089      	sub	sp, #36	@ 0x24
 80073d8:	4604      	mov	r4, r0
 80073da:	4630      	mov	r0, r6
 80073dc:	f002 f9c8 	bl	8009770 <USB_GetMode>
 80073e0:	9003      	str	r0, [sp, #12]
 80073e2:	2800      	cmp	r0, #0
 80073e4:	f040 8156 	bne.w	8007694 <HAL_PCD_IRQHandler+0x2c4>
 80073e8:	6820      	ldr	r0, [r4, #0]
 80073ea:	f002 f993 	bl	8009714 <USB_ReadInterrupts>
 80073ee:	2800      	cmp	r0, #0
 80073f0:	f000 8150 	beq.w	8007694 <HAL_PCD_IRQHandler+0x2c4>
 80073f4:	f8d6 3808 	ldr.w	r3, [r6, #2056]	@ 0x808
 80073f8:	6820      	ldr	r0, [r4, #0]
 80073fa:	f3c3 230d 	ubfx	r3, r3, #8, #14
 80073fe:	f8c4 34d4 	str.w	r3, [r4, #1236]	@ 0x4d4
 8007402:	f002 f987 	bl	8009714 <USB_ReadInterrupts>
 8007406:	0787      	lsls	r7, r0, #30
 8007408:	bf48      	it	mi
 800740a:	6822      	ldrmi	r2, [r4, #0]
 800740c:	6820      	ldr	r0, [r4, #0]
 800740e:	bf42      	ittt	mi
 8007410:	6953      	ldrmi	r3, [r2, #20]
 8007412:	f003 0302 	andmi.w	r3, r3, #2
 8007416:	6153      	strmi	r3, [r2, #20]
 8007418:	f002 f97c 	bl	8009714 <USB_ReadInterrupts>
 800741c:	06c0      	lsls	r0, r0, #27
 800741e:	f506 6500 	add.w	r5, r6, #2048	@ 0x800
 8007422:	d52d      	bpl.n	8007480 <HAL_PCD_IRQHandler+0xb0>
 8007424:	6822      	ldr	r2, [r4, #0]
 8007426:	6993      	ldr	r3, [r2, #24]
 8007428:	f023 0310 	bic.w	r3, r3, #16
 800742c:	6193      	str	r3, [r2, #24]
 800742e:	f8d6 8020 	ldr.w	r8, [r6, #32]
 8007432:	f408 13f0 	and.w	r3, r8, #1966080	@ 0x1e0000
 8007436:	f5b3 2f80 	cmp.w	r3, #262144	@ 0x40000
 800743a:	f008 070f 	and.w	r7, r8, #15
 800743e:	f040 812c 	bne.w	800769a <HAL_PCD_IRQHandler+0x2ca>
 8007442:	f647 73f0 	movw	r3, #32752	@ 0x7ff0
 8007446:	ea18 0f03 	tst.w	r8, r3
 800744a:	d014      	beq.n	8007476 <HAL_PCD_IRQHandler+0xa6>
 800744c:	2324      	movs	r3, #36	@ 0x24
 800744e:	fb03 4707 	mla	r7, r3, r7, r4
 8007452:	f3c8 190a 	ubfx	r9, r8, #4, #11
 8007456:	f8d7 1260 	ldr.w	r1, [r7, #608]	@ 0x260
 800745a:	464a      	mov	r2, r9
 800745c:	4630      	mov	r0, r6
 800745e:	f002 f8b9 	bl	80095d4 <USB_ReadPacket>
 8007462:	f8d7 3260 	ldr.w	r3, [r7, #608]	@ 0x260
 8007466:	444b      	add	r3, r9
 8007468:	f8c7 3260 	str.w	r3, [r7, #608]	@ 0x260
 800746c:	f8d7 3268 	ldr.w	r3, [r7, #616]	@ 0x268
 8007470:	444b      	add	r3, r9
 8007472:	f8c7 3268 	str.w	r3, [r7, #616]	@ 0x268
 8007476:	6822      	ldr	r2, [r4, #0]
 8007478:	6993      	ldr	r3, [r2, #24]
 800747a:	f043 0310 	orr.w	r3, r3, #16
 800747e:	6193      	str	r3, [r2, #24]
 8007480:	6820      	ldr	r0, [r4, #0]
 8007482:	f002 f947 	bl	8009714 <USB_ReadInterrupts>
 8007486:	0301      	lsls	r1, r0, #12
 8007488:	f100 811a 	bmi.w	80076c0 <HAL_PCD_IRQHandler+0x2f0>
 800748c:	6820      	ldr	r0, [r4, #0]
 800748e:	f002 f941 	bl	8009714 <USB_ReadInterrupts>
 8007492:	0342      	lsls	r2, r0, #13
 8007494:	d50d      	bpl.n	80074b2 <HAL_PCD_IRQHandler+0xe2>
 8007496:	6820      	ldr	r0, [r4, #0]
 8007498:	f002 f948 	bl	800972c <USB_ReadDevAllInEpInterrupt>
 800749c:	4627      	mov	r7, r4
 800749e:	9004      	str	r0, [sp, #16]
 80074a0:	f506 6b10 	add.w	fp, r6, #2304	@ 0x900
 80074a4:	f04f 0a00 	mov.w	sl, #0
 80074a8:	9b04      	ldr	r3, [sp, #16]
 80074aa:	6820      	ldr	r0, [r4, #0]
 80074ac:	2b00      	cmp	r3, #0
 80074ae:	f040 81d1 	bne.w	8007854 <HAL_PCD_IRQHandler+0x484>
 80074b2:	6820      	ldr	r0, [r4, #0]
 80074b4:	f002 f92e 	bl	8009714 <USB_ReadInterrupts>
 80074b8:	2800      	cmp	r0, #0
 80074ba:	da13      	bge.n	80074e4 <HAL_PCD_IRQHandler+0x114>
 80074bc:	686b      	ldr	r3, [r5, #4]
 80074be:	f023 0301 	bic.w	r3, r3, #1
 80074c2:	606b      	str	r3, [r5, #4]
 80074c4:	f894 34cc 	ldrb.w	r3, [r4, #1228]	@ 0x4cc
 80074c8:	2b01      	cmp	r3, #1
 80074ca:	f040 8269 	bne.w	80079a0 <HAL_PCD_IRQHandler+0x5d0>
 80074ce:	2100      	movs	r1, #0
 80074d0:	f884 14cc 	strb.w	r1, [r4, #1228]	@ 0x4cc
 80074d4:	4620      	mov	r0, r4
 80074d6:	f000 fae6 	bl	8007aa6 <HAL_PCDEx_LPM_Callback>
 80074da:	6822      	ldr	r2, [r4, #0]
 80074dc:	6953      	ldr	r3, [r2, #20]
 80074de:	f003 4300 	and.w	r3, r3, #2147483648	@ 0x80000000
 80074e2:	6153      	str	r3, [r2, #20]
 80074e4:	6820      	ldr	r0, [r4, #0]
 80074e6:	f002 f915 	bl	8009714 <USB_ReadInterrupts>
 80074ea:	0507      	lsls	r7, r0, #20
 80074ec:	d50a      	bpl.n	8007504 <HAL_PCD_IRQHandler+0x134>
 80074ee:	68ab      	ldr	r3, [r5, #8]
 80074f0:	07d8      	lsls	r0, r3, #31
 80074f2:	d502      	bpl.n	80074fa <HAL_PCD_IRQHandler+0x12a>
 80074f4:	4620      	mov	r0, r4
 80074f6:	f003 f969 	bl	800a7cc <HAL_PCD_SuspendCallback>
 80074fa:	6822      	ldr	r2, [r4, #0]
 80074fc:	6953      	ldr	r3, [r2, #20]
 80074fe:	f403 6300 	and.w	r3, r3, #2048	@ 0x800
 8007502:	6153      	str	r3, [r2, #20]
 8007504:	6820      	ldr	r0, [r4, #0]
 8007506:	f002 f905 	bl	8009714 <USB_ReadInterrupts>
 800750a:	04c1      	lsls	r1, r0, #19
 800750c:	d533      	bpl.n	8007576 <HAL_PCD_IRQHandler+0x1a6>
 800750e:	686b      	ldr	r3, [r5, #4]
 8007510:	6820      	ldr	r0, [r4, #0]
 8007512:	f023 0301 	bic.w	r3, r3, #1
 8007516:	606b      	str	r3, [r5, #4]
 8007518:	2110      	movs	r1, #16
 800751a:	f001 fd5d 	bl	8008fd8 <USB_FlushTxFifo>
 800751e:	7920      	ldrb	r0, [r4, #4]
 8007520:	f506 6310 	add.w	r3, r6, #2304	@ 0x900
 8007524:	f64f 317f 	movw	r1, #64383	@ 0xfb7f
 8007528:	9a03      	ldr	r2, [sp, #12]
 800752a:	4290      	cmp	r0, r2
 800752c:	f200 823c 	bhi.w	80079a8 <HAL_PCD_IRQHandler+0x5d8>
 8007530:	69eb      	ldr	r3, [r5, #28]
 8007532:	f043 1301 	orr.w	r3, r3, #65537	@ 0x10001
 8007536:	61eb      	str	r3, [r5, #28]
 8007538:	7be3      	ldrb	r3, [r4, #15]
 800753a:	2b00      	cmp	r3, #0
 800753c:	f000 8250 	beq.w	80079e0 <HAL_PCD_IRQHandler+0x610>
 8007540:	f8d5 3084 	ldr.w	r3, [r5, #132]	@ 0x84
 8007544:	f043 030b 	orr.w	r3, r3, #11
 8007548:	f8c5 3084 	str.w	r3, [r5, #132]	@ 0x84
 800754c:	6c6b      	ldr	r3, [r5, #68]	@ 0x44
 800754e:	f043 030b 	orr.w	r3, r3, #11
 8007552:	646b      	str	r3, [r5, #68]	@ 0x44
 8007554:	f8d6 3800 	ldr.w	r3, [r6, #2048]	@ 0x800
 8007558:	6820      	ldr	r0, [r4, #0]
 800755a:	f423 63fe 	bic.w	r3, r3, #2032	@ 0x7f0
 800755e:	f8c6 3800 	str.w	r3, [r6, #2048]	@ 0x800
 8007562:	f204 429c 	addw	r2, r4, #1180	@ 0x49c
 8007566:	79a1      	ldrb	r1, [r4, #6]
 8007568:	f002 f914 	bl	8009794 <USB_EP0_OutStart>
 800756c:	6822      	ldr	r2, [r4, #0]
 800756e:	6953      	ldr	r3, [r2, #20]
 8007570:	f403 5380 	and.w	r3, r3, #4096	@ 0x1000
 8007574:	6153      	str	r3, [r2, #20]
 8007576:	6820      	ldr	r0, [r4, #0]
 8007578:	f002 f8cc 	bl	8009714 <USB_ReadInterrupts>
 800757c:	0482      	lsls	r2, r0, #18
 800757e:	d516      	bpl.n	80075ae <HAL_PCD_IRQHandler+0x1de>
 8007580:	6820      	ldr	r0, [r4, #0]
 8007582:	f002 f8f9 	bl	8009778 <USB_ActivateSetup>
 8007586:	6820      	ldr	r0, [r4, #0]
 8007588:	f001 fe2c 	bl	80091e4 <USB_GetDevSpeed>
 800758c:	71e0      	strb	r0, [r4, #7]
 800758e:	6827      	ldr	r7, [r4, #0]
 8007590:	f000 fd00 	bl	8007f94 <HAL_RCC_GetHCLKFreq>
 8007594:	79e2      	ldrb	r2, [r4, #7]
 8007596:	4601      	mov	r1, r0
 8007598:	4638      	mov	r0, r7
 800759a:	f001 fc71 	bl	8008e80 <USB_SetTurnaroundTime>
 800759e:	4620      	mov	r0, r4
 80075a0:	f003 f901 	bl	800a7a6 <HAL_PCD_ResetCallback>
 80075a4:	6822      	ldr	r2, [r4, #0]
 80075a6:	6953      	ldr	r3, [r2, #20]
 80075a8:	f403 5300 	and.w	r3, r3, #8192	@ 0x2000
 80075ac:	6153      	str	r3, [r2, #20]
 80075ae:	6820      	ldr	r0, [r4, #0]
 80075b0:	f002 f8b0 	bl	8009714 <USB_ReadInterrupts>
 80075b4:	0703      	lsls	r3, r0, #28
 80075b6:	d507      	bpl.n	80075c8 <HAL_PCD_IRQHandler+0x1f8>
 80075b8:	4620      	mov	r0, r4
 80075ba:	f003 f8f0 	bl	800a79e <HAL_PCD_SOFCallback>
 80075be:	6822      	ldr	r2, [r4, #0]
 80075c0:	6953      	ldr	r3, [r2, #20]
 80075c2:	f003 0308 	and.w	r3, r3, #8
 80075c6:	6153      	str	r3, [r2, #20]
 80075c8:	6820      	ldr	r0, [r4, #0]
 80075ca:	f002 f8a3 	bl	8009714 <USB_ReadInterrupts>
 80075ce:	0607      	lsls	r7, r0, #24
 80075d0:	f100 8211 	bmi.w	80079f6 <HAL_PCD_IRQHandler+0x626>
 80075d4:	6820      	ldr	r0, [r4, #0]
 80075d6:	f002 f89d 	bl	8009714 <USB_ReadInterrupts>
 80075da:	02c0      	lsls	r0, r0, #11
 80075dc:	d50c      	bpl.n	80075f8 <HAL_PCD_IRQHandler+0x228>
 80075de:	46a0      	mov	r8, r4
 80075e0:	f506 6912 	add.w	r9, r6, #2336	@ 0x920
 80075e4:	2701      	movs	r7, #1
 80075e6:	7923      	ldrb	r3, [r4, #4]
 80075e8:	42bb      	cmp	r3, r7
 80075ea:	f200 821d 	bhi.w	8007a28 <HAL_PCD_IRQHandler+0x658>
 80075ee:	6822      	ldr	r2, [r4, #0]
 80075f0:	6953      	ldr	r3, [r2, #20]
 80075f2:	f403 1380 	and.w	r3, r3, #1048576	@ 0x100000
 80075f6:	6153      	str	r3, [r2, #20]
 80075f8:	6820      	ldr	r0, [r4, #0]
 80075fa:	f002 f88b 	bl	8009714 <USB_ReadInterrupts>
 80075fe:	0281      	lsls	r1, r0, #10
 8007600:	d52b      	bpl.n	800765a <HAL_PCD_IRQHandler+0x28a>
 8007602:	f894 e004 	ldrb.w	lr, [r4, #4]
 8007606:	4623      	mov	r3, r4
 8007608:	f506 6132 	add.w	r1, r6, #2848	@ 0xb20
 800760c:	f04f 0c01 	mov.w	ip, #1
 8007610:	45e6      	cmp	lr, ip
 8007612:	d91d      	bls.n	8007650 <HAL_PCD_IRQHandler+0x280>
 8007614:	f893 727c 	ldrb.w	r7, [r3, #636]	@ 0x27c
 8007618:	6808      	ldr	r0, [r1, #0]
 800761a:	2f01      	cmp	r7, #1
 800761c:	f040 821a 	bne.w	8007a54 <HAL_PCD_IRQHandler+0x684>
 8007620:	2800      	cmp	r0, #0
 8007622:	f280 8217 	bge.w	8007a54 <HAL_PCD_IRQHandler+0x684>
 8007626:	f8d4 24d4 	ldr.w	r2, [r4, #1236]	@ 0x4d4
 800762a:	ea82 4010 	eor.w	r0, r2, r0, lsr #16
 800762e:	07c2      	lsls	r2, r0, #31
 8007630:	f100 8210 	bmi.w	8007a54 <HAL_PCD_IRQHandler+0x684>
 8007634:	f883 727b 	strb.w	r7, [r3, #635]	@ 0x27b
 8007638:	69b0      	ldr	r0, [r6, #24]
 800763a:	f040 0080 	orr.w	r0, r0, #128	@ 0x80
 800763e:	61b0      	str	r0, [r6, #24]
 8007640:	6970      	ldr	r0, [r6, #20]
 8007642:	0600      	lsls	r0, r0, #24
 8007644:	f100 8206 	bmi.w	8007a54 <HAL_PCD_IRQHandler+0x684>
 8007648:	686b      	ldr	r3, [r5, #4]
 800764a:	f443 7300 	orr.w	r3, r3, #512	@ 0x200
 800764e:	606b      	str	r3, [r5, #4]
 8007650:	6822      	ldr	r2, [r4, #0]
 8007652:	6953      	ldr	r3, [r2, #20]
 8007654:	f403 1300 	and.w	r3, r3, #2097152	@ 0x200000
 8007658:	6153      	str	r3, [r2, #20]
 800765a:	6820      	ldr	r0, [r4, #0]
 800765c:	f002 f85a 	bl	8009714 <USB_ReadInterrupts>
 8007660:	0041      	lsls	r1, r0, #1
 8007662:	d507      	bpl.n	8007674 <HAL_PCD_IRQHandler+0x2a4>
 8007664:	4620      	mov	r0, r4
 8007666:	f003 f8d5 	bl	800a814 <HAL_PCD_ConnectCallback>
 800766a:	6822      	ldr	r2, [r4, #0]
 800766c:	6953      	ldr	r3, [r2, #20]
 800766e:	f003 4380 	and.w	r3, r3, #1073741824	@ 0x40000000
 8007672:	6153      	str	r3, [r2, #20]
 8007674:	6820      	ldr	r0, [r4, #0]
 8007676:	f002 f84d 	bl	8009714 <USB_ReadInterrupts>
 800767a:	0742      	lsls	r2, r0, #29
 800767c:	d50a      	bpl.n	8007694 <HAL_PCD_IRQHandler+0x2c4>
 800767e:	6823      	ldr	r3, [r4, #0]
 8007680:	685d      	ldr	r5, [r3, #4]
 8007682:	076b      	lsls	r3, r5, #29
 8007684:	d502      	bpl.n	800768c <HAL_PCD_IRQHandler+0x2bc>
 8007686:	4620      	mov	r0, r4
 8007688:	f003 f8c8 	bl	800a81c <HAL_PCD_DisconnectCallback>
 800768c:	6822      	ldr	r2, [r4, #0]
 800768e:	6853      	ldr	r3, [r2, #4]
 8007690:	432b      	orrs	r3, r5
 8007692:	6053      	str	r3, [r2, #4]
 8007694:	b009      	add	sp, #36	@ 0x24
 8007696:	e8bd 8ff0 	ldmia.w	sp!, {r4, r5, r6, r7, r8, r9, sl, fp, pc}
 800769a:	f5b3 2f40 	cmp.w	r3, #786432	@ 0xc0000
 800769e:	f47f aeea 	bne.w	8007476 <HAL_PCD_IRQHandler+0xa6>
 80076a2:	2208      	movs	r2, #8
 80076a4:	f204 419c 	addw	r1, r4, #1180	@ 0x49c
 80076a8:	4630      	mov	r0, r6
 80076aa:	f001 ff93 	bl	80095d4 <USB_ReadPacket>
 80076ae:	2324      	movs	r3, #36	@ 0x24
 80076b0:	fb03 4707 	mla	r7, r3, r7, r4
 80076b4:	f3c8 180a 	ubfx	r8, r8, #4, #11
 80076b8:	f8d7 3268 	ldr.w	r3, [r7, #616]	@ 0x268
 80076bc:	4443      	add	r3, r8
 80076be:	e6d8      	b.n	8007472 <HAL_PCD_IRQHandler+0xa2>
 80076c0:	6820      	ldr	r0, [r4, #0]
 80076c2:	f002 f82b 	bl	800971c <USB_ReadDevAllOutEpInterrupt>
 80076c6:	f506 6830 	add.w	r8, r6, #2816	@ 0xb00
 80076ca:	9004      	str	r0, [sp, #16]
 80076cc:	46a2      	mov	sl, r4
 80076ce:	2700      	movs	r7, #0
 80076d0:	9b04      	ldr	r3, [sp, #16]
 80076d2:	6820      	ldr	r0, [r4, #0]
 80076d4:	2b00      	cmp	r3, #0
 80076d6:	f43f aed9 	beq.w	800748c <HAL_PCD_IRQHandler+0xbc>
 80076da:	9b04      	ldr	r3, [sp, #16]
 80076dc:	07db      	lsls	r3, r3, #31
 80076de:	d578      	bpl.n	80077d2 <HAL_PCD_IRQHandler+0x402>
 80076e0:	fa5f fb87 	uxtb.w	fp, r7
 80076e4:	4659      	mov	r1, fp
 80076e6:	f002 f829 	bl	800973c <USB_ReadDevOutEPInterrupt>
 80076ea:	f010 0f01 	tst.w	r0, #1
 80076ee:	4681      	mov	r9, r0
 80076f0:	d01f      	beq.n	8007732 <HAL_PCD_IRQHandler+0x362>
 80076f2:	6820      	ldr	r0, [r4, #0]
 80076f4:	2301      	movs	r3, #1
 80076f6:	f8c8 3008 	str.w	r3, [r8, #8]
 80076fa:	f894 c006 	ldrb.w	ip, [r4, #6]
 80076fe:	6c01      	ldr	r1, [r0, #64]	@ 0x40
 8007700:	f500 6330 	add.w	r3, r0, #2816	@ 0xb00
 8007704:	eb03 1347 	add.w	r3, r3, r7, lsl #5
 8007708:	f1bc 0f01 	cmp.w	ip, #1
 800770c:	689a      	ldr	r2, [r3, #8]
 800770e:	f040 808b 	bne.w	8007828 <HAL_PCD_IRQHandler+0x458>
 8007712:	f012 0f08 	tst.w	r2, #8
 8007716:	d007      	beq.n	8007728 <HAL_PCD_IRQHandler+0x358>
 8007718:	48af      	ldr	r0, [pc, #700]	@ (80079d8 <HAL_PCD_IRQHandler+0x608>)
 800771a:	4281      	cmp	r1, r0
 800771c:	d909      	bls.n	8007732 <HAL_PCD_IRQHandler+0x362>
 800771e:	0412      	lsls	r2, r2, #16
 8007720:	d507      	bpl.n	8007732 <HAL_PCD_IRQHandler+0x362>
 8007722:	f44f 4200 	mov.w	r2, #32768	@ 0x8000
 8007726:	e003      	b.n	8007730 <HAL_PCD_IRQHandler+0x360>
 8007728:	f012 0f20 	tst.w	r2, #32
 800772c:	d05a      	beq.n	80077e4 <HAL_PCD_IRQHandler+0x414>
 800772e:	2220      	movs	r2, #32
 8007730:	609a      	str	r2, [r3, #8]
 8007732:	f019 0f08 	tst.w	r9, #8
 8007736:	d021      	beq.n	800777c <HAL_PCD_IRQHandler+0x3ac>
 8007738:	2308      	movs	r3, #8
 800773a:	f8c8 3008 	str.w	r3, [r8, #8]
 800773e:	6823      	ldr	r3, [r4, #0]
 8007740:	49a5      	ldr	r1, [pc, #660]	@ (80079d8 <HAL_PCD_IRQHandler+0x608>)
 8007742:	6c1a      	ldr	r2, [r3, #64]	@ 0x40
 8007744:	f503 6330 	add.w	r3, r3, #2816	@ 0xb00
 8007748:	eb03 1347 	add.w	r3, r3, r7, lsl #5
 800774c:	428a      	cmp	r2, r1
 800774e:	6898      	ldr	r0, [r3, #8]
 8007750:	d904      	bls.n	800775c <HAL_PCD_IRQHandler+0x38c>
 8007752:	0401      	lsls	r1, r0, #16
 8007754:	bf44      	itt	mi
 8007756:	f44f 4000 	movmi.w	r0, #32768	@ 0x8000
 800775a:	6098      	strmi	r0, [r3, #8]
 800775c:	4620      	mov	r0, r4
 800775e:	9205      	str	r2, [sp, #20]
 8007760:	f003 f806 	bl	800a770 <HAL_PCD_SetupStageCallback>
 8007764:	9a05      	ldr	r2, [sp, #20]
 8007766:	499c      	ldr	r1, [pc, #624]	@ (80079d8 <HAL_PCD_IRQHandler+0x608>)
 8007768:	428a      	cmp	r2, r1
 800776a:	d907      	bls.n	800777c <HAL_PCD_IRQHandler+0x3ac>
 800776c:	79a1      	ldrb	r1, [r4, #6]
 800776e:	2901      	cmp	r1, #1
 8007770:	d104      	bne.n	800777c <HAL_PCD_IRQHandler+0x3ac>
 8007772:	6820      	ldr	r0, [r4, #0]
 8007774:	f204 429c 	addw	r2, r4, #1180	@ 0x49c
 8007778:	f002 f80c 	bl	8009794 <USB_EP0_OutStart>
 800777c:	f019 0f10 	tst.w	r9, #16
 8007780:	bf1c      	itt	ne
 8007782:	2310      	movne	r3, #16
 8007784:	f8c8 3008 	strne.w	r3, [r8, #8]
 8007788:	f019 0f02 	tst.w	r9, #2
 800778c:	d014      	beq.n	80077b8 <HAL_PCD_IRQHandler+0x3e8>
 800778e:	6973      	ldr	r3, [r6, #20]
 8007790:	061a      	lsls	r2, r3, #24
 8007792:	bf42      	ittt	mi
 8007794:	686b      	ldrmi	r3, [r5, #4]
 8007796:	f443 6380 	orrmi.w	r3, r3, #1024	@ 0x400
 800779a:	606b      	strmi	r3, [r5, #4]
 800779c:	f89a 3257 	ldrb.w	r3, [sl, #599]	@ 0x257
 80077a0:	2b01      	cmp	r3, #1
 80077a2:	d106      	bne.n	80077b2 <HAL_PCD_IRQHandler+0x3e2>
 80077a4:	2300      	movs	r3, #0
 80077a6:	f88a 3257 	strb.w	r3, [sl, #599]	@ 0x257
 80077aa:	4659      	mov	r1, fp
 80077ac:	4620      	mov	r0, r4
 80077ae:	f003 f829 	bl	800a804 <HAL_PCD_ISOOUTIncompleteCallback>
 80077b2:	2302      	movs	r3, #2
 80077b4:	f8c8 3008 	str.w	r3, [r8, #8]
 80077b8:	f019 0f20 	tst.w	r9, #32
 80077bc:	bf1c      	itt	ne
 80077be:	2320      	movne	r3, #32
 80077c0:	f8c8 3008 	strne.w	r3, [r8, #8]
 80077c4:	f419 5f00 	tst.w	r9, #8192	@ 0x2000
 80077c8:	bf1c      	itt	ne
 80077ca:	f44f 5300 	movne.w	r3, #8192	@ 0x2000
 80077ce:	f8c8 3008 	strne.w	r3, [r8, #8]
 80077d2:	9b04      	ldr	r3, [sp, #16]
 80077d4:	085b      	lsrs	r3, r3, #1
 80077d6:	3701      	adds	r7, #1
 80077d8:	9304      	str	r3, [sp, #16]
 80077da:	f108 0820 	add.w	r8, r8, #32
 80077de:	f10a 0a24 	add.w	sl, sl, #36	@ 0x24
 80077e2:	e775      	b.n	80076d0 <HAL_PCD_IRQHandler+0x300>
 80077e4:	f8df c1f0 	ldr.w	ip, [pc, #496]	@ 80079d8 <HAL_PCD_IRQHandler+0x608>
 80077e8:	4561      	cmp	r1, ip
 80077ea:	d901      	bls.n	80077f0 <HAL_PCD_IRQHandler+0x420>
 80077ec:	0412      	lsls	r2, r2, #16
 80077ee:	d498      	bmi.n	8007722 <HAL_PCD_IRQHandler+0x352>
 80077f0:	691a      	ldr	r2, [r3, #16]
 80077f2:	f8da 3274 	ldr.w	r3, [sl, #628]	@ 0x274
 80077f6:	f3c2 0212 	ubfx	r2, r2, #0, #19
 80077fa:	1a9b      	subs	r3, r3, r2
 80077fc:	f8ca 3268 	str.w	r3, [sl, #616]	@ 0x268
 8007800:	b96f      	cbnz	r7, 800781e <HAL_PCD_IRQHandler+0x44e>
 8007802:	f8d4 2264 	ldr.w	r2, [r4, #612]	@ 0x264
 8007806:	b92a      	cbnz	r2, 8007814 <HAL_PCD_IRQHandler+0x444>
 8007808:	f204 429c 	addw	r2, r4, #1180	@ 0x49c
 800780c:	2101      	movs	r1, #1
 800780e:	f001 ffc1 	bl	8009794 <USB_EP0_OutStart>
 8007812:	e004      	b.n	800781e <HAL_PCD_IRQHandler+0x44e>
 8007814:	f8d4 2260 	ldr.w	r2, [r4, #608]	@ 0x260
 8007818:	441a      	add	r2, r3
 800781a:	f8c4 2260 	str.w	r2, [r4, #608]	@ 0x260
 800781e:	4659      	mov	r1, fp
 8007820:	4620      	mov	r0, r4
 8007822:	f002 ffab 	bl	800a77c <HAL_PCD_DataOutStageCallback>
 8007826:	e784      	b.n	8007732 <HAL_PCD_IRQHandler+0x362>
 8007828:	f8df c1b0 	ldr.w	ip, [pc, #432]	@ 80079dc <HAL_PCD_IRQHandler+0x60c>
 800782c:	4561      	cmp	r1, ip
 800782e:	d107      	bne.n	8007840 <HAL_PCD_IRQHandler+0x470>
 8007830:	0411      	lsls	r1, r2, #16
 8007832:	f53f af76 	bmi.w	8007722 <HAL_PCD_IRQHandler+0x352>
 8007836:	0690      	lsls	r0, r2, #26
 8007838:	d5f1      	bpl.n	800781e <HAL_PCD_IRQHandler+0x44e>
 800783a:	2220      	movs	r2, #32
 800783c:	609a      	str	r2, [r3, #8]
 800783e:	e7ee      	b.n	800781e <HAL_PCD_IRQHandler+0x44e>
 8007840:	2f00      	cmp	r7, #0
 8007842:	d1ec      	bne.n	800781e <HAL_PCD_IRQHandler+0x44e>
 8007844:	f8d4 3264 	ldr.w	r3, [r4, #612]	@ 0x264
 8007848:	2b00      	cmp	r3, #0
 800784a:	d1e8      	bne.n	800781e <HAL_PCD_IRQHandler+0x44e>
 800784c:	f204 429c 	addw	r2, r4, #1180	@ 0x49c
 8007850:	4639      	mov	r1, r7
 8007852:	e7dc      	b.n	800780e <HAL_PCD_IRQHandler+0x43e>
 8007854:	9b04      	ldr	r3, [sp, #16]
 8007856:	07db      	lsls	r3, r3, #31
 8007858:	f140 8099 	bpl.w	800798e <HAL_PCD_IRQHandler+0x5be>
 800785c:	fa5f f38a 	uxtb.w	r3, sl
 8007860:	4619      	mov	r1, r3
 8007862:	9305      	str	r3, [sp, #20]
 8007864:	f001 ff73 	bl	800974e <USB_ReadDevInEPInterrupt>
 8007868:	f010 0f01 	tst.w	r0, #1
 800786c:	4680      	mov	r8, r0
 800786e:	d01f      	beq.n	80078b0 <HAL_PCD_IRQHandler+0x4e0>
 8007870:	6b6b      	ldr	r3, [r5, #52]	@ 0x34
 8007872:	2101      	movs	r1, #1
 8007874:	f00a 020f 	and.w	r2, sl, #15
 8007878:	fa01 f202 	lsl.w	r2, r1, r2
 800787c:	ea23 0302 	bic.w	r3, r3, r2
 8007880:	636b      	str	r3, [r5, #52]	@ 0x34
 8007882:	f8cb 1008 	str.w	r1, [fp, #8]
 8007886:	79a1      	ldrb	r1, [r4, #6]
 8007888:	2901      	cmp	r1, #1
 800788a:	d10d      	bne.n	80078a8 <HAL_PCD_IRQHandler+0x4d8>
 800788c:	e9d7 2307 	ldrd	r2, r3, [r7, #28]
 8007890:	4413      	add	r3, r2
 8007892:	623b      	str	r3, [r7, #32]
 8007894:	f1ba 0f00 	cmp.w	sl, #0
 8007898:	d106      	bne.n	80078a8 <HAL_PCD_IRQHandler+0x4d8>
 800789a:	6a63      	ldr	r3, [r4, #36]	@ 0x24
 800789c:	b923      	cbnz	r3, 80078a8 <HAL_PCD_IRQHandler+0x4d8>
 800789e:	6820      	ldr	r0, [r4, #0]
 80078a0:	f204 429c 	addw	r2, r4, #1180	@ 0x49c
 80078a4:	f001 ff76 	bl	8009794 <USB_EP0_OutStart>
 80078a8:	9905      	ldr	r1, [sp, #20]
 80078aa:	4620      	mov	r0, r4
 80078ac:	f002 ff6f 	bl	800a78e <HAL_PCD_DataInStageCallback>
 80078b0:	f018 0f08 	tst.w	r8, #8
 80078b4:	bf1c      	itt	ne
 80078b6:	2308      	movne	r3, #8
 80078b8:	f8cb 3008 	strne.w	r3, [fp, #8]
 80078bc:	f018 0f10 	tst.w	r8, #16
 80078c0:	bf1c      	itt	ne
 80078c2:	2310      	movne	r3, #16
 80078c4:	f8cb 3008 	strne.w	r3, [fp, #8]
 80078c8:	f018 0f40 	tst.w	r8, #64	@ 0x40
 80078cc:	bf1c      	itt	ne
 80078ce:	2340      	movne	r3, #64	@ 0x40
 80078d0:	f8cb 3008 	strne.w	r3, [fp, #8]
 80078d4:	f018 0f02 	tst.w	r8, #2
 80078d8:	d00f      	beq.n	80078fa <HAL_PCD_IRQHandler+0x52a>
 80078da:	4651      	mov	r1, sl
 80078dc:	4630      	mov	r0, r6
 80078de:	f001 fb7b 	bl	8008fd8 <USB_FlushTxFifo>
 80078e2:	7dfb      	ldrb	r3, [r7, #23]
 80078e4:	2b01      	cmp	r3, #1
 80078e6:	d105      	bne.n	80078f4 <HAL_PCD_IRQHandler+0x524>
 80078e8:	2300      	movs	r3, #0
 80078ea:	9905      	ldr	r1, [sp, #20]
 80078ec:	75fb      	strb	r3, [r7, #23]
 80078ee:	4620      	mov	r0, r4
 80078f0:	f002 ff8c 	bl	800a80c <HAL_PCD_ISOINIncompleteCallback>
 80078f4:	2302      	movs	r3, #2
 80078f6:	f8cb 3008 	str.w	r3, [fp, #8]
 80078fa:	6823      	ldr	r3, [r4, #0]
 80078fc:	9306      	str	r3, [sp, #24]
 80078fe:	f018 0f80 	tst.w	r8, #128	@ 0x80
 8007902:	d044      	beq.n	800798e <HAL_PCD_IRQHandler+0x5be>
 8007904:	e9d7 3209 	ldrd	r3, r2, [r7, #36]	@ 0x24
 8007908:	429a      	cmp	r2, r3
 800790a:	d840      	bhi.n	800798e <HAL_PCD_IRQHandler+0x5be>
 800790c:	eba3 0802 	sub.w	r8, r3, r2
 8007910:	69fb      	ldr	r3, [r7, #28]
 8007912:	4598      	cmp	r8, r3
 8007914:	bf28      	it	cs
 8007916:	4698      	movcs	r8, r3
 8007918:	9b06      	ldr	r3, [sp, #24]
 800791a:	f503 6310 	add.w	r3, r3, #2304	@ 0x900
 800791e:	f108 0803 	add.w	r8, r8, #3
 8007922:	eb03 134a 	add.w	r3, r3, sl, lsl #5
 8007926:	ea4f 0898 	mov.w	r8, r8, lsr #2
 800792a:	9307      	str	r3, [sp, #28]
 800792c:	9b07      	ldr	r3, [sp, #28]
 800792e:	6999      	ldr	r1, [r3, #24]
 8007930:	b289      	uxth	r1, r1
 8007932:	4541      	cmp	r1, r8
 8007934:	e9d7 3209 	ldrd	r3, r2, [r7, #36]	@ 0x24
 8007938:	d327      	bcc.n	800798a <HAL_PCD_IRQHandler+0x5ba>
 800793a:	4293      	cmp	r3, r2
 800793c:	d80b      	bhi.n	8007956 <HAL_PCD_IRQHandler+0x586>
 800793e:	9b06      	ldr	r3, [sp, #24]
 8007940:	f00a 000f 	and.w	r0, sl, #15
 8007944:	f8d3 2834 	ldr.w	r2, [r3, #2100]	@ 0x834
 8007948:	2101      	movs	r1, #1
 800794a:	4081      	lsls	r1, r0
 800794c:	ea22 0201 	bic.w	r2, r2, r1
 8007950:	f8c3 2834 	str.w	r2, [r3, #2100]	@ 0x834
 8007954:	e01b      	b.n	800798e <HAL_PCD_IRQHandler+0x5be>
 8007956:	eba3 0902 	sub.w	r9, r3, r2
 800795a:	69fb      	ldr	r3, [r7, #28]
 800795c:	9a05      	ldr	r2, [sp, #20]
 800795e:	9806      	ldr	r0, [sp, #24]
 8007960:	4599      	cmp	r9, r3
 8007962:	bf28      	it	cs
 8007964:	4699      	movcs	r9, r3
 8007966:	79a3      	ldrb	r3, [r4, #6]
 8007968:	9300      	str	r3, [sp, #0]
 800796a:	6a39      	ldr	r1, [r7, #32]
 800796c:	fa1f f389 	uxth.w	r3, r9
 8007970:	f001 fd1a 	bl	80093a8 <USB_WritePacket>
 8007974:	6a3b      	ldr	r3, [r7, #32]
 8007976:	444b      	add	r3, r9
 8007978:	623b      	str	r3, [r7, #32]
 800797a:	6abb      	ldr	r3, [r7, #40]	@ 0x28
 800797c:	f109 0803 	add.w	r8, r9, #3
 8007980:	444b      	add	r3, r9
 8007982:	ea4f 0898 	mov.w	r8, r8, lsr #2
 8007986:	62bb      	str	r3, [r7, #40]	@ 0x28
 8007988:	e7d0      	b.n	800792c <HAL_PCD_IRQHandler+0x55c>
 800798a:	4293      	cmp	r3, r2
 800798c:	d9d7      	bls.n	800793e <HAL_PCD_IRQHandler+0x56e>
 800798e:	9b04      	ldr	r3, [sp, #16]
 8007990:	085b      	lsrs	r3, r3, #1
 8007992:	f10a 0a01 	add.w	sl, sl, #1
 8007996:	9304      	str	r3, [sp, #16]
 8007998:	3724      	adds	r7, #36	@ 0x24
 800799a:	f10b 0b20 	add.w	fp, fp, #32
 800799e:	e583      	b.n	80074a8 <HAL_PCD_IRQHandler+0xd8>
 80079a0:	4620      	mov	r0, r4
 80079a2:	f002 ff2b 	bl	800a7fc <HAL_PCD_ResumeCallback>
 80079a6:	e598      	b.n	80074da <HAL_PCD_IRQHandler+0x10a>
 80079a8:	6099      	str	r1, [r3, #8]
 80079aa:	681a      	ldr	r2, [r3, #0]
 80079ac:	f422 1200 	bic.w	r2, r2, #2097152	@ 0x200000
 80079b0:	601a      	str	r2, [r3, #0]
 80079b2:	f8c3 1208 	str.w	r1, [r3, #520]	@ 0x208
 80079b6:	f8d3 2200 	ldr.w	r2, [r3, #512]	@ 0x200
 80079ba:	f422 1200 	bic.w	r2, r2, #2097152	@ 0x200000
 80079be:	f8c3 2200 	str.w	r2, [r3, #512]	@ 0x200
 80079c2:	f8d3 2200 	ldr.w	r2, [r3, #512]	@ 0x200
 80079c6:	f042 6200 	orr.w	r2, r2, #134217728	@ 0x8000000
 80079ca:	f8c3 2200 	str.w	r2, [r3, #512]	@ 0x200
 80079ce:	9a03      	ldr	r2, [sp, #12]
 80079d0:	3201      	adds	r2, #1
 80079d2:	9203      	str	r2, [sp, #12]
 80079d4:	3320      	adds	r3, #32
 80079d6:	e5a7      	b.n	8007528 <HAL_PCD_IRQHandler+0x158>
 80079d8:	4f54300a 	.word	0x4f54300a
 80079dc:	4f54310a 	.word	0x4f54310a
 80079e0:	696b      	ldr	r3, [r5, #20]
 80079e2:	f443 5300 	orr.w	r3, r3, #8192	@ 0x2000
 80079e6:	f043 032b 	orr.w	r3, r3, #43	@ 0x2b
 80079ea:	616b      	str	r3, [r5, #20]
 80079ec:	692b      	ldr	r3, [r5, #16]
 80079ee:	f043 030b 	orr.w	r3, r3, #11
 80079f2:	612b      	str	r3, [r5, #16]
 80079f4:	e5ae      	b.n	8007554 <HAL_PCD_IRQHandler+0x184>
 80079f6:	69b3      	ldr	r3, [r6, #24]
 80079f8:	f023 0380 	bic.w	r3, r3, #128	@ 0x80
 80079fc:	61b3      	str	r3, [r6, #24]
 80079fe:	2701      	movs	r7, #1
 8007a00:	f204 2857 	addw	r8, r4, #599	@ 0x257
 8007a04:	f04f 0924 	mov.w	r9, #36	@ 0x24
 8007a08:	7923      	ldrb	r3, [r4, #4]
 8007a0a:	42bb      	cmp	r3, r7
 8007a0c:	f67f ade2 	bls.w	80075d4 <HAL_PCD_IRQHandler+0x204>
 8007a10:	fb09 f307 	mul.w	r3, r9, r7
 8007a14:	f818 3003 	ldrb.w	r3, [r8, r3]
 8007a18:	2b01      	cmp	r3, #1
 8007a1a:	d103      	bne.n	8007a24 <HAL_PCD_IRQHandler+0x654>
 8007a1c:	b2f9      	uxtb	r1, r7
 8007a1e:	4620      	mov	r0, r4
 8007a20:	f7ff fcc5 	bl	80073ae <HAL_PCD_EP_Abort>
 8007a24:	3701      	adds	r7, #1
 8007a26:	e7ef      	b.n	8007a08 <HAL_PCD_IRQHandler+0x638>
 8007a28:	f898 303c 	ldrb.w	r3, [r8, #60]	@ 0x3c
 8007a2c:	f8d9 2000 	ldr.w	r2, [r9]
 8007a30:	2b01      	cmp	r3, #1
 8007a32:	d109      	bne.n	8007a48 <HAL_PCD_IRQHandler+0x678>
 8007a34:	2a00      	cmp	r2, #0
 8007a36:	da07      	bge.n	8007a48 <HAL_PCD_IRQHandler+0x678>
 8007a38:	f067 017f 	orn	r1, r7, #127	@ 0x7f
 8007a3c:	f888 303b 	strb.w	r3, [r8, #59]	@ 0x3b
 8007a40:	b2c9      	uxtb	r1, r1
 8007a42:	4620      	mov	r0, r4
 8007a44:	f7ff fcb3 	bl	80073ae <HAL_PCD_EP_Abort>
 8007a48:	3701      	adds	r7, #1
 8007a4a:	f108 0824 	add.w	r8, r8, #36	@ 0x24
 8007a4e:	f109 0920 	add.w	r9, r9, #32
 8007a52:	e5c8      	b.n	80075e6 <HAL_PCD_IRQHandler+0x216>
 8007a54:	f10c 0c01 	add.w	ip, ip, #1
 8007a58:	3324      	adds	r3, #36	@ 0x24
 8007a5a:	3120      	adds	r1, #32
 8007a5c:	e5d8      	b.n	8007610 <HAL_PCD_IRQHandler+0x240>
 8007a5e:	bf00      	nop

08007a60 <HAL_PCDEx_SetTxFiFo>:
 8007a60:	6800      	ldr	r0, [r0, #0]
 8007a62:	b570      	push	{r4, r5, r6, lr}
 8007a64:	6a43      	ldr	r3, [r0, #36]	@ 0x24
 8007a66:	0412      	lsls	r2, r2, #16
 8007a68:	b919      	cbnz	r1, 8007a72 <HAL_PCDEx_SetTxFiFo+0x12>
 8007a6a:	4313      	orrs	r3, r2
 8007a6c:	6283      	str	r3, [r0, #40]	@ 0x28
 8007a6e:	2000      	movs	r0, #0
 8007a70:	bd70      	pop	{r4, r5, r6, pc}
 8007a72:	6a84      	ldr	r4, [r0, #40]	@ 0x28
 8007a74:	1e4e      	subs	r6, r1, #1
 8007a76:	eb03 4314 	add.w	r3, r3, r4, lsr #16
 8007a7a:	2400      	movs	r4, #0
 8007a7c:	42b4      	cmp	r4, r6
 8007a7e:	d305      	bcc.n	8007a8c <HAL_PCDEx_SetTxFiFo+0x2c>
 8007a80:	313f      	adds	r1, #63	@ 0x3f
 8007a82:	eb00 0081 	add.w	r0, r0, r1, lsl #2
 8007a86:	4313      	orrs	r3, r2
 8007a88:	6043      	str	r3, [r0, #4]
 8007a8a:	e7f0      	b.n	8007a6e <HAL_PCDEx_SetTxFiFo+0xe>
 8007a8c:	f104 0540 	add.w	r5, r4, #64	@ 0x40
 8007a90:	eb00 0585 	add.w	r5, r0, r5, lsl #2
 8007a94:	3401      	adds	r4, #1
 8007a96:	686d      	ldr	r5, [r5, #4]
 8007a98:	eb03 4315 	add.w	r3, r3, r5, lsr #16
 8007a9c:	e7ee      	b.n	8007a7c <HAL_PCDEx_SetTxFiFo+0x1c>

08007a9e <HAL_PCDEx_SetRxFiFo>:
 8007a9e:	6803      	ldr	r3, [r0, #0]
 8007aa0:	2000      	movs	r0, #0
 8007aa2:	6259      	str	r1, [r3, #36]	@ 0x24
 8007aa4:	4770      	bx	lr

08007aa6 <HAL_PCDEx_LPM_Callback>:
 8007aa6:	4770      	bx	lr

08007aa8 <HAL_RCC_OscConfig>:
 8007aa8:	e92d 41f3 	stmdb	sp!, {r0, r1, r4, r5, r6, r7, r8, lr}
 8007aac:	4604      	mov	r4, r0
 8007aae:	b340      	cbz	r0, 8007b02 <HAL_RCC_OscConfig+0x5a>
 8007ab0:	6803      	ldr	r3, [r0, #0]
 8007ab2:	07de      	lsls	r6, r3, #31
 8007ab4:	d410      	bmi.n	8007ad8 <HAL_RCC_OscConfig+0x30>
 8007ab6:	6823      	ldr	r3, [r4, #0]
 8007ab8:	079d      	lsls	r5, r3, #30
 8007aba:	d45b      	bmi.n	8007b74 <HAL_RCC_OscConfig+0xcc>
 8007abc:	6823      	ldr	r3, [r4, #0]
 8007abe:	0719      	lsls	r1, r3, #28
 8007ac0:	f100 809d 	bmi.w	8007bfe <HAL_RCC_OscConfig+0x156>
 8007ac4:	6823      	ldr	r3, [r4, #0]
 8007ac6:	075a      	lsls	r2, r3, #29
 8007ac8:	f100 80bd 	bmi.w	8007c46 <HAL_RCC_OscConfig+0x19e>
 8007acc:	69a3      	ldr	r3, [r4, #24]
 8007ace:	2b00      	cmp	r3, #0
 8007ad0:	f040 8124 	bne.w	8007d1c <HAL_RCC_OscConfig+0x274>
 8007ad4:	2000      	movs	r0, #0
 8007ad6:	e02c      	b.n	8007b32 <HAL_RCC_OscConfig+0x8a>
 8007ad8:	4b8d      	ldr	r3, [pc, #564]	@ (8007d10 <HAL_RCC_OscConfig+0x268>)
 8007ada:	689a      	ldr	r2, [r3, #8]
 8007adc:	f002 020c 	and.w	r2, r2, #12
 8007ae0:	2a04      	cmp	r2, #4
 8007ae2:	d007      	beq.n	8007af4 <HAL_RCC_OscConfig+0x4c>
 8007ae4:	689a      	ldr	r2, [r3, #8]
 8007ae6:	f002 020c 	and.w	r2, r2, #12
 8007aea:	2a08      	cmp	r2, #8
 8007aec:	d10b      	bne.n	8007b06 <HAL_RCC_OscConfig+0x5e>
 8007aee:	685b      	ldr	r3, [r3, #4]
 8007af0:	0259      	lsls	r1, r3, #9
 8007af2:	d508      	bpl.n	8007b06 <HAL_RCC_OscConfig+0x5e>
 8007af4:	4b86      	ldr	r3, [pc, #536]	@ (8007d10 <HAL_RCC_OscConfig+0x268>)
 8007af6:	681b      	ldr	r3, [r3, #0]
 8007af8:	039a      	lsls	r2, r3, #14
 8007afa:	d5dc      	bpl.n	8007ab6 <HAL_RCC_OscConfig+0xe>
 8007afc:	6863      	ldr	r3, [r4, #4]
 8007afe:	2b00      	cmp	r3, #0
 8007b00:	d1d9      	bne.n	8007ab6 <HAL_RCC_OscConfig+0xe>
 8007b02:	2001      	movs	r0, #1
 8007b04:	e015      	b.n	8007b32 <HAL_RCC_OscConfig+0x8a>
 8007b06:	6863      	ldr	r3, [r4, #4]
 8007b08:	4d81      	ldr	r5, [pc, #516]	@ (8007d10 <HAL_RCC_OscConfig+0x268>)
 8007b0a:	f5b3 3f80 	cmp.w	r3, #65536	@ 0x10000
 8007b0e:	d113      	bne.n	8007b38 <HAL_RCC_OscConfig+0x90>
 8007b10:	682b      	ldr	r3, [r5, #0]
 8007b12:	f443 3380 	orr.w	r3, r3, #65536	@ 0x10000
 8007b16:	602b      	str	r3, [r5, #0]
 8007b18:	f7fc ff04 	bl	8004924 <HAL_GetTick>
 8007b1c:	4e7c      	ldr	r6, [pc, #496]	@ (8007d10 <HAL_RCC_OscConfig+0x268>)
 8007b1e:	4605      	mov	r5, r0
 8007b20:	6833      	ldr	r3, [r6, #0]
 8007b22:	039b      	lsls	r3, r3, #14
 8007b24:	d4c7      	bmi.n	8007ab6 <HAL_RCC_OscConfig+0xe>
 8007b26:	f7fc fefd 	bl	8004924 <HAL_GetTick>
 8007b2a:	1b40      	subs	r0, r0, r5
 8007b2c:	2864      	cmp	r0, #100	@ 0x64
 8007b2e:	d9f7      	bls.n	8007b20 <HAL_RCC_OscConfig+0x78>
 8007b30:	2003      	movs	r0, #3
 8007b32:	b002      	add	sp, #8
 8007b34:	e8bd 81f0 	ldmia.w	sp!, {r4, r5, r6, r7, r8, pc}
 8007b38:	f5b3 2fa0 	cmp.w	r3, #327680	@ 0x50000
 8007b3c:	d104      	bne.n	8007b48 <HAL_RCC_OscConfig+0xa0>
 8007b3e:	682b      	ldr	r3, [r5, #0]
 8007b40:	f443 2380 	orr.w	r3, r3, #262144	@ 0x40000
 8007b44:	602b      	str	r3, [r5, #0]
 8007b46:	e7e3      	b.n	8007b10 <HAL_RCC_OscConfig+0x68>
 8007b48:	682a      	ldr	r2, [r5, #0]
 8007b4a:	f422 3280 	bic.w	r2, r2, #65536	@ 0x10000
 8007b4e:	602a      	str	r2, [r5, #0]
 8007b50:	682a      	ldr	r2, [r5, #0]
 8007b52:	f422 2280 	bic.w	r2, r2, #262144	@ 0x40000
 8007b56:	602a      	str	r2, [r5, #0]
 8007b58:	2b00      	cmp	r3, #0
 8007b5a:	d1dd      	bne.n	8007b18 <HAL_RCC_OscConfig+0x70>
 8007b5c:	f7fc fee2 	bl	8004924 <HAL_GetTick>
 8007b60:	4606      	mov	r6, r0
 8007b62:	682b      	ldr	r3, [r5, #0]
 8007b64:	039f      	lsls	r7, r3, #14
 8007b66:	d5a6      	bpl.n	8007ab6 <HAL_RCC_OscConfig+0xe>
 8007b68:	f7fc fedc 	bl	8004924 <HAL_GetTick>
 8007b6c:	1b80      	subs	r0, r0, r6
 8007b6e:	2864      	cmp	r0, #100	@ 0x64
 8007b70:	d9f7      	bls.n	8007b62 <HAL_RCC_OscConfig+0xba>
 8007b72:	e7dd      	b.n	8007b30 <HAL_RCC_OscConfig+0x88>
 8007b74:	4b66      	ldr	r3, [pc, #408]	@ (8007d10 <HAL_RCC_OscConfig+0x268>)
 8007b76:	689a      	ldr	r2, [r3, #8]
 8007b78:	f012 0f0c 	tst.w	r2, #12
 8007b7c:	d007      	beq.n	8007b8e <HAL_RCC_OscConfig+0xe6>
 8007b7e:	689a      	ldr	r2, [r3, #8]
 8007b80:	f002 020c 	and.w	r2, r2, #12
 8007b84:	2a08      	cmp	r2, #8
 8007b86:	d111      	bne.n	8007bac <HAL_RCC_OscConfig+0x104>
 8007b88:	685b      	ldr	r3, [r3, #4]
 8007b8a:	025d      	lsls	r5, r3, #9
 8007b8c:	d40e      	bmi.n	8007bac <HAL_RCC_OscConfig+0x104>
 8007b8e:	4a60      	ldr	r2, [pc, #384]	@ (8007d10 <HAL_RCC_OscConfig+0x268>)
 8007b90:	6813      	ldr	r3, [r2, #0]
 8007b92:	0799      	lsls	r1, r3, #30
 8007b94:	d502      	bpl.n	8007b9c <HAL_RCC_OscConfig+0xf4>
 8007b96:	68e3      	ldr	r3, [r4, #12]
 8007b98:	2b01      	cmp	r3, #1
 8007b9a:	d1b2      	bne.n	8007b02 <HAL_RCC_OscConfig+0x5a>
 8007b9c:	6813      	ldr	r3, [r2, #0]
 8007b9e:	6921      	ldr	r1, [r4, #16]
 8007ba0:	f023 03f8 	bic.w	r3, r3, #248	@ 0xf8
 8007ba4:	ea43 03c1 	orr.w	r3, r3, r1, lsl #3
 8007ba8:	6013      	str	r3, [r2, #0]
 8007baa:	e787      	b.n	8007abc <HAL_RCC_OscConfig+0x14>
 8007bac:	68e2      	ldr	r2, [r4, #12]
 8007bae:	4b59      	ldr	r3, [pc, #356]	@ (8007d14 <HAL_RCC_OscConfig+0x26c>)
 8007bb0:	b1b2      	cbz	r2, 8007be0 <HAL_RCC_OscConfig+0x138>
 8007bb2:	2201      	movs	r2, #1
 8007bb4:	601a      	str	r2, [r3, #0]
 8007bb6:	f7fc feb5 	bl	8004924 <HAL_GetTick>
 8007bba:	4d55      	ldr	r5, [pc, #340]	@ (8007d10 <HAL_RCC_OscConfig+0x268>)
 8007bbc:	4606      	mov	r6, r0
 8007bbe:	682b      	ldr	r3, [r5, #0]
 8007bc0:	079b      	lsls	r3, r3, #30
 8007bc2:	d507      	bpl.n	8007bd4 <HAL_RCC_OscConfig+0x12c>
 8007bc4:	682b      	ldr	r3, [r5, #0]
 8007bc6:	6922      	ldr	r2, [r4, #16]
 8007bc8:	f023 03f8 	bic.w	r3, r3, #248	@ 0xf8
 8007bcc:	ea43 03c2 	orr.w	r3, r3, r2, lsl #3
 8007bd0:	602b      	str	r3, [r5, #0]
 8007bd2:	e773      	b.n	8007abc <HAL_RCC_OscConfig+0x14>
 8007bd4:	f7fc fea6 	bl	8004924 <HAL_GetTick>
 8007bd8:	1b80      	subs	r0, r0, r6
 8007bda:	2802      	cmp	r0, #2
 8007bdc:	d9ef      	bls.n	8007bbe <HAL_RCC_OscConfig+0x116>
 8007bde:	e7a7      	b.n	8007b30 <HAL_RCC_OscConfig+0x88>
 8007be0:	601a      	str	r2, [r3, #0]
 8007be2:	f7fc fe9f 	bl	8004924 <HAL_GetTick>
 8007be6:	4e4a      	ldr	r6, [pc, #296]	@ (8007d10 <HAL_RCC_OscConfig+0x268>)
 8007be8:	4605      	mov	r5, r0
 8007bea:	6833      	ldr	r3, [r6, #0]
 8007bec:	079f      	lsls	r7, r3, #30
 8007bee:	f57f af65 	bpl.w	8007abc <HAL_RCC_OscConfig+0x14>
 8007bf2:	f7fc fe97 	bl	8004924 <HAL_GetTick>
 8007bf6:	1b40      	subs	r0, r0, r5
 8007bf8:	2802      	cmp	r0, #2
 8007bfa:	d9f6      	bls.n	8007bea <HAL_RCC_OscConfig+0x142>
 8007bfc:	e798      	b.n	8007b30 <HAL_RCC_OscConfig+0x88>
 8007bfe:	6962      	ldr	r2, [r4, #20]
 8007c00:	4b44      	ldr	r3, [pc, #272]	@ (8007d14 <HAL_RCC_OscConfig+0x26c>)
 8007c02:	b182      	cbz	r2, 8007c26 <HAL_RCC_OscConfig+0x17e>
 8007c04:	2201      	movs	r2, #1
 8007c06:	f8c3 2e80 	str.w	r2, [r3, #3712]	@ 0xe80
 8007c0a:	f7fc fe8b 	bl	8004924 <HAL_GetTick>
 8007c0e:	4e40      	ldr	r6, [pc, #256]	@ (8007d10 <HAL_RCC_OscConfig+0x268>)
 8007c10:	4605      	mov	r5, r0
 8007c12:	6f73      	ldr	r3, [r6, #116]	@ 0x74
 8007c14:	079b      	lsls	r3, r3, #30
 8007c16:	f53f af55 	bmi.w	8007ac4 <HAL_RCC_OscConfig+0x1c>
 8007c1a:	f7fc fe83 	bl	8004924 <HAL_GetTick>
 8007c1e:	1b40      	subs	r0, r0, r5
 8007c20:	2802      	cmp	r0, #2
 8007c22:	d9f6      	bls.n	8007c12 <HAL_RCC_OscConfig+0x16a>
 8007c24:	e784      	b.n	8007b30 <HAL_RCC_OscConfig+0x88>
 8007c26:	f8c3 2e80 	str.w	r2, [r3, #3712]	@ 0xe80
 8007c2a:	f7fc fe7b 	bl	8004924 <HAL_GetTick>
 8007c2e:	4e38      	ldr	r6, [pc, #224]	@ (8007d10 <HAL_RCC_OscConfig+0x268>)
 8007c30:	4605      	mov	r5, r0
 8007c32:	6f73      	ldr	r3, [r6, #116]	@ 0x74
 8007c34:	079f      	lsls	r7, r3, #30
 8007c36:	f57f af45 	bpl.w	8007ac4 <HAL_RCC_OscConfig+0x1c>
 8007c3a:	f7fc fe73 	bl	8004924 <HAL_GetTick>
 8007c3e:	1b40      	subs	r0, r0, r5
 8007c40:	2802      	cmp	r0, #2
 8007c42:	d9f6      	bls.n	8007c32 <HAL_RCC_OscConfig+0x18a>
 8007c44:	e774      	b.n	8007b30 <HAL_RCC_OscConfig+0x88>
 8007c46:	4b32      	ldr	r3, [pc, #200]	@ (8007d10 <HAL_RCC_OscConfig+0x268>)
 8007c48:	6c1a      	ldr	r2, [r3, #64]	@ 0x40
 8007c4a:	f012 5280 	ands.w	r2, r2, #268435456	@ 0x10000000
 8007c4e:	d128      	bne.n	8007ca2 <HAL_RCC_OscConfig+0x1fa>
 8007c50:	9201      	str	r2, [sp, #4]
 8007c52:	6c1a      	ldr	r2, [r3, #64]	@ 0x40
 8007c54:	f042 5280 	orr.w	r2, r2, #268435456	@ 0x10000000
 8007c58:	641a      	str	r2, [r3, #64]	@ 0x40
 8007c5a:	6c1b      	ldr	r3, [r3, #64]	@ 0x40
 8007c5c:	f003 5380 	and.w	r3, r3, #268435456	@ 0x10000000
 8007c60:	9301      	str	r3, [sp, #4]
 8007c62:	9b01      	ldr	r3, [sp, #4]
 8007c64:	2701      	movs	r7, #1
 8007c66:	4d2c      	ldr	r5, [pc, #176]	@ (8007d18 <HAL_RCC_OscConfig+0x270>)
 8007c68:	682b      	ldr	r3, [r5, #0]
 8007c6a:	05d8      	lsls	r0, r3, #23
 8007c6c:	d51b      	bpl.n	8007ca6 <HAL_RCC_OscConfig+0x1fe>
 8007c6e:	68a3      	ldr	r3, [r4, #8]
 8007c70:	4d27      	ldr	r5, [pc, #156]	@ (8007d10 <HAL_RCC_OscConfig+0x268>)
 8007c72:	2b01      	cmp	r3, #1
 8007c74:	d127      	bne.n	8007cc6 <HAL_RCC_OscConfig+0x21e>
 8007c76:	6f2b      	ldr	r3, [r5, #112]	@ 0x70
 8007c78:	f043 0301 	orr.w	r3, r3, #1
 8007c7c:	672b      	str	r3, [r5, #112]	@ 0x70
 8007c7e:	f7fc fe51 	bl	8004924 <HAL_GetTick>
 8007c82:	4e23      	ldr	r6, [pc, #140]	@ (8007d10 <HAL_RCC_OscConfig+0x268>)
 8007c84:	4605      	mov	r5, r0
 8007c86:	f241 3888 	movw	r8, #5000	@ 0x1388
 8007c8a:	6f33      	ldr	r3, [r6, #112]	@ 0x70
 8007c8c:	079a      	lsls	r2, r3, #30
 8007c8e:	d539      	bpl.n	8007d04 <HAL_RCC_OscConfig+0x25c>
 8007c90:	2f00      	cmp	r7, #0
 8007c92:	f43f af1b 	beq.w	8007acc <HAL_RCC_OscConfig+0x24>
 8007c96:	4a1e      	ldr	r2, [pc, #120]	@ (8007d10 <HAL_RCC_OscConfig+0x268>)
 8007c98:	6c13      	ldr	r3, [r2, #64]	@ 0x40
 8007c9a:	f023 5380 	bic.w	r3, r3, #268435456	@ 0x10000000
 8007c9e:	6413      	str	r3, [r2, #64]	@ 0x40
 8007ca0:	e714      	b.n	8007acc <HAL_RCC_OscConfig+0x24>
 8007ca2:	2700      	movs	r7, #0
 8007ca4:	e7df      	b.n	8007c66 <HAL_RCC_OscConfig+0x1be>
 8007ca6:	682b      	ldr	r3, [r5, #0]
 8007ca8:	f443 7380 	orr.w	r3, r3, #256	@ 0x100
 8007cac:	602b      	str	r3, [r5, #0]
 8007cae:	f7fc fe39 	bl	8004924 <HAL_GetTick>
 8007cb2:	4606      	mov	r6, r0
 8007cb4:	682b      	ldr	r3, [r5, #0]
 8007cb6:	05d9      	lsls	r1, r3, #23
 8007cb8:	d4d9      	bmi.n	8007c6e <HAL_RCC_OscConfig+0x1c6>
 8007cba:	f7fc fe33 	bl	8004924 <HAL_GetTick>
 8007cbe:	1b80      	subs	r0, r0, r6
 8007cc0:	2802      	cmp	r0, #2
 8007cc2:	d9f7      	bls.n	8007cb4 <HAL_RCC_OscConfig+0x20c>
 8007cc4:	e734      	b.n	8007b30 <HAL_RCC_OscConfig+0x88>
 8007cc6:	2b05      	cmp	r3, #5
 8007cc8:	d104      	bne.n	8007cd4 <HAL_RCC_OscConfig+0x22c>
 8007cca:	6f2b      	ldr	r3, [r5, #112]	@ 0x70
 8007ccc:	f043 0304 	orr.w	r3, r3, #4
 8007cd0:	672b      	str	r3, [r5, #112]	@ 0x70
 8007cd2:	e7d0      	b.n	8007c76 <HAL_RCC_OscConfig+0x1ce>
 8007cd4:	6f2a      	ldr	r2, [r5, #112]	@ 0x70
 8007cd6:	f022 0201 	bic.w	r2, r2, #1
 8007cda:	672a      	str	r2, [r5, #112]	@ 0x70
 8007cdc:	6f2a      	ldr	r2, [r5, #112]	@ 0x70
 8007cde:	f022 0204 	bic.w	r2, r2, #4
 8007ce2:	672a      	str	r2, [r5, #112]	@ 0x70
 8007ce4:	2b00      	cmp	r3, #0
 8007ce6:	d1ca      	bne.n	8007c7e <HAL_RCC_OscConfig+0x1d6>
 8007ce8:	f7fc fe1c 	bl	8004924 <HAL_GetTick>
 8007cec:	f241 3888 	movw	r8, #5000	@ 0x1388
 8007cf0:	4606      	mov	r6, r0
 8007cf2:	6f2b      	ldr	r3, [r5, #112]	@ 0x70
 8007cf4:	079b      	lsls	r3, r3, #30
 8007cf6:	d5cb      	bpl.n	8007c90 <HAL_RCC_OscConfig+0x1e8>
 8007cf8:	f7fc fe14 	bl	8004924 <HAL_GetTick>
 8007cfc:	1b80      	subs	r0, r0, r6
 8007cfe:	4540      	cmp	r0, r8
 8007d00:	d9f7      	bls.n	8007cf2 <HAL_RCC_OscConfig+0x24a>
 8007d02:	e715      	b.n	8007b30 <HAL_RCC_OscConfig+0x88>
 8007d04:	f7fc fe0e 	bl	8004924 <HAL_GetTick>
 8007d08:	1b40      	subs	r0, r0, r5
 8007d0a:	4540      	cmp	r0, r8
 8007d0c:	d9bd      	bls.n	8007c8a <HAL_RCC_OscConfig+0x1e2>
 8007d0e:	e70f      	b.n	8007b30 <HAL_RCC_OscConfig+0x88>
 8007d10:	40023800 	.word	0x40023800
 8007d14:	42470000 	.word	0x42470000
 8007d18:	40007000 	.word	0x40007000
 8007d1c:	4d37      	ldr	r5, [pc, #220]	@ (8007dfc <HAL_RCC_OscConfig+0x354>)
 8007d1e:	68aa      	ldr	r2, [r5, #8]
 8007d20:	f002 020c 	and.w	r2, r2, #12
 8007d24:	2a08      	cmp	r2, #8
 8007d26:	d03e      	beq.n	8007da6 <HAL_RCC_OscConfig+0x2fe>
 8007d28:	2b02      	cmp	r3, #2
 8007d2a:	4b35      	ldr	r3, [pc, #212]	@ (8007e00 <HAL_RCC_OscConfig+0x358>)
 8007d2c:	f04f 0200 	mov.w	r2, #0
 8007d30:	661a      	str	r2, [r3, #96]	@ 0x60
 8007d32:	d12b      	bne.n	8007d8c <HAL_RCC_OscConfig+0x2e4>
 8007d34:	f7fc fdf6 	bl	8004924 <HAL_GetTick>
 8007d38:	4606      	mov	r6, r0
 8007d3a:	682b      	ldr	r3, [r5, #0]
 8007d3c:	0199      	lsls	r1, r3, #6
 8007d3e:	d41f      	bmi.n	8007d80 <HAL_RCC_OscConfig+0x2d8>
 8007d40:	e9d4 3207 	ldrd	r3, r2, [r4, #28]
 8007d44:	4313      	orrs	r3, r2
 8007d46:	6a62      	ldr	r2, [r4, #36]	@ 0x24
 8007d48:	ea43 1382 	orr.w	r3, r3, r2, lsl #6
 8007d4c:	6ae2      	ldr	r2, [r4, #44]	@ 0x2c
 8007d4e:	ea43 6302 	orr.w	r3, r3, r2, lsl #24
 8007d52:	6aa2      	ldr	r2, [r4, #40]	@ 0x28
 8007d54:	0852      	lsrs	r2, r2, #1
 8007d56:	3a01      	subs	r2, #1
 8007d58:	ea43 4302 	orr.w	r3, r3, r2, lsl #16
 8007d5c:	606b      	str	r3, [r5, #4]
 8007d5e:	4b28      	ldr	r3, [pc, #160]	@ (8007e00 <HAL_RCC_OscConfig+0x358>)
 8007d60:	4d26      	ldr	r5, [pc, #152]	@ (8007dfc <HAL_RCC_OscConfig+0x354>)
 8007d62:	2201      	movs	r2, #1
 8007d64:	661a      	str	r2, [r3, #96]	@ 0x60
 8007d66:	f7fc fddd 	bl	8004924 <HAL_GetTick>
 8007d6a:	4604      	mov	r4, r0
 8007d6c:	682b      	ldr	r3, [r5, #0]
 8007d6e:	019a      	lsls	r2, r3, #6
 8007d70:	f53f aeb0 	bmi.w	8007ad4 <HAL_RCC_OscConfig+0x2c>
 8007d74:	f7fc fdd6 	bl	8004924 <HAL_GetTick>
 8007d78:	1b00      	subs	r0, r0, r4
 8007d7a:	2802      	cmp	r0, #2
 8007d7c:	d9f6      	bls.n	8007d6c <HAL_RCC_OscConfig+0x2c4>
 8007d7e:	e6d7      	b.n	8007b30 <HAL_RCC_OscConfig+0x88>
 8007d80:	f7fc fdd0 	bl	8004924 <HAL_GetTick>
 8007d84:	1b80      	subs	r0, r0, r6
 8007d86:	2802      	cmp	r0, #2
 8007d88:	d9d7      	bls.n	8007d3a <HAL_RCC_OscConfig+0x292>
 8007d8a:	e6d1      	b.n	8007b30 <HAL_RCC_OscConfig+0x88>
 8007d8c:	f7fc fdca 	bl	8004924 <HAL_GetTick>
 8007d90:	4604      	mov	r4, r0
 8007d92:	682b      	ldr	r3, [r5, #0]
 8007d94:	019b      	lsls	r3, r3, #6
 8007d96:	f57f ae9d 	bpl.w	8007ad4 <HAL_RCC_OscConfig+0x2c>
 8007d9a:	f7fc fdc3 	bl	8004924 <HAL_GetTick>
 8007d9e:	1b00      	subs	r0, r0, r4
 8007da0:	2802      	cmp	r0, #2
 8007da2:	d9f6      	bls.n	8007d92 <HAL_RCC_OscConfig+0x2ea>
 8007da4:	e6c4      	b.n	8007b30 <HAL_RCC_OscConfig+0x88>
 8007da6:	2b01      	cmp	r3, #1
 8007da8:	f43f aeab 	beq.w	8007b02 <HAL_RCC_OscConfig+0x5a>
 8007dac:	686b      	ldr	r3, [r5, #4]
 8007dae:	69e2      	ldr	r2, [r4, #28]
 8007db0:	f403 0180 	and.w	r1, r3, #4194304	@ 0x400000
 8007db4:	4291      	cmp	r1, r2
 8007db6:	f47f aea4 	bne.w	8007b02 <HAL_RCC_OscConfig+0x5a>
 8007dba:	6a21      	ldr	r1, [r4, #32]
 8007dbc:	f003 023f 	and.w	r2, r3, #63	@ 0x3f
 8007dc0:	428a      	cmp	r2, r1
 8007dc2:	f47f ae9e 	bne.w	8007b02 <HAL_RCC_OscConfig+0x5a>
 8007dc6:	6a61      	ldr	r1, [r4, #36]	@ 0x24
 8007dc8:	f647 72c0 	movw	r2, #32704	@ 0x7fc0
 8007dcc:	401a      	ands	r2, r3
 8007dce:	ebb2 1f81 	cmp.w	r2, r1, lsl #6
 8007dd2:	f47f ae96 	bne.w	8007b02 <HAL_RCC_OscConfig+0x5a>
 8007dd6:	6aa2      	ldr	r2, [r4, #40]	@ 0x28
 8007dd8:	0852      	lsrs	r2, r2, #1
 8007dda:	f403 3140 	and.w	r1, r3, #196608	@ 0x30000
 8007dde:	3a01      	subs	r2, #1
 8007de0:	ebb1 4f02 	cmp.w	r1, r2, lsl #16
 8007de4:	f47f ae8d 	bne.w	8007b02 <HAL_RCC_OscConfig+0x5a>
 8007de8:	6ae2      	ldr	r2, [r4, #44]	@ 0x2c
 8007dea:	f003 6370 	and.w	r3, r3, #251658240	@ 0xf000000
 8007dee:	ebb3 6f02 	cmp.w	r3, r2, lsl #24
 8007df2:	bf14      	ite	ne
 8007df4:	2001      	movne	r0, #1
 8007df6:	2000      	moveq	r0, #0
 8007df8:	e69b      	b.n	8007b32 <HAL_RCC_OscConfig+0x8a>
 8007dfa:	bf00      	nop
 8007dfc:	40023800 	.word	0x40023800
 8007e00:	42470000 	.word	0x42470000

08007e04 <HAL_RCC_GetSysClockFreq>:
 8007e04:	4913      	ldr	r1, [pc, #76]	@ (8007e54 <HAL_RCC_GetSysClockFreq+0x50>)
 8007e06:	b508      	push	{r3, lr}
 8007e08:	688b      	ldr	r3, [r1, #8]
 8007e0a:	f003 030c 	and.w	r3, r3, #12
 8007e0e:	2b04      	cmp	r3, #4
 8007e10:	d01c      	beq.n	8007e4c <HAL_RCC_GetSysClockFreq+0x48>
 8007e12:	2b08      	cmp	r3, #8
 8007e14:	d11c      	bne.n	8007e50 <HAL_RCC_GetSysClockFreq+0x4c>
 8007e16:	684a      	ldr	r2, [r1, #4]
 8007e18:	684b      	ldr	r3, [r1, #4]
 8007e1a:	6849      	ldr	r1, [r1, #4]
 8007e1c:	f413 0380 	ands.w	r3, r3, #4194304	@ 0x400000
 8007e20:	bf14      	ite	ne
 8007e22:	480d      	ldrne	r0, [pc, #52]	@ (8007e58 <HAL_RCC_GetSysClockFreq+0x54>)
 8007e24:	480d      	ldreq	r0, [pc, #52]	@ (8007e5c <HAL_RCC_GetSysClockFreq+0x58>)
 8007e26:	f3c1 1188 	ubfx	r1, r1, #6, #9
 8007e2a:	bf18      	it	ne
 8007e2c:	2300      	movne	r3, #0
 8007e2e:	f002 023f 	and.w	r2, r2, #63	@ 0x3f
 8007e32:	fba1 0100 	umull	r0, r1, r1, r0
 8007e36:	f7f8 fd71 	bl	800091c <__aeabi_uldivmod>
 8007e3a:	4b06      	ldr	r3, [pc, #24]	@ (8007e54 <HAL_RCC_GetSysClockFreq+0x50>)
 8007e3c:	685b      	ldr	r3, [r3, #4]
 8007e3e:	f3c3 4301 	ubfx	r3, r3, #16, #2
 8007e42:	3301      	adds	r3, #1
 8007e44:	005b      	lsls	r3, r3, #1
 8007e46:	fbb0 f0f3 	udiv	r0, r0, r3
 8007e4a:	bd08      	pop	{r3, pc}
 8007e4c:	4802      	ldr	r0, [pc, #8]	@ (8007e58 <HAL_RCC_GetSysClockFreq+0x54>)
 8007e4e:	e7fc      	b.n	8007e4a <HAL_RCC_GetSysClockFreq+0x46>
 8007e50:	4802      	ldr	r0, [pc, #8]	@ (8007e5c <HAL_RCC_GetSysClockFreq+0x58>)
 8007e52:	e7fa      	b.n	8007e4a <HAL_RCC_GetSysClockFreq+0x46>
 8007e54:	40023800 	.word	0x40023800
 8007e58:	017d7840 	.word	0x017d7840
 8007e5c:	00f42400 	.word	0x00f42400

08007e60 <HAL_RCC_ClockConfig>:
 8007e60:	e92d 41f0 	stmdb	sp!, {r4, r5, r6, r7, r8, lr}
 8007e64:	460d      	mov	r5, r1
 8007e66:	4604      	mov	r4, r0
 8007e68:	b910      	cbnz	r0, 8007e70 <HAL_RCC_ClockConfig+0x10>
 8007e6a:	2001      	movs	r0, #1
 8007e6c:	e8bd 81f0 	ldmia.w	sp!, {r4, r5, r6, r7, r8, pc}
 8007e70:	4b43      	ldr	r3, [pc, #268]	@ (8007f80 <HAL_RCC_ClockConfig+0x120>)
 8007e72:	681a      	ldr	r2, [r3, #0]
 8007e74:	f002 0207 	and.w	r2, r2, #7
 8007e78:	428a      	cmp	r2, r1
 8007e7a:	d328      	bcc.n	8007ece <HAL_RCC_ClockConfig+0x6e>
 8007e7c:	6821      	ldr	r1, [r4, #0]
 8007e7e:	078f      	lsls	r7, r1, #30
 8007e80:	d42d      	bmi.n	8007ede <HAL_RCC_ClockConfig+0x7e>
 8007e82:	07c8      	lsls	r0, r1, #31
 8007e84:	d440      	bmi.n	8007f08 <HAL_RCC_ClockConfig+0xa8>
 8007e86:	4b3e      	ldr	r3, [pc, #248]	@ (8007f80 <HAL_RCC_ClockConfig+0x120>)
 8007e88:	681a      	ldr	r2, [r3, #0]
 8007e8a:	f002 0207 	and.w	r2, r2, #7
 8007e8e:	42aa      	cmp	r2, r5
 8007e90:	d865      	bhi.n	8007f5e <HAL_RCC_ClockConfig+0xfe>
 8007e92:	6822      	ldr	r2, [r4, #0]
 8007e94:	0751      	lsls	r1, r2, #29
 8007e96:	d46b      	bmi.n	8007f70 <HAL_RCC_ClockConfig+0x110>
 8007e98:	0713      	lsls	r3, r2, #28
 8007e9a:	d507      	bpl.n	8007eac <HAL_RCC_ClockConfig+0x4c>
 8007e9c:	4a39      	ldr	r2, [pc, #228]	@ (8007f84 <HAL_RCC_ClockConfig+0x124>)
 8007e9e:	6921      	ldr	r1, [r4, #16]
 8007ea0:	6893      	ldr	r3, [r2, #8]
 8007ea2:	f423 4360 	bic.w	r3, r3, #57344	@ 0xe000
 8007ea6:	ea43 03c1 	orr.w	r3, r3, r1, lsl #3
 8007eaa:	6093      	str	r3, [r2, #8]
 8007eac:	f7ff ffaa 	bl	8007e04 <HAL_RCC_GetSysClockFreq>
 8007eb0:	4b34      	ldr	r3, [pc, #208]	@ (8007f84 <HAL_RCC_ClockConfig+0x124>)
 8007eb2:	4a35      	ldr	r2, [pc, #212]	@ (8007f88 <HAL_RCC_ClockConfig+0x128>)
 8007eb4:	689b      	ldr	r3, [r3, #8]
 8007eb6:	f3c3 1303 	ubfx	r3, r3, #4, #4
 8007eba:	5cd3      	ldrb	r3, [r2, r3]
 8007ebc:	40d8      	lsrs	r0, r3
 8007ebe:	4b33      	ldr	r3, [pc, #204]	@ (8007f8c <HAL_RCC_ClockConfig+0x12c>)
 8007ec0:	6018      	str	r0, [r3, #0]
 8007ec2:	4b33      	ldr	r3, [pc, #204]	@ (8007f90 <HAL_RCC_ClockConfig+0x130>)
 8007ec4:	6818      	ldr	r0, [r3, #0]
 8007ec6:	f7fc fce3 	bl	8004890 <HAL_InitTick>
 8007eca:	2000      	movs	r0, #0
 8007ecc:	e7ce      	b.n	8007e6c <HAL_RCC_ClockConfig+0xc>
 8007ece:	b2ca      	uxtb	r2, r1
 8007ed0:	701a      	strb	r2, [r3, #0]
 8007ed2:	681b      	ldr	r3, [r3, #0]
 8007ed4:	f003 0307 	and.w	r3, r3, #7
 8007ed8:	428b      	cmp	r3, r1
 8007eda:	d1c6      	bne.n	8007e6a <HAL_RCC_ClockConfig+0xa>
 8007edc:	e7ce      	b.n	8007e7c <HAL_RCC_ClockConfig+0x1c>
 8007ede:	4b29      	ldr	r3, [pc, #164]	@ (8007f84 <HAL_RCC_ClockConfig+0x124>)
 8007ee0:	f011 0f04 	tst.w	r1, #4
 8007ee4:	bf1e      	ittt	ne
 8007ee6:	689a      	ldrne	r2, [r3, #8]
 8007ee8:	f442 52e0 	orrne.w	r2, r2, #7168	@ 0x1c00
 8007eec:	609a      	strne	r2, [r3, #8]
 8007eee:	070e      	lsls	r6, r1, #28
 8007ef0:	bf42      	ittt	mi
 8007ef2:	689a      	ldrmi	r2, [r3, #8]
 8007ef4:	f442 4260 	orrmi.w	r2, r2, #57344	@ 0xe000
 8007ef8:	609a      	strmi	r2, [r3, #8]
 8007efa:	689a      	ldr	r2, [r3, #8]
 8007efc:	68a0      	ldr	r0, [r4, #8]
 8007efe:	f022 02f0 	bic.w	r2, r2, #240	@ 0xf0
 8007f02:	4302      	orrs	r2, r0
 8007f04:	609a      	str	r2, [r3, #8]
 8007f06:	e7bc      	b.n	8007e82 <HAL_RCC_ClockConfig+0x22>
 8007f08:	6862      	ldr	r2, [r4, #4]
 8007f0a:	4b1e      	ldr	r3, [pc, #120]	@ (8007f84 <HAL_RCC_ClockConfig+0x124>)
 8007f0c:	2a01      	cmp	r2, #1
 8007f0e:	d11c      	bne.n	8007f4a <HAL_RCC_ClockConfig+0xea>
 8007f10:	681b      	ldr	r3, [r3, #0]
 8007f12:	f413 3f00 	tst.w	r3, #131072	@ 0x20000
 8007f16:	d0a8      	beq.n	8007e6a <HAL_RCC_ClockConfig+0xa>
 8007f18:	4e1a      	ldr	r6, [pc, #104]	@ (8007f84 <HAL_RCC_ClockConfig+0x124>)
 8007f1a:	68b3      	ldr	r3, [r6, #8]
 8007f1c:	f023 0303 	bic.w	r3, r3, #3
 8007f20:	4313      	orrs	r3, r2
 8007f22:	60b3      	str	r3, [r6, #8]
 8007f24:	f7fc fcfe 	bl	8004924 <HAL_GetTick>
 8007f28:	f241 3888 	movw	r8, #5000	@ 0x1388
 8007f2c:	4607      	mov	r7, r0
 8007f2e:	68b3      	ldr	r3, [r6, #8]
 8007f30:	6862      	ldr	r2, [r4, #4]
 8007f32:	f003 030c 	and.w	r3, r3, #12
 8007f36:	ebb3 0f82 	cmp.w	r3, r2, lsl #2
 8007f3a:	d0a4      	beq.n	8007e86 <HAL_RCC_ClockConfig+0x26>
 8007f3c:	f7fc fcf2 	bl	8004924 <HAL_GetTick>
 8007f40:	1bc0      	subs	r0, r0, r7
 8007f42:	4540      	cmp	r0, r8
 8007f44:	d9f3      	bls.n	8007f2e <HAL_RCC_ClockConfig+0xce>
 8007f46:	2003      	movs	r0, #3
 8007f48:	e790      	b.n	8007e6c <HAL_RCC_ClockConfig+0xc>
 8007f4a:	1e91      	subs	r1, r2, #2
 8007f4c:	2901      	cmp	r1, #1
 8007f4e:	681b      	ldr	r3, [r3, #0]
 8007f50:	d802      	bhi.n	8007f58 <HAL_RCC_ClockConfig+0xf8>
 8007f52:	f013 7f00 	tst.w	r3, #33554432	@ 0x2000000
 8007f56:	e7de      	b.n	8007f16 <HAL_RCC_ClockConfig+0xb6>
 8007f58:	f013 0f02 	tst.w	r3, #2
 8007f5c:	e7db      	b.n	8007f16 <HAL_RCC_ClockConfig+0xb6>
 8007f5e:	b2ea      	uxtb	r2, r5
 8007f60:	701a      	strb	r2, [r3, #0]
 8007f62:	681b      	ldr	r3, [r3, #0]
 8007f64:	f003 0307 	and.w	r3, r3, #7
 8007f68:	42ab      	cmp	r3, r5
 8007f6a:	f47f af7e 	bne.w	8007e6a <HAL_RCC_ClockConfig+0xa>
 8007f6e:	e790      	b.n	8007e92 <HAL_RCC_ClockConfig+0x32>
 8007f70:	4904      	ldr	r1, [pc, #16]	@ (8007f84 <HAL_RCC_ClockConfig+0x124>)
 8007f72:	68e0      	ldr	r0, [r4, #12]
 8007f74:	688b      	ldr	r3, [r1, #8]
 8007f76:	f423 53e0 	bic.w	r3, r3, #7168	@ 0x1c00
 8007f7a:	4303      	orrs	r3, r0
 8007f7c:	608b      	str	r3, [r1, #8]
 8007f7e:	e78b      	b.n	8007e98 <HAL_RCC_ClockConfig+0x38>
 8007f80:	40023c00 	.word	0x40023c00
 8007f84:	40023800 	.word	0x40023800
 8007f88:	0800caa5 	.word	0x0800caa5
 8007f8c:	20000060 	.word	0x20000060
 8007f90:	20000068 	.word	0x20000068

08007f94 <HAL_RCC_GetHCLKFreq>:
 8007f94:	4b01      	ldr	r3, [pc, #4]	@ (8007f9c <HAL_RCC_GetHCLKFreq+0x8>)
 8007f96:	6818      	ldr	r0, [r3, #0]
 8007f98:	4770      	bx	lr
 8007f9a:	bf00      	nop
 8007f9c:	20000060 	.word	0x20000060

08007fa0 <HAL_RCC_GetPCLK1Freq>:
 8007fa0:	4b04      	ldr	r3, [pc, #16]	@ (8007fb4 <HAL_RCC_GetPCLK1Freq+0x14>)
 8007fa2:	4a05      	ldr	r2, [pc, #20]	@ (8007fb8 <HAL_RCC_GetPCLK1Freq+0x18>)
 8007fa4:	689b      	ldr	r3, [r3, #8]
 8007fa6:	f3c3 2382 	ubfx	r3, r3, #10, #3
 8007faa:	5cd3      	ldrb	r3, [r2, r3]
 8007fac:	4a03      	ldr	r2, [pc, #12]	@ (8007fbc <HAL_RCC_GetPCLK1Freq+0x1c>)
 8007fae:	6810      	ldr	r0, [r2, #0]
 8007fb0:	40d8      	lsrs	r0, r3
 8007fb2:	4770      	bx	lr
 8007fb4:	40023800 	.word	0x40023800
 8007fb8:	0800ca9d 	.word	0x0800ca9d
 8007fbc:	20000060 	.word	0x20000060

08007fc0 <HAL_RCC_GetPCLK2Freq>:
 8007fc0:	4b04      	ldr	r3, [pc, #16]	@ (8007fd4 <HAL_RCC_GetPCLK2Freq+0x14>)
 8007fc2:	4a05      	ldr	r2, [pc, #20]	@ (8007fd8 <HAL_RCC_GetPCLK2Freq+0x18>)
 8007fc4:	689b      	ldr	r3, [r3, #8]
 8007fc6:	f3c3 3342 	ubfx	r3, r3, #13, #3
 8007fca:	5cd3      	ldrb	r3, [r2, r3]
 8007fcc:	4a03      	ldr	r2, [pc, #12]	@ (8007fdc <HAL_RCC_GetPCLK2Freq+0x1c>)
 8007fce:	6810      	ldr	r0, [r2, #0]
 8007fd0:	40d8      	lsrs	r0, r3
 8007fd2:	4770      	bx	lr
 8007fd4:	40023800 	.word	0x40023800
 8007fd8:	0800ca9d 	.word	0x0800ca9d
 8007fdc:	20000060 	.word	0x20000060

08007fe0 <TIM_OC1_SetConfig>:
 8007fe0:	6a03      	ldr	r3, [r0, #32]
 8007fe2:	6a02      	ldr	r2, [r0, #32]
 8007fe4:	f022 0201 	bic.w	r2, r2, #1
 8007fe8:	b570      	push	{r4, r5, r6, lr}
 8007fea:	6202      	str	r2, [r0, #32]
 8007fec:	6844      	ldr	r4, [r0, #4]
 8007fee:	6982      	ldr	r2, [r0, #24]
 8007ff0:	680d      	ldr	r5, [r1, #0]
 8007ff2:	f022 0273 	bic.w	r2, r2, #115	@ 0x73
 8007ff6:	432a      	orrs	r2, r5
 8007ff8:	688d      	ldr	r5, [r1, #8]
 8007ffa:	f023 0302 	bic.w	r3, r3, #2
 8007ffe:	432b      	orrs	r3, r5
 8008000:	4d0a      	ldr	r5, [pc, #40]	@ (800802c <TIM_OC1_SetConfig+0x4c>)
 8008002:	42a8      	cmp	r0, r5
 8008004:	d10b      	bne.n	800801e <TIM_OC1_SetConfig+0x3e>
 8008006:	68cd      	ldr	r5, [r1, #12]
 8008008:	f023 0308 	bic.w	r3, r3, #8
 800800c:	432b      	orrs	r3, r5
 800800e:	e9d1 5605 	ldrd	r5, r6, [r1, #20]
 8008012:	f424 7440 	bic.w	r4, r4, #768	@ 0x300
 8008016:	4335      	orrs	r5, r6
 8008018:	f023 0304 	bic.w	r3, r3, #4
 800801c:	432c      	orrs	r4, r5
 800801e:	6044      	str	r4, [r0, #4]
 8008020:	6182      	str	r2, [r0, #24]
 8008022:	684a      	ldr	r2, [r1, #4]
 8008024:	6342      	str	r2, [r0, #52]	@ 0x34
 8008026:	6203      	str	r3, [r0, #32]
 8008028:	bd70      	pop	{r4, r5, r6, pc}
 800802a:	bf00      	nop
 800802c:	40010000 	.word	0x40010000

08008030 <TIM_OC3_SetConfig>:
 8008030:	6a03      	ldr	r3, [r0, #32]
 8008032:	6a02      	ldr	r2, [r0, #32]
 8008034:	f422 7280 	bic.w	r2, r2, #256	@ 0x100
 8008038:	b570      	push	{r4, r5, r6, lr}
 800803a:	6202      	str	r2, [r0, #32]
 800803c:	6844      	ldr	r4, [r0, #4]
 800803e:	69c2      	ldr	r2, [r0, #28]
 8008040:	680d      	ldr	r5, [r1, #0]
 8008042:	f022 0273 	bic.w	r2, r2, #115	@ 0x73
 8008046:	432a      	orrs	r2, r5
 8008048:	688d      	ldr	r5, [r1, #8]
 800804a:	f423 7300 	bic.w	r3, r3, #512	@ 0x200
 800804e:	ea43 2305 	orr.w	r3, r3, r5, lsl #8
 8008052:	4d0b      	ldr	r5, [pc, #44]	@ (8008080 <TIM_OC3_SetConfig+0x50>)
 8008054:	42a8      	cmp	r0, r5
 8008056:	d10d      	bne.n	8008074 <TIM_OC3_SetConfig+0x44>
 8008058:	68cd      	ldr	r5, [r1, #12]
 800805a:	f423 6300 	bic.w	r3, r3, #2048	@ 0x800
 800805e:	ea43 2305 	orr.w	r3, r3, r5, lsl #8
 8008062:	e9d1 5605 	ldrd	r5, r6, [r1, #20]
 8008066:	f424 5440 	bic.w	r4, r4, #12288	@ 0x3000
 800806a:	4335      	orrs	r5, r6
 800806c:	f423 6380 	bic.w	r3, r3, #1024	@ 0x400
 8008070:	ea44 1405 	orr.w	r4, r4, r5, lsl #4
 8008074:	6044      	str	r4, [r0, #4]
 8008076:	61c2      	str	r2, [r0, #28]
 8008078:	684a      	ldr	r2, [r1, #4]
 800807a:	63c2      	str	r2, [r0, #60]	@ 0x3c
 800807c:	6203      	str	r3, [r0, #32]
 800807e:	bd70      	pop	{r4, r5, r6, pc}
 8008080:	40010000 	.word	0x40010000

08008084 <TIM_OC4_SetConfig>:
 8008084:	6a03      	ldr	r3, [r0, #32]
 8008086:	6a02      	ldr	r2, [r0, #32]
 8008088:	f422 5280 	bic.w	r2, r2, #4096	@ 0x1000
 800808c:	b530      	push	{r4, r5, lr}
 800808e:	6202      	str	r2, [r0, #32]
 8008090:	6844      	ldr	r4, [r0, #4]
 8008092:	69c2      	ldr	r2, [r0, #28]
 8008094:	680d      	ldr	r5, [r1, #0]
 8008096:	f422 42e6 	bic.w	r2, r2, #29440	@ 0x7300
 800809a:	ea42 2205 	orr.w	r2, r2, r5, lsl #8
 800809e:	688d      	ldr	r5, [r1, #8]
 80080a0:	f423 5300 	bic.w	r3, r3, #8192	@ 0x2000
 80080a4:	ea43 3305 	orr.w	r3, r3, r5, lsl #12
 80080a8:	4d06      	ldr	r5, [pc, #24]	@ (80080c4 <TIM_OC4_SetConfig+0x40>)
 80080aa:	42a8      	cmp	r0, r5
 80080ac:	bf02      	ittt	eq
 80080ae:	694d      	ldreq	r5, [r1, #20]
 80080b0:	f424 4480 	biceq.w	r4, r4, #16384	@ 0x4000
 80080b4:	ea44 1485 	orreq.w	r4, r4, r5, lsl #6
 80080b8:	6044      	str	r4, [r0, #4]
 80080ba:	61c2      	str	r2, [r0, #28]
 80080bc:	684a      	ldr	r2, [r1, #4]
 80080be:	6402      	str	r2, [r0, #64]	@ 0x40
 80080c0:	6203      	str	r3, [r0, #32]
 80080c2:	bd30      	pop	{r4, r5, pc}
 80080c4:	40010000 	.word	0x40010000

080080c8 <HAL_TIM_Base_Start>:
 80080c8:	f890 303d 	ldrb.w	r3, [r0, #61]	@ 0x3d
 80080cc:	2b01      	cmp	r3, #1
 80080ce:	d124      	bne.n	800811a <HAL_TIM_Base_Start+0x52>
 80080d0:	2302      	movs	r3, #2
 80080d2:	4a13      	ldr	r2, [pc, #76]	@ (8008120 <HAL_TIM_Base_Start+0x58>)
 80080d4:	f880 303d 	strb.w	r3, [r0, #61]	@ 0x3d
 80080d8:	6803      	ldr	r3, [r0, #0]
 80080da:	4293      	cmp	r3, r2
 80080dc:	d012      	beq.n	8008104 <HAL_TIM_Base_Start+0x3c>
 80080de:	f1b3 4f80 	cmp.w	r3, #1073741824	@ 0x40000000
 80080e2:	d00f      	beq.n	8008104 <HAL_TIM_Base_Start+0x3c>
 80080e4:	f5a2 427c 	sub.w	r2, r2, #64512	@ 0xfc00
 80080e8:	4293      	cmp	r3, r2
 80080ea:	d00b      	beq.n	8008104 <HAL_TIM_Base_Start+0x3c>
 80080ec:	f502 6280 	add.w	r2, r2, #1024	@ 0x400
 80080f0:	4293      	cmp	r3, r2
 80080f2:	d007      	beq.n	8008104 <HAL_TIM_Base_Start+0x3c>
 80080f4:	f502 6280 	add.w	r2, r2, #1024	@ 0x400
 80080f8:	4293      	cmp	r3, r2
 80080fa:	d003      	beq.n	8008104 <HAL_TIM_Base_Start+0x3c>
 80080fc:	f502 329a 	add.w	r2, r2, #78848	@ 0x13400
 8008100:	4293      	cmp	r3, r2
 8008102:	d104      	bne.n	800810e <HAL_TIM_Base_Start+0x46>
 8008104:	689a      	ldr	r2, [r3, #8]
 8008106:	f002 0207 	and.w	r2, r2, #7
 800810a:	2a06      	cmp	r2, #6
 800810c:	d003      	beq.n	8008116 <HAL_TIM_Base_Start+0x4e>
 800810e:	681a      	ldr	r2, [r3, #0]
 8008110:	f042 0201 	orr.w	r2, r2, #1
 8008114:	601a      	str	r2, [r3, #0]
 8008116:	2000      	movs	r0, #0
 8008118:	4770      	bx	lr
 800811a:	2001      	movs	r0, #1
 800811c:	4770      	bx	lr
 800811e:	bf00      	nop
 8008120:	40010000 	.word	0x40010000

08008124 <HAL_TIM_Base_Start_IT>:
 8008124:	f890 303d 	ldrb.w	r3, [r0, #61]	@ 0x3d
 8008128:	2b01      	cmp	r3, #1
 800812a:	d128      	bne.n	800817e <HAL_TIM_Base_Start_IT+0x5a>
 800812c:	2302      	movs	r3, #2
 800812e:	f880 303d 	strb.w	r3, [r0, #61]	@ 0x3d
 8008132:	6803      	ldr	r3, [r0, #0]
 8008134:	68da      	ldr	r2, [r3, #12]
 8008136:	f042 0201 	orr.w	r2, r2, #1
 800813a:	60da      	str	r2, [r3, #12]
 800813c:	4a11      	ldr	r2, [pc, #68]	@ (8008184 <HAL_TIM_Base_Start_IT+0x60>)
 800813e:	4293      	cmp	r3, r2
 8008140:	d012      	beq.n	8008168 <HAL_TIM_Base_Start_IT+0x44>
 8008142:	f1b3 4f80 	cmp.w	r3, #1073741824	@ 0x40000000
 8008146:	d00f      	beq.n	8008168 <HAL_TIM_Base_Start_IT+0x44>
 8008148:	f5a2 427c 	sub.w	r2, r2, #64512	@ 0xfc00
 800814c:	4293      	cmp	r3, r2
 800814e:	d00b      	beq.n	8008168 <HAL_TIM_Base_Start_IT+0x44>
 8008150:	f502 6280 	add.w	r2, r2, #1024	@ 0x400
 8008154:	4293      	cmp	r3, r2
 8008156:	d007      	beq.n	8008168 <HAL_TIM_Base_Start_IT+0x44>
 8008158:	f502 6280 	add.w	r2, r2, #1024	@ 0x400
 800815c:	4293      	cmp	r3, r2
 800815e:	d003      	beq.n	8008168 <HAL_TIM_Base_Start_IT+0x44>
 8008160:	f502 329a 	add.w	r2, r2, #78848	@ 0x13400
 8008164:	4293      	cmp	r3, r2
 8008166:	d104      	bne.n	8008172 <HAL_TIM_Base_Start_IT+0x4e>
 8008168:	689a      	ldr	r2, [r3, #8]
 800816a:	f002 0207 	and.w	r2, r2, #7
 800816e:	2a06      	cmp	r2, #6
 8008170:	d003      	beq.n	800817a <HAL_TIM_Base_Start_IT+0x56>
 8008172:	681a      	ldr	r2, [r3, #0]
 8008174:	f042 0201 	orr.w	r2, r2, #1
 8008178:	601a      	str	r2, [r3, #0]
 800817a:	2000      	movs	r0, #0
 800817c:	4770      	bx	lr
 800817e:	2001      	movs	r0, #1
 8008180:	4770      	bx	lr
 8008182:	bf00      	nop
 8008184:	40010000 	.word	0x40010000

08008188 <HAL_TIM_OC_DelayElapsedCallback>:
 8008188:	4770      	bx	lr

0800818a <HAL_TIM_IC_CaptureCallback>:
 800818a:	4770      	bx	lr

0800818c <HAL_TIM_PWM_PulseFinishedCallback>:
 800818c:	4770      	bx	lr

0800818e <HAL_TIM_TriggerCallback>:
 800818e:	4770      	bx	lr

08008190 <HAL_TIM_IRQHandler>:
 8008190:	6803      	ldr	r3, [r0, #0]
 8008192:	b570      	push	{r4, r5, r6, lr}
 8008194:	68dd      	ldr	r5, [r3, #12]
 8008196:	691e      	ldr	r6, [r3, #16]
 8008198:	07b1      	lsls	r1, r6, #30
 800819a:	4604      	mov	r4, r0
 800819c:	d50d      	bpl.n	80081ba <HAL_TIM_IRQHandler+0x2a>
 800819e:	07aa      	lsls	r2, r5, #30
 80081a0:	d50b      	bpl.n	80081ba <HAL_TIM_IRQHandler+0x2a>
 80081a2:	f06f 0202 	mvn.w	r2, #2
 80081a6:	611a      	str	r2, [r3, #16]
 80081a8:	2201      	movs	r2, #1
 80081aa:	7702      	strb	r2, [r0, #28]
 80081ac:	699b      	ldr	r3, [r3, #24]
 80081ae:	079b      	lsls	r3, r3, #30
 80081b0:	d069      	beq.n	8008286 <HAL_TIM_IRQHandler+0xf6>
 80081b2:	f7ff ffea 	bl	800818a <HAL_TIM_IC_CaptureCallback>
 80081b6:	2300      	movs	r3, #0
 80081b8:	7723      	strb	r3, [r4, #28]
 80081ba:	0771      	lsls	r1, r6, #29
 80081bc:	d510      	bpl.n	80081e0 <HAL_TIM_IRQHandler+0x50>
 80081be:	076a      	lsls	r2, r5, #29
 80081c0:	d50e      	bpl.n	80081e0 <HAL_TIM_IRQHandler+0x50>
 80081c2:	6823      	ldr	r3, [r4, #0]
 80081c4:	f06f 0204 	mvn.w	r2, #4
 80081c8:	611a      	str	r2, [r3, #16]
 80081ca:	2202      	movs	r2, #2
 80081cc:	7722      	strb	r2, [r4, #28]
 80081ce:	699b      	ldr	r3, [r3, #24]
 80081d0:	f413 7f40 	tst.w	r3, #768	@ 0x300
 80081d4:	4620      	mov	r0, r4
 80081d6:	d05c      	beq.n	8008292 <HAL_TIM_IRQHandler+0x102>
 80081d8:	f7ff ffd7 	bl	800818a <HAL_TIM_IC_CaptureCallback>
 80081dc:	2300      	movs	r3, #0
 80081de:	7723      	strb	r3, [r4, #28]
 80081e0:	0733      	lsls	r3, r6, #28
 80081e2:	d50f      	bpl.n	8008204 <HAL_TIM_IRQHandler+0x74>
 80081e4:	0728      	lsls	r0, r5, #28
 80081e6:	d50d      	bpl.n	8008204 <HAL_TIM_IRQHandler+0x74>
 80081e8:	6823      	ldr	r3, [r4, #0]
 80081ea:	f06f 0208 	mvn.w	r2, #8
 80081ee:	611a      	str	r2, [r3, #16]
 80081f0:	2204      	movs	r2, #4
 80081f2:	7722      	strb	r2, [r4, #28]
 80081f4:	69db      	ldr	r3, [r3, #28]
 80081f6:	0799      	lsls	r1, r3, #30
 80081f8:	4620      	mov	r0, r4
 80081fa:	d050      	beq.n	800829e <HAL_TIM_IRQHandler+0x10e>
 80081fc:	f7ff ffc5 	bl	800818a <HAL_TIM_IC_CaptureCallback>
 8008200:	2300      	movs	r3, #0
 8008202:	7723      	strb	r3, [r4, #28]
 8008204:	06f2      	lsls	r2, r6, #27
 8008206:	d510      	bpl.n	800822a <HAL_TIM_IRQHandler+0x9a>
 8008208:	06eb      	lsls	r3, r5, #27
 800820a:	d50e      	bpl.n	800822a <HAL_TIM_IRQHandler+0x9a>
 800820c:	6823      	ldr	r3, [r4, #0]
 800820e:	f06f 0210 	mvn.w	r2, #16
 8008212:	611a      	str	r2, [r3, #16]
 8008214:	2208      	movs	r2, #8
 8008216:	7722      	strb	r2, [r4, #28]
 8008218:	69db      	ldr	r3, [r3, #28]
 800821a:	f413 7f40 	tst.w	r3, #768	@ 0x300
 800821e:	4620      	mov	r0, r4
 8008220:	d043      	beq.n	80082aa <HAL_TIM_IRQHandler+0x11a>
 8008222:	f7ff ffb2 	bl	800818a <HAL_TIM_IC_CaptureCallback>
 8008226:	2300      	movs	r3, #0
 8008228:	7723      	strb	r3, [r4, #28]
 800822a:	07f0      	lsls	r0, r6, #31
 800822c:	d508      	bpl.n	8008240 <HAL_TIM_IRQHandler+0xb0>
 800822e:	07e9      	lsls	r1, r5, #31
 8008230:	d506      	bpl.n	8008240 <HAL_TIM_IRQHandler+0xb0>
 8008232:	6823      	ldr	r3, [r4, #0]
 8008234:	f06f 0201 	mvn.w	r2, #1
 8008238:	611a      	str	r2, [r3, #16]
 800823a:	4620      	mov	r0, r4
 800823c:	f7fa fcf4 	bl	8002c28 <HAL_TIM_PeriodElapsedCallback>
 8008240:	0632      	lsls	r2, r6, #24
 8008242:	d508      	bpl.n	8008256 <HAL_TIM_IRQHandler+0xc6>
 8008244:	062b      	lsls	r3, r5, #24
 8008246:	d506      	bpl.n	8008256 <HAL_TIM_IRQHandler+0xc6>
 8008248:	6823      	ldr	r3, [r4, #0]
 800824a:	f06f 0280 	mvn.w	r2, #128	@ 0x80
 800824e:	611a      	str	r2, [r3, #16]
 8008250:	4620      	mov	r0, r4
 8008252:	f000 fa8e 	bl	8008772 <HAL_TIMEx_BreakCallback>
 8008256:	0670      	lsls	r0, r6, #25
 8008258:	d508      	bpl.n	800826c <HAL_TIM_IRQHandler+0xdc>
 800825a:	0669      	lsls	r1, r5, #25
 800825c:	d506      	bpl.n	800826c <HAL_TIM_IRQHandler+0xdc>
 800825e:	6823      	ldr	r3, [r4, #0]
 8008260:	f06f 0240 	mvn.w	r2, #64	@ 0x40
 8008264:	611a      	str	r2, [r3, #16]
 8008266:	4620      	mov	r0, r4
 8008268:	f7ff ff91 	bl	800818e <HAL_TIM_TriggerCallback>
 800826c:	06b2      	lsls	r2, r6, #26
 800826e:	d522      	bpl.n	80082b6 <HAL_TIM_IRQHandler+0x126>
 8008270:	06ab      	lsls	r3, r5, #26
 8008272:	d520      	bpl.n	80082b6 <HAL_TIM_IRQHandler+0x126>
 8008274:	6823      	ldr	r3, [r4, #0]
 8008276:	f06f 0220 	mvn.w	r2, #32
 800827a:	4620      	mov	r0, r4
 800827c:	611a      	str	r2, [r3, #16]
 800827e:	e8bd 4070 	ldmia.w	sp!, {r4, r5, r6, lr}
 8008282:	f000 ba75 	b.w	8008770 <HAL_TIMEx_CommutCallback>
 8008286:	f7ff ff7f 	bl	8008188 <HAL_TIM_OC_DelayElapsedCallback>
 800828a:	4620      	mov	r0, r4
 800828c:	f7ff ff7e 	bl	800818c <HAL_TIM_PWM_PulseFinishedCallback>
 8008290:	e791      	b.n	80081b6 <HAL_TIM_IRQHandler+0x26>
 8008292:	f7ff ff79 	bl	8008188 <HAL_TIM_OC_DelayElapsedCallback>
 8008296:	4620      	mov	r0, r4
 8008298:	f7ff ff78 	bl	800818c <HAL_TIM_PWM_PulseFinishedCallback>
 800829c:	e79e      	b.n	80081dc <HAL_TIM_IRQHandler+0x4c>
 800829e:	f7ff ff73 	bl	8008188 <HAL_TIM_OC_DelayElapsedCallback>
 80082a2:	4620      	mov	r0, r4
 80082a4:	f7ff ff72 	bl	800818c <HAL_TIM_PWM_PulseFinishedCallback>
 80082a8:	e7aa      	b.n	8008200 <HAL_TIM_IRQHandler+0x70>
 80082aa:	f7ff ff6d 	bl	8008188 <HAL_TIM_OC_DelayElapsedCallback>
 80082ae:	4620      	mov	r0, r4
 80082b0:	f7ff ff6c 	bl	800818c <HAL_TIM_PWM_PulseFinishedCallback>
 80082b4:	e7b7      	b.n	8008226 <HAL_TIM_IRQHandler+0x96>
 80082b6:	bd70      	pop	{r4, r5, r6, pc}

080082b8 <TIM_Base_SetConfig>:
 80082b8:	4a1d      	ldr	r2, [pc, #116]	@ (8008330 <TIM_Base_SetConfig+0x78>)
 80082ba:	6803      	ldr	r3, [r0, #0]
 80082bc:	4290      	cmp	r0, r2
 80082be:	d00e      	beq.n	80082de <TIM_Base_SetConfig+0x26>
 80082c0:	f1b0 4f80 	cmp.w	r0, #1073741824	@ 0x40000000
 80082c4:	d00b      	beq.n	80082de <TIM_Base_SetConfig+0x26>
 80082c6:	f5a2 427c 	sub.w	r2, r2, #64512	@ 0xfc00
 80082ca:	4290      	cmp	r0, r2
 80082cc:	d007      	beq.n	80082de <TIM_Base_SetConfig+0x26>
 80082ce:	f502 6280 	add.w	r2, r2, #1024	@ 0x400
 80082d2:	4290      	cmp	r0, r2
 80082d4:	d003      	beq.n	80082de <TIM_Base_SetConfig+0x26>
 80082d6:	f502 6280 	add.w	r2, r2, #1024	@ 0x400
 80082da:	4290      	cmp	r0, r2
 80082dc:	d108      	bne.n	80082f0 <TIM_Base_SetConfig+0x38>
 80082de:	684a      	ldr	r2, [r1, #4]
 80082e0:	f023 0370 	bic.w	r3, r3, #112	@ 0x70
 80082e4:	4313      	orrs	r3, r2
 80082e6:	68ca      	ldr	r2, [r1, #12]
 80082e8:	f423 7340 	bic.w	r3, r3, #768	@ 0x300
 80082ec:	4313      	orrs	r3, r2
 80082ee:	e00a      	b.n	8008306 <TIM_Base_SetConfig+0x4e>
 80082f0:	4a10      	ldr	r2, [pc, #64]	@ (8008334 <TIM_Base_SetConfig+0x7c>)
 80082f2:	4290      	cmp	r0, r2
 80082f4:	d0f7      	beq.n	80082e6 <TIM_Base_SetConfig+0x2e>
 80082f6:	f502 6280 	add.w	r2, r2, #1024	@ 0x400
 80082fa:	4290      	cmp	r0, r2
 80082fc:	d0f3      	beq.n	80082e6 <TIM_Base_SetConfig+0x2e>
 80082fe:	f502 6280 	add.w	r2, r2, #1024	@ 0x400
 8008302:	4290      	cmp	r0, r2
 8008304:	d0ef      	beq.n	80082e6 <TIM_Base_SetConfig+0x2e>
 8008306:	694a      	ldr	r2, [r1, #20]
 8008308:	f023 0380 	bic.w	r3, r3, #128	@ 0x80
 800830c:	4313      	orrs	r3, r2
 800830e:	688a      	ldr	r2, [r1, #8]
 8008310:	62c2      	str	r2, [r0, #44]	@ 0x2c
 8008312:	680a      	ldr	r2, [r1, #0]
 8008314:	6282      	str	r2, [r0, #40]	@ 0x28
 8008316:	4a06      	ldr	r2, [pc, #24]	@ (8008330 <TIM_Base_SetConfig+0x78>)
 8008318:	4290      	cmp	r0, r2
 800831a:	bf04      	itt	eq
 800831c:	690a      	ldreq	r2, [r1, #16]
 800831e:	6302      	streq	r2, [r0, #48]	@ 0x30
 8008320:	6802      	ldr	r2, [r0, #0]
 8008322:	f042 0204 	orr.w	r2, r2, #4
 8008326:	6002      	str	r2, [r0, #0]
 8008328:	2201      	movs	r2, #1
 800832a:	6142      	str	r2, [r0, #20]
 800832c:	6003      	str	r3, [r0, #0]
 800832e:	4770      	bx	lr
 8008330:	40010000 	.word	0x40010000
 8008334:	40014000 	.word	0x40014000

08008338 <HAL_TIM_Base_Init>:
 8008338:	b510      	push	{r4, lr}
 800833a:	4604      	mov	r4, r0
 800833c:	b330      	cbz	r0, 800838c <HAL_TIM_Base_Init+0x54>
 800833e:	f890 303d 	ldrb.w	r3, [r0, #61]	@ 0x3d
 8008342:	f003 02ff 	and.w	r2, r3, #255	@ 0xff
 8008346:	b91b      	cbnz	r3, 8008350 <HAL_TIM_Base_Init+0x18>
 8008348:	f880 203c 	strb.w	r2, [r0, #60]	@ 0x3c
 800834c:	f7fc f8d4 	bl	80044f8 <HAL_TIM_Base_MspInit>
 8008350:	2302      	movs	r3, #2
 8008352:	6820      	ldr	r0, [r4, #0]
 8008354:	f884 303d 	strb.w	r3, [r4, #61]	@ 0x3d
 8008358:	1d21      	adds	r1, r4, #4
 800835a:	f7ff ffad 	bl	80082b8 <TIM_Base_SetConfig>
 800835e:	2301      	movs	r3, #1
 8008360:	f884 3046 	strb.w	r3, [r4, #70]	@ 0x46
 8008364:	2000      	movs	r0, #0
 8008366:	f884 303e 	strb.w	r3, [r4, #62]	@ 0x3e
 800836a:	f884 303f 	strb.w	r3, [r4, #63]	@ 0x3f
 800836e:	f884 3040 	strb.w	r3, [r4, #64]	@ 0x40
 8008372:	f884 3041 	strb.w	r3, [r4, #65]	@ 0x41
 8008376:	f884 3042 	strb.w	r3, [r4, #66]	@ 0x42
 800837a:	f884 3043 	strb.w	r3, [r4, #67]	@ 0x43
 800837e:	f884 3044 	strb.w	r3, [r4, #68]	@ 0x44
 8008382:	f884 3045 	strb.w	r3, [r4, #69]	@ 0x45
 8008386:	f884 303d 	strb.w	r3, [r4, #61]	@ 0x3d
 800838a:	bd10      	pop	{r4, pc}
 800838c:	2001      	movs	r0, #1
 800838e:	e7fc      	b.n	800838a <HAL_TIM_Base_Init+0x52>

08008390 <HAL_TIM_PWM_Init>:
 8008390:	b510      	push	{r4, lr}
 8008392:	4604      	mov	r4, r0
 8008394:	b330      	cbz	r0, 80083e4 <HAL_TIM_PWM_Init+0x54>
 8008396:	f890 303d 	ldrb.w	r3, [r0, #61]	@ 0x3d
 800839a:	f003 02ff 	and.w	r2, r3, #255	@ 0xff
 800839e:	b91b      	cbnz	r3, 80083a8 <HAL_TIM_PWM_Init+0x18>
 80083a0:	f880 203c 	strb.w	r2, [r0, #60]	@ 0x3c
 80083a4:	f7fc f926 	bl	80045f4 <HAL_TIM_PWM_MspInit>
 80083a8:	2302      	movs	r3, #2
 80083aa:	6820      	ldr	r0, [r4, #0]
 80083ac:	f884 303d 	strb.w	r3, [r4, #61]	@ 0x3d
 80083b0:	1d21      	adds	r1, r4, #4
 80083b2:	f7ff ff81 	bl	80082b8 <TIM_Base_SetConfig>
 80083b6:	2301      	movs	r3, #1
 80083b8:	f884 3046 	strb.w	r3, [r4, #70]	@ 0x46
 80083bc:	2000      	movs	r0, #0
 80083be:	f884 303e 	strb.w	r3, [r4, #62]	@ 0x3e
 80083c2:	f884 303f 	strb.w	r3, [r4, #63]	@ 0x3f
 80083c6:	f884 3040 	strb.w	r3, [r4, #64]	@ 0x40
 80083ca:	f884 3041 	strb.w	r3, [r4, #65]	@ 0x41
 80083ce:	f884 3042 	strb.w	r3, [r4, #66]	@ 0x42
 80083d2:	f884 3043 	strb.w	r3, [r4, #67]	@ 0x43
 80083d6:	f884 3044 	strb.w	r3, [r4, #68]	@ 0x44
 80083da:	f884 3045 	strb.w	r3, [r4, #69]	@ 0x45
 80083de:	f884 303d 	strb.w	r3, [r4, #61]	@ 0x3d
 80083e2:	bd10      	pop	{r4, pc}
 80083e4:	2001      	movs	r0, #1
 80083e6:	e7fc      	b.n	80083e2 <HAL_TIM_PWM_Init+0x52>

080083e8 <TIM_OC2_SetConfig>:
 80083e8:	6a03      	ldr	r3, [r0, #32]
 80083ea:	6a02      	ldr	r2, [r0, #32]
 80083ec:	f022 0210 	bic.w	r2, r2, #16
 80083f0:	b570      	push	{r4, r5, r6, lr}
 80083f2:	6202      	str	r2, [r0, #32]
 80083f4:	6844      	ldr	r4, [r0, #4]
 80083f6:	6982      	ldr	r2, [r0, #24]
 80083f8:	680d      	ldr	r5, [r1, #0]
 80083fa:	f422 42e6 	bic.w	r2, r2, #29440	@ 0x7300
 80083fe:	ea42 2205 	orr.w	r2, r2, r5, lsl #8
 8008402:	688d      	ldr	r5, [r1, #8]
 8008404:	f023 0320 	bic.w	r3, r3, #32
 8008408:	ea43 1305 	orr.w	r3, r3, r5, lsl #4
 800840c:	4d0b      	ldr	r5, [pc, #44]	@ (800843c <TIM_OC2_SetConfig+0x54>)
 800840e:	42a8      	cmp	r0, r5
 8008410:	d10d      	bne.n	800842e <TIM_OC2_SetConfig+0x46>
 8008412:	68cd      	ldr	r5, [r1, #12]
 8008414:	f023 0380 	bic.w	r3, r3, #128	@ 0x80
 8008418:	ea43 1305 	orr.w	r3, r3, r5, lsl #4
 800841c:	e9d1 5605 	ldrd	r5, r6, [r1, #20]
 8008420:	f424 6440 	bic.w	r4, r4, #3072	@ 0xc00
 8008424:	4335      	orrs	r5, r6
 8008426:	f023 0340 	bic.w	r3, r3, #64	@ 0x40
 800842a:	ea44 0485 	orr.w	r4, r4, r5, lsl #2
 800842e:	6044      	str	r4, [r0, #4]
 8008430:	6182      	str	r2, [r0, #24]
 8008432:	684a      	ldr	r2, [r1, #4]
 8008434:	6382      	str	r2, [r0, #56]	@ 0x38
 8008436:	6203      	str	r3, [r0, #32]
 8008438:	bd70      	pop	{r4, r5, r6, pc}
 800843a:	bf00      	nop
 800843c:	40010000 	.word	0x40010000

08008440 <HAL_TIM_PWM_ConfigChannel>:
 8008440:	b538      	push	{r3, r4, r5, lr}
 8008442:	f890 303c 	ldrb.w	r3, [r0, #60]	@ 0x3c
 8008446:	2b01      	cmp	r3, #1
 8008448:	4604      	mov	r4, r0
 800844a:	d04f      	beq.n	80084ec <HAL_TIM_PWM_ConfigChannel+0xac>
 800844c:	2001      	movs	r0, #1
 800844e:	2a08      	cmp	r2, #8
 8008450:	f884 003c 	strb.w	r0, [r4, #60]	@ 0x3c
 8008454:	d03a      	beq.n	80084cc <HAL_TIM_PWM_ConfigChannel+0x8c>
 8008456:	d806      	bhi.n	8008466 <HAL_TIM_PWM_ConfigChannel+0x26>
 8008458:	b1ba      	cbz	r2, 800848a <HAL_TIM_PWM_ConfigChannel+0x4a>
 800845a:	2a04      	cmp	r2, #4
 800845c:	d026      	beq.n	80084ac <HAL_TIM_PWM_ConfigChannel+0x6c>
 800845e:	2300      	movs	r3, #0
 8008460:	f884 303c 	strb.w	r3, [r4, #60]	@ 0x3c
 8008464:	bd38      	pop	{r3, r4, r5, pc}
 8008466:	2a0c      	cmp	r2, #12
 8008468:	d1f9      	bne.n	800845e <HAL_TIM_PWM_ConfigChannel+0x1e>
 800846a:	6820      	ldr	r0, [r4, #0]
 800846c:	f7ff fe0a 	bl	8008084 <TIM_OC4_SetConfig>
 8008470:	69c3      	ldr	r3, [r0, #28]
 8008472:	690a      	ldr	r2, [r1, #16]
 8008474:	f443 6300 	orr.w	r3, r3, #2048	@ 0x800
 8008478:	61c3      	str	r3, [r0, #28]
 800847a:	69c3      	ldr	r3, [r0, #28]
 800847c:	f423 6380 	bic.w	r3, r3, #1024	@ 0x400
 8008480:	61c3      	str	r3, [r0, #28]
 8008482:	69c3      	ldr	r3, [r0, #28]
 8008484:	ea43 2302 	orr.w	r3, r3, r2, lsl #8
 8008488:	e02e      	b.n	80084e8 <HAL_TIM_PWM_ConfigChannel+0xa8>
 800848a:	6820      	ldr	r0, [r4, #0]
 800848c:	f7ff fda8 	bl	8007fe0 <TIM_OC1_SetConfig>
 8008490:	6983      	ldr	r3, [r0, #24]
 8008492:	690a      	ldr	r2, [r1, #16]
 8008494:	f043 0308 	orr.w	r3, r3, #8
 8008498:	6183      	str	r3, [r0, #24]
 800849a:	6983      	ldr	r3, [r0, #24]
 800849c:	f023 0304 	bic.w	r3, r3, #4
 80084a0:	6183      	str	r3, [r0, #24]
 80084a2:	6983      	ldr	r3, [r0, #24]
 80084a4:	4313      	orrs	r3, r2
 80084a6:	6183      	str	r3, [r0, #24]
 80084a8:	2000      	movs	r0, #0
 80084aa:	e7d8      	b.n	800845e <HAL_TIM_PWM_ConfigChannel+0x1e>
 80084ac:	6820      	ldr	r0, [r4, #0]
 80084ae:	f7ff ff9b 	bl	80083e8 <TIM_OC2_SetConfig>
 80084b2:	6983      	ldr	r3, [r0, #24]
 80084b4:	690a      	ldr	r2, [r1, #16]
 80084b6:	f443 6300 	orr.w	r3, r3, #2048	@ 0x800
 80084ba:	6183      	str	r3, [r0, #24]
 80084bc:	6983      	ldr	r3, [r0, #24]
 80084be:	f423 6380 	bic.w	r3, r3, #1024	@ 0x400
 80084c2:	6183      	str	r3, [r0, #24]
 80084c4:	6983      	ldr	r3, [r0, #24]
 80084c6:	ea43 2302 	orr.w	r3, r3, r2, lsl #8
 80084ca:	e7ec      	b.n	80084a6 <HAL_TIM_PWM_ConfigChannel+0x66>
 80084cc:	6820      	ldr	r0, [r4, #0]
 80084ce:	f7ff fdaf 	bl	8008030 <TIM_OC3_SetConfig>
 80084d2:	69c3      	ldr	r3, [r0, #28]
 80084d4:	690a      	ldr	r2, [r1, #16]
 80084d6:	f043 0308 	orr.w	r3, r3, #8
 80084da:	61c3      	str	r3, [r0, #28]
 80084dc:	69c3      	ldr	r3, [r0, #28]
 80084de:	f023 0304 	bic.w	r3, r3, #4
 80084e2:	61c3      	str	r3, [r0, #28]
 80084e4:	69c3      	ldr	r3, [r0, #28]
 80084e6:	4313      	orrs	r3, r2
 80084e8:	61c3      	str	r3, [r0, #28]
 80084ea:	e7dd      	b.n	80084a8 <HAL_TIM_PWM_ConfigChannel+0x68>
 80084ec:	2002      	movs	r0, #2
 80084ee:	e7b9      	b.n	8008464 <HAL_TIM_PWM_ConfigChannel+0x24>

080084f0 <TIM_ETR_SetConfig>:
 80084f0:	b510      	push	{r4, lr}
 80084f2:	6884      	ldr	r4, [r0, #8]
 80084f4:	430a      	orrs	r2, r1
 80084f6:	f424 447f 	bic.w	r4, r4, #65280	@ 0xff00
 80084fa:	ea42 2203 	orr.w	r2, r2, r3, lsl #8
 80084fe:	4322      	orrs	r2, r4
 8008500:	6082      	str	r2, [r0, #8]
 8008502:	bd10      	pop	{r4, pc}

08008504 <HAL_TIM_ConfigClockSource>:
 8008504:	b538      	push	{r3, r4, r5, lr}
 8008506:	f890 303c 	ldrb.w	r3, [r0, #60]	@ 0x3c
 800850a:	2b01      	cmp	r3, #1
 800850c:	4604      	mov	r4, r0
 800850e:	f04f 0002 	mov.w	r0, #2
 8008512:	f000 808e 	beq.w	8008632 <HAL_TIM_ConfigClockSource+0x12e>
 8008516:	f884 003d 	strb.w	r0, [r4, #61]	@ 0x3d
 800851a:	2201      	movs	r2, #1
 800851c:	6820      	ldr	r0, [r4, #0]
 800851e:	f884 203c 	strb.w	r2, [r4, #60]	@ 0x3c
 8008522:	6883      	ldr	r3, [r0, #8]
 8008524:	f423 437f 	bic.w	r3, r3, #65280	@ 0xff00
 8008528:	f023 0377 	bic.w	r3, r3, #119	@ 0x77
 800852c:	6083      	str	r3, [r0, #8]
 800852e:	680b      	ldr	r3, [r1, #0]
 8008530:	2b60      	cmp	r3, #96	@ 0x60
 8008532:	d04f      	beq.n	80085d4 <HAL_TIM_ConfigClockSource+0xd0>
 8008534:	d832      	bhi.n	800859c <HAL_TIM_ConfigClockSource+0x98>
 8008536:	2b40      	cmp	r3, #64	@ 0x40
 8008538:	d064      	beq.n	8008604 <HAL_TIM_ConfigClockSource+0x100>
 800853a:	d816      	bhi.n	800856a <HAL_TIM_ConfigClockSource+0x66>
 800853c:	2b20      	cmp	r3, #32
 800853e:	d00d      	beq.n	800855c <HAL_TIM_ConfigClockSource+0x58>
 8008540:	d80a      	bhi.n	8008558 <HAL_TIM_ConfigClockSource+0x54>
 8008542:	f033 0110 	bics.w	r1, r3, #16
 8008546:	d009      	beq.n	800855c <HAL_TIM_ConfigClockSource+0x58>
 8008548:	2301      	movs	r3, #1
 800854a:	f884 303d 	strb.w	r3, [r4, #61]	@ 0x3d
 800854e:	2300      	movs	r3, #0
 8008550:	f884 303c 	strb.w	r3, [r4, #60]	@ 0x3c
 8008554:	4610      	mov	r0, r2
 8008556:	bd38      	pop	{r3, r4, r5, pc}
 8008558:	2b30      	cmp	r3, #48	@ 0x30
 800855a:	d1f5      	bne.n	8008548 <HAL_TIM_ConfigClockSource+0x44>
 800855c:	6882      	ldr	r2, [r0, #8]
 800855e:	f022 0270 	bic.w	r2, r2, #112	@ 0x70
 8008562:	4313      	orrs	r3, r2
 8008564:	f043 0307 	orr.w	r3, r3, #7
 8008568:	e028      	b.n	80085bc <HAL_TIM_ConfigClockSource+0xb8>
 800856a:	2b50      	cmp	r3, #80	@ 0x50
 800856c:	d1ec      	bne.n	8008548 <HAL_TIM_ConfigClockSource+0x44>
 800856e:	684a      	ldr	r2, [r1, #4]
 8008570:	68cd      	ldr	r5, [r1, #12]
 8008572:	6a01      	ldr	r1, [r0, #32]
 8008574:	6a03      	ldr	r3, [r0, #32]
 8008576:	f023 0301 	bic.w	r3, r3, #1
 800857a:	6203      	str	r3, [r0, #32]
 800857c:	6983      	ldr	r3, [r0, #24]
 800857e:	f021 010a 	bic.w	r1, r1, #10
 8008582:	f023 03f0 	bic.w	r3, r3, #240	@ 0xf0
 8008586:	ea43 1305 	orr.w	r3, r3, r5, lsl #4
 800858a:	430a      	orrs	r2, r1
 800858c:	6183      	str	r3, [r0, #24]
 800858e:	6202      	str	r2, [r0, #32]
 8008590:	6883      	ldr	r3, [r0, #8]
 8008592:	f023 0370 	bic.w	r3, r3, #112	@ 0x70
 8008596:	f043 0357 	orr.w	r3, r3, #87	@ 0x57
 800859a:	e00f      	b.n	80085bc <HAL_TIM_ConfigClockSource+0xb8>
 800859c:	f5b3 5f80 	cmp.w	r3, #4096	@ 0x1000
 80085a0:	d00d      	beq.n	80085be <HAL_TIM_ConfigClockSource+0xba>
 80085a2:	f5b3 5f00 	cmp.w	r3, #8192	@ 0x2000
 80085a6:	d00c      	beq.n	80085c2 <HAL_TIM_ConfigClockSource+0xbe>
 80085a8:	2b70      	cmp	r3, #112	@ 0x70
 80085aa:	d1cd      	bne.n	8008548 <HAL_TIM_ConfigClockSource+0x44>
 80085ac:	68cb      	ldr	r3, [r1, #12]
 80085ae:	e9d1 2101 	ldrd	r2, r1, [r1, #4]
 80085b2:	f7ff ff9d 	bl	80084f0 <TIM_ETR_SetConfig>
 80085b6:	6883      	ldr	r3, [r0, #8]
 80085b8:	f043 0377 	orr.w	r3, r3, #119	@ 0x77
 80085bc:	6083      	str	r3, [r0, #8]
 80085be:	2200      	movs	r2, #0
 80085c0:	e7c2      	b.n	8008548 <HAL_TIM_ConfigClockSource+0x44>
 80085c2:	68cb      	ldr	r3, [r1, #12]
 80085c4:	e9d1 2101 	ldrd	r2, r1, [r1, #4]
 80085c8:	f7ff ff92 	bl	80084f0 <TIM_ETR_SetConfig>
 80085cc:	6883      	ldr	r3, [r0, #8]
 80085ce:	f443 4380 	orr.w	r3, r3, #16384	@ 0x4000
 80085d2:	e7f3      	b.n	80085bc <HAL_TIM_ConfigClockSource+0xb8>
 80085d4:	6a03      	ldr	r3, [r0, #32]
 80085d6:	6a02      	ldr	r2, [r0, #32]
 80085d8:	684d      	ldr	r5, [r1, #4]
 80085da:	68c9      	ldr	r1, [r1, #12]
 80085dc:	f022 0210 	bic.w	r2, r2, #16
 80085e0:	6202      	str	r2, [r0, #32]
 80085e2:	6982      	ldr	r2, [r0, #24]
 80085e4:	f023 03a0 	bic.w	r3, r3, #160	@ 0xa0
 80085e8:	f422 4270 	bic.w	r2, r2, #61440	@ 0xf000
 80085ec:	ea43 1305 	orr.w	r3, r3, r5, lsl #4
 80085f0:	ea42 3201 	orr.w	r2, r2, r1, lsl #12
 80085f4:	6182      	str	r2, [r0, #24]
 80085f6:	6203      	str	r3, [r0, #32]
 80085f8:	6883      	ldr	r3, [r0, #8]
 80085fa:	f023 0370 	bic.w	r3, r3, #112	@ 0x70
 80085fe:	f043 0367 	orr.w	r3, r3, #103	@ 0x67
 8008602:	e7db      	b.n	80085bc <HAL_TIM_ConfigClockSource+0xb8>
 8008604:	684a      	ldr	r2, [r1, #4]
 8008606:	68cd      	ldr	r5, [r1, #12]
 8008608:	6a01      	ldr	r1, [r0, #32]
 800860a:	6a03      	ldr	r3, [r0, #32]
 800860c:	f023 0301 	bic.w	r3, r3, #1
 8008610:	6203      	str	r3, [r0, #32]
 8008612:	6983      	ldr	r3, [r0, #24]
 8008614:	f021 010a 	bic.w	r1, r1, #10
 8008618:	f023 03f0 	bic.w	r3, r3, #240	@ 0xf0
 800861c:	ea43 1305 	orr.w	r3, r3, r5, lsl #4
 8008620:	430a      	orrs	r2, r1
 8008622:	6183      	str	r3, [r0, #24]
 8008624:	6202      	str	r2, [r0, #32]
 8008626:	6883      	ldr	r3, [r0, #8]
 8008628:	f023 0370 	bic.w	r3, r3, #112	@ 0x70
 800862c:	f043 0347 	orr.w	r3, r3, #71	@ 0x47
 8008630:	e7c4      	b.n	80085bc <HAL_TIM_ConfigClockSource+0xb8>
 8008632:	4602      	mov	r2, r0
 8008634:	e78e      	b.n	8008554 <HAL_TIM_ConfigClockSource+0x50>

08008636 <TIM_CCxChannelCmd>:
 8008636:	6a03      	ldr	r3, [r0, #32]
 8008638:	b510      	push	{r4, lr}
 800863a:	f001 011f 	and.w	r1, r1, #31
 800863e:	2401      	movs	r4, #1
 8008640:	408c      	lsls	r4, r1
 8008642:	ea23 0304 	bic.w	r3, r3, r4
 8008646:	6203      	str	r3, [r0, #32]
 8008648:	6a03      	ldr	r3, [r0, #32]
 800864a:	408a      	lsls	r2, r1
 800864c:	431a      	orrs	r2, r3
 800864e:	6202      	str	r2, [r0, #32]
 8008650:	bd10      	pop	{r4, pc}
	...

08008654 <HAL_TIM_OC_Start>:
 8008654:	b508      	push	{r3, lr}
 8008656:	b929      	cbnz	r1, 8008664 <HAL_TIM_OC_Start+0x10>
 8008658:	f890 303e 	ldrb.w	r3, [r0, #62]	@ 0x3e
 800865c:	2b01      	cmp	r3, #1
 800865e:	d01d      	beq.n	800869c <HAL_TIM_OC_Start+0x48>
 8008660:	2001      	movs	r0, #1
 8008662:	e02e      	b.n	80086c2 <HAL_TIM_OC_Start+0x6e>
 8008664:	2904      	cmp	r1, #4
 8008666:	d107      	bne.n	8008678 <HAL_TIM_OC_Start+0x24>
 8008668:	f890 303f 	ldrb.w	r3, [r0, #63]	@ 0x3f
 800866c:	2b01      	cmp	r3, #1
 800866e:	d1f7      	bne.n	8008660 <HAL_TIM_OC_Start+0xc>
 8008670:	2302      	movs	r3, #2
 8008672:	f880 303f 	strb.w	r3, [r0, #63]	@ 0x3f
 8008676:	e014      	b.n	80086a2 <HAL_TIM_OC_Start+0x4e>
 8008678:	2908      	cmp	r1, #8
 800867a:	d107      	bne.n	800868c <HAL_TIM_OC_Start+0x38>
 800867c:	f890 3040 	ldrb.w	r3, [r0, #64]	@ 0x40
 8008680:	2b01      	cmp	r3, #1
 8008682:	d1ed      	bne.n	8008660 <HAL_TIM_OC_Start+0xc>
 8008684:	2302      	movs	r3, #2
 8008686:	f880 3040 	strb.w	r3, [r0, #64]	@ 0x40
 800868a:	e00a      	b.n	80086a2 <HAL_TIM_OC_Start+0x4e>
 800868c:	f890 3041 	ldrb.w	r3, [r0, #65]	@ 0x41
 8008690:	2b01      	cmp	r3, #1
 8008692:	d1e5      	bne.n	8008660 <HAL_TIM_OC_Start+0xc>
 8008694:	2302      	movs	r3, #2
 8008696:	f880 3041 	strb.w	r3, [r0, #65]	@ 0x41
 800869a:	e002      	b.n	80086a2 <HAL_TIM_OC_Start+0x4e>
 800869c:	2302      	movs	r3, #2
 800869e:	f880 303e 	strb.w	r3, [r0, #62]	@ 0x3e
 80086a2:	6800      	ldr	r0, [r0, #0]
 80086a4:	2201      	movs	r2, #1
 80086a6:	f7ff ffc6 	bl	8008636 <TIM_CCxChannelCmd>
 80086aa:	4b13      	ldr	r3, [pc, #76]	@ (80086f8 <HAL_TIM_OC_Start+0xa4>)
 80086ac:	4298      	cmp	r0, r3
 80086ae:	d009      	beq.n	80086c4 <HAL_TIM_OC_Start+0x70>
 80086b0:	f1b0 4f80 	cmp.w	r0, #1073741824	@ 0x40000000
 80086b4:	d10b      	bne.n	80086ce <HAL_TIM_OC_Start+0x7a>
 80086b6:	6883      	ldr	r3, [r0, #8]
 80086b8:	f003 0307 	and.w	r3, r3, #7
 80086bc:	2b06      	cmp	r3, #6
 80086be:	d115      	bne.n	80086ec <HAL_TIM_OC_Start+0x98>
 80086c0:	2000      	movs	r0, #0
 80086c2:	bd08      	pop	{r3, pc}
 80086c4:	6c43      	ldr	r3, [r0, #68]	@ 0x44
 80086c6:	f443 4300 	orr.w	r3, r3, #32768	@ 0x8000
 80086ca:	6443      	str	r3, [r0, #68]	@ 0x44
 80086cc:	e7f3      	b.n	80086b6 <HAL_TIM_OC_Start+0x62>
 80086ce:	4b0b      	ldr	r3, [pc, #44]	@ (80086fc <HAL_TIM_OC_Start+0xa8>)
 80086d0:	4298      	cmp	r0, r3
 80086d2:	d0f0      	beq.n	80086b6 <HAL_TIM_OC_Start+0x62>
 80086d4:	f503 6380 	add.w	r3, r3, #1024	@ 0x400
 80086d8:	4298      	cmp	r0, r3
 80086da:	d0ec      	beq.n	80086b6 <HAL_TIM_OC_Start+0x62>
 80086dc:	f503 6380 	add.w	r3, r3, #1024	@ 0x400
 80086e0:	4298      	cmp	r0, r3
 80086e2:	d0e8      	beq.n	80086b6 <HAL_TIM_OC_Start+0x62>
 80086e4:	f503 339a 	add.w	r3, r3, #78848	@ 0x13400
 80086e8:	4298      	cmp	r0, r3
 80086ea:	d0e4      	beq.n	80086b6 <HAL_TIM_OC_Start+0x62>
 80086ec:	6803      	ldr	r3, [r0, #0]
 80086ee:	f043 0301 	orr.w	r3, r3, #1
 80086f2:	6003      	str	r3, [r0, #0]
 80086f4:	e7e4      	b.n	80086c0 <HAL_TIM_OC_Start+0x6c>
 80086f6:	bf00      	nop
 80086f8:	40010000 	.word	0x40010000
 80086fc:	40000400 	.word	0x40000400

08008700 <HAL_TIM_PWM_Start>:
 8008700:	f7ff bfa8 	b.w	8008654 <HAL_TIM_OC_Start>

08008704 <HAL_TIMEx_MasterConfigSynchronization>:
 8008704:	b530      	push	{r4, r5, lr}
 8008706:	f890 303c 	ldrb.w	r3, [r0, #60]	@ 0x3c
 800870a:	2b01      	cmp	r3, #1
 800870c:	4602      	mov	r2, r0
 800870e:	f04f 0002 	mov.w	r0, #2
 8008712:	d02a      	beq.n	800876a <HAL_TIMEx_MasterConfigSynchronization+0x66>
 8008714:	6813      	ldr	r3, [r2, #0]
 8008716:	f882 003d 	strb.w	r0, [r2, #61]	@ 0x3d
 800871a:	685c      	ldr	r4, [r3, #4]
 800871c:	680d      	ldr	r5, [r1, #0]
 800871e:	6898      	ldr	r0, [r3, #8]
 8008720:	f024 0470 	bic.w	r4, r4, #112	@ 0x70
 8008724:	432c      	orrs	r4, r5
 8008726:	605c      	str	r4, [r3, #4]
 8008728:	4c10      	ldr	r4, [pc, #64]	@ (800876c <HAL_TIMEx_MasterConfigSynchronization+0x68>)
 800872a:	42a3      	cmp	r3, r4
 800872c:	d012      	beq.n	8008754 <HAL_TIMEx_MasterConfigSynchronization+0x50>
 800872e:	f1b3 4f80 	cmp.w	r3, #1073741824	@ 0x40000000
 8008732:	d00f      	beq.n	8008754 <HAL_TIMEx_MasterConfigSynchronization+0x50>
 8008734:	f5a4 447c 	sub.w	r4, r4, #64512	@ 0xfc00
 8008738:	42a3      	cmp	r3, r4
 800873a:	d00b      	beq.n	8008754 <HAL_TIMEx_MasterConfigSynchronization+0x50>
 800873c:	f504 6480 	add.w	r4, r4, #1024	@ 0x400
 8008740:	42a3      	cmp	r3, r4
 8008742:	d007      	beq.n	8008754 <HAL_TIMEx_MasterConfigSynchronization+0x50>
 8008744:	f504 6480 	add.w	r4, r4, #1024	@ 0x400
 8008748:	42a3      	cmp	r3, r4
 800874a:	d003      	beq.n	8008754 <HAL_TIMEx_MasterConfigSynchronization+0x50>
 800874c:	f504 349a 	add.w	r4, r4, #78848	@ 0x13400
 8008750:	42a3      	cmp	r3, r4
 8008752:	d104      	bne.n	800875e <HAL_TIMEx_MasterConfigSynchronization+0x5a>
 8008754:	6849      	ldr	r1, [r1, #4]
 8008756:	f020 0080 	bic.w	r0, r0, #128	@ 0x80
 800875a:	4301      	orrs	r1, r0
 800875c:	6099      	str	r1, [r3, #8]
 800875e:	2301      	movs	r3, #1
 8008760:	2000      	movs	r0, #0
 8008762:	f882 303d 	strb.w	r3, [r2, #61]	@ 0x3d
 8008766:	f882 003c 	strb.w	r0, [r2, #60]	@ 0x3c
 800876a:	bd30      	pop	{r4, r5, pc}
 800876c:	40010000 	.word	0x40010000

08008770 <HAL_TIMEx_CommutCallback>:
 8008770:	4770      	bx	lr

08008772 <HAL_TIMEx_BreakCallback>:
 8008772:	4770      	bx	lr

08008774 <UART_EndRxTransfer>:
 8008774:	6802      	ldr	r2, [r0, #0]
 8008776:	f102 030c 	add.w	r3, r2, #12
 800877a:	e853 3f00 	ldrex	r3, [r3]
 800877e:	f423 7390 	bic.w	r3, r3, #288	@ 0x120
 8008782:	320c      	adds	r2, #12
 8008784:	e842 3100 	strex	r1, r3, [r2]
 8008788:	6802      	ldr	r2, [r0, #0]
 800878a:	2900      	cmp	r1, #0
 800878c:	d1f2      	bne.n	8008774 <UART_EndRxTransfer>
 800878e:	f102 0314 	add.w	r3, r2, #20
 8008792:	e853 3f00 	ldrex	r3, [r3]
 8008796:	f023 0301 	bic.w	r3, r3, #1
 800879a:	f102 0c14 	add.w	ip, r2, #20
 800879e:	e84c 3100 	strex	r1, r3, [ip]
 80087a2:	2900      	cmp	r1, #0
 80087a4:	d1f3      	bne.n	800878e <UART_EndRxTransfer+0x1a>
 80087a6:	6b03      	ldr	r3, [r0, #48]	@ 0x30
 80087a8:	2b01      	cmp	r3, #1
 80087aa:	d10b      	bne.n	80087c4 <UART_EndRxTransfer+0x50>
 80087ac:	f102 030c 	add.w	r3, r2, #12
 80087b0:	e853 3f00 	ldrex	r3, [r3]
 80087b4:	f023 0310 	bic.w	r3, r3, #16
 80087b8:	f102 0c0c 	add.w	ip, r2, #12
 80087bc:	e84c 3100 	strex	r1, r3, [ip]
 80087c0:	2900      	cmp	r1, #0
 80087c2:	d1f3      	bne.n	80087ac <UART_EndRxTransfer+0x38>
 80087c4:	2320      	movs	r3, #32
 80087c6:	f880 3042 	strb.w	r3, [r0, #66]	@ 0x42
 80087ca:	2300      	movs	r3, #0
 80087cc:	6303      	str	r3, [r0, #48]	@ 0x30
 80087ce:	4770      	bx	lr

080087d0 <UART_SetConfig>:
 80087d0:	6802      	ldr	r2, [r0, #0]
 80087d2:	68c1      	ldr	r1, [r0, #12]
 80087d4:	b538      	push	{r3, r4, r5, lr}
 80087d6:	6913      	ldr	r3, [r2, #16]
 80087d8:	f423 5340 	bic.w	r3, r3, #12288	@ 0x3000
 80087dc:	430b      	orrs	r3, r1
 80087de:	6113      	str	r3, [r2, #16]
 80087e0:	4605      	mov	r5, r0
 80087e2:	6883      	ldr	r3, [r0, #8]
 80087e4:	6900      	ldr	r0, [r0, #16]
 80087e6:	68d1      	ldr	r1, [r2, #12]
 80087e8:	4303      	orrs	r3, r0
 80087ea:	6968      	ldr	r0, [r5, #20]
 80087ec:	4303      	orrs	r3, r0
 80087ee:	69e8      	ldr	r0, [r5, #28]
 80087f0:	f421 4116 	bic.w	r1, r1, #38400	@ 0x9600
 80087f4:	f021 010c 	bic.w	r1, r1, #12
 80087f8:	4303      	orrs	r3, r0
 80087fa:	430b      	orrs	r3, r1
 80087fc:	60d3      	str	r3, [r2, #12]
 80087fe:	6953      	ldr	r3, [r2, #20]
 8008800:	69a9      	ldr	r1, [r5, #24]
 8008802:	f423 7340 	bic.w	r3, r3, #768	@ 0x300
 8008806:	430b      	orrs	r3, r1
 8008808:	6153      	str	r3, [r2, #20]
 800880a:	4b1f      	ldr	r3, [pc, #124]	@ (8008888 <UART_SetConfig+0xb8>)
 800880c:	429a      	cmp	r2, r3
 800880e:	d003      	beq.n	8008818 <UART_SetConfig+0x48>
 8008810:	f503 6380 	add.w	r3, r3, #1024	@ 0x400
 8008814:	429a      	cmp	r2, r3
 8008816:	d124      	bne.n	8008862 <UART_SetConfig+0x92>
 8008818:	f7ff fbd2 	bl	8007fc0 <HAL_RCC_GetPCLK2Freq>
 800881c:	69ea      	ldr	r2, [r5, #28]
 800881e:	2119      	movs	r1, #25
 8008820:	f5b2 4f00 	cmp.w	r2, #32768	@ 0x8000
 8008824:	e9d5 4300 	ldrd	r4, r3, [r5]
 8008828:	fba0 0101 	umull	r0, r1, r0, r1
 800882c:	d11c      	bne.n	8008868 <UART_SetConfig+0x98>
 800882e:	18da      	adds	r2, r3, r3
 8008830:	f04f 0500 	mov.w	r5, #0
 8008834:	eb45 0305 	adc.w	r3, r5, r5
 8008838:	f7f8 f870 	bl	800091c <__aeabi_uldivmod>
 800883c:	2264      	movs	r2, #100	@ 0x64
 800883e:	fbb0 f1f2 	udiv	r1, r0, r2
 8008842:	fb02 0311 	mls	r3, r2, r1, r0
 8008846:	00db      	lsls	r3, r3, #3
 8008848:	3332      	adds	r3, #50	@ 0x32
 800884a:	fbb3 f3f2 	udiv	r3, r3, r2
 800884e:	f003 0207 	and.w	r2, r3, #7
 8008852:	005b      	lsls	r3, r3, #1
 8008854:	eb02 1201 	add.w	r2, r2, r1, lsl #4
 8008858:	f403 73f8 	and.w	r3, r3, #496	@ 0x1f0
 800885c:	4413      	add	r3, r2
 800885e:	60a3      	str	r3, [r4, #8]
 8008860:	bd38      	pop	{r3, r4, r5, pc}
 8008862:	f7ff fb9d 	bl	8007fa0 <HAL_RCC_GetPCLK1Freq>
 8008866:	e7d9      	b.n	800881c <UART_SetConfig+0x4c>
 8008868:	009a      	lsls	r2, r3, #2
 800886a:	0f9b      	lsrs	r3, r3, #30
 800886c:	f7f8 f856 	bl	800091c <__aeabi_uldivmod>
 8008870:	2264      	movs	r2, #100	@ 0x64
 8008872:	fbb0 f1f2 	udiv	r1, r0, r2
 8008876:	fb02 0311 	mls	r3, r2, r1, r0
 800887a:	011b      	lsls	r3, r3, #4
 800887c:	3332      	adds	r3, #50	@ 0x32
 800887e:	fbb3 f3f2 	udiv	r3, r3, r2
 8008882:	eb03 1301 	add.w	r3, r3, r1, lsl #4
 8008886:	e7ea      	b.n	800885e <UART_SetConfig+0x8e>
 8008888:	40011000 	.word	0x40011000

0800888c <UART_WaitOnFlagUntilTimeout.constprop.0>:
 800888c:	b5f7      	push	{r0, r1, r2, r4, r5, r6, r7, lr}
 800888e:	4605      	mov	r5, r0
 8008890:	460c      	mov	r4, r1
 8008892:	4617      	mov	r7, r2
 8008894:	461e      	mov	r6, r3
 8008896:	682a      	ldr	r2, [r5, #0]
 8008898:	6813      	ldr	r3, [r2, #0]
 800889a:	ea34 0303 	bics.w	r3, r4, r3
 800889e:	d101      	bne.n	80088a4 <UART_WaitOnFlagUntilTimeout.constprop.0+0x18>
 80088a0:	2000      	movs	r0, #0
 80088a2:	e021      	b.n	80088e8 <UART_WaitOnFlagUntilTimeout.constprop.0+0x5c>
 80088a4:	1c70      	adds	r0, r6, #1
 80088a6:	d0f7      	beq.n	8008898 <UART_WaitOnFlagUntilTimeout.constprop.0+0xc>
 80088a8:	f7fc f83c 	bl	8004924 <HAL_GetTick>
 80088ac:	1bc0      	subs	r0, r0, r7
 80088ae:	4286      	cmp	r6, r0
 80088b0:	d31c      	bcc.n	80088ec <UART_WaitOnFlagUntilTimeout.constprop.0+0x60>
 80088b2:	b1de      	cbz	r6, 80088ec <UART_WaitOnFlagUntilTimeout.constprop.0+0x60>
 80088b4:	682b      	ldr	r3, [r5, #0]
 80088b6:	68da      	ldr	r2, [r3, #12]
 80088b8:	0751      	lsls	r1, r2, #29
 80088ba:	d5ec      	bpl.n	8008896 <UART_WaitOnFlagUntilTimeout.constprop.0+0xa>
 80088bc:	2c80      	cmp	r4, #128	@ 0x80
 80088be:	d0ea      	beq.n	8008896 <UART_WaitOnFlagUntilTimeout.constprop.0+0xa>
 80088c0:	2c40      	cmp	r4, #64	@ 0x40
 80088c2:	d0e8      	beq.n	8008896 <UART_WaitOnFlagUntilTimeout.constprop.0+0xa>
 80088c4:	681a      	ldr	r2, [r3, #0]
 80088c6:	0712      	lsls	r2, r2, #28
 80088c8:	d5e5      	bpl.n	8008896 <UART_WaitOnFlagUntilTimeout.constprop.0+0xa>
 80088ca:	2400      	movs	r4, #0
 80088cc:	9401      	str	r4, [sp, #4]
 80088ce:	681a      	ldr	r2, [r3, #0]
 80088d0:	9201      	str	r2, [sp, #4]
 80088d2:	685b      	ldr	r3, [r3, #4]
 80088d4:	9301      	str	r3, [sp, #4]
 80088d6:	4628      	mov	r0, r5
 80088d8:	9b01      	ldr	r3, [sp, #4]
 80088da:	f7ff ff4b 	bl	8008774 <UART_EndRxTransfer>
 80088de:	2308      	movs	r3, #8
 80088e0:	646b      	str	r3, [r5, #68]	@ 0x44
 80088e2:	f885 4040 	strb.w	r4, [r5, #64]	@ 0x40
 80088e6:	2001      	movs	r0, #1
 80088e8:	b003      	add	sp, #12
 80088ea:	bdf0      	pop	{r4, r5, r6, r7, pc}
 80088ec:	2003      	movs	r0, #3
 80088ee:	e7fb      	b.n	80088e8 <UART_WaitOnFlagUntilTimeout.constprop.0+0x5c>

080088f0 <HAL_UART_Init>:
 80088f0:	b510      	push	{r4, lr}
 80088f2:	4604      	mov	r4, r0
 80088f4:	b348      	cbz	r0, 800894a <HAL_UART_Init+0x5a>
 80088f6:	f890 3041 	ldrb.w	r3, [r0, #65]	@ 0x41
 80088fa:	f003 02ff 	and.w	r2, r3, #255	@ 0xff
 80088fe:	b91b      	cbnz	r3, 8008908 <HAL_UART_Init+0x18>
 8008900:	f880 2040 	strb.w	r2, [r0, #64]	@ 0x40
 8008904:	f7fb fed4 	bl	80046b0 <HAL_UART_MspInit>
 8008908:	6822      	ldr	r2, [r4, #0]
 800890a:	2324      	movs	r3, #36	@ 0x24
 800890c:	f884 3041 	strb.w	r3, [r4, #65]	@ 0x41
 8008910:	68d3      	ldr	r3, [r2, #12]
 8008912:	f423 5300 	bic.w	r3, r3, #8192	@ 0x2000
 8008916:	60d3      	str	r3, [r2, #12]
 8008918:	4620      	mov	r0, r4
 800891a:	f7ff ff59 	bl	80087d0 <UART_SetConfig>
 800891e:	6823      	ldr	r3, [r4, #0]
 8008920:	691a      	ldr	r2, [r3, #16]
 8008922:	f422 4290 	bic.w	r2, r2, #18432	@ 0x4800
 8008926:	611a      	str	r2, [r3, #16]
 8008928:	695a      	ldr	r2, [r3, #20]
 800892a:	f022 022a 	bic.w	r2, r2, #42	@ 0x2a
 800892e:	615a      	str	r2, [r3, #20]
 8008930:	68da      	ldr	r2, [r3, #12]
 8008932:	f442 5200 	orr.w	r2, r2, #8192	@ 0x2000
 8008936:	60da      	str	r2, [r3, #12]
 8008938:	2000      	movs	r0, #0
 800893a:	2320      	movs	r3, #32
 800893c:	6460      	str	r0, [r4, #68]	@ 0x44
 800893e:	f884 3041 	strb.w	r3, [r4, #65]	@ 0x41
 8008942:	f884 3042 	strb.w	r3, [r4, #66]	@ 0x42
 8008946:	6360      	str	r0, [r4, #52]	@ 0x34
 8008948:	bd10      	pop	{r4, pc}
 800894a:	2001      	movs	r0, #1
 800894c:	e7fc      	b.n	8008948 <HAL_UART_Init+0x58>

0800894e <HAL_UART_Transmit>:
 800894e:	e92d 43f8 	stmdb	sp!, {r3, r4, r5, r6, r7, r8, r9, lr}
 8008952:	4698      	mov	r8, r3
 8008954:	f890 3041 	ldrb.w	r3, [r0, #65]	@ 0x41
 8008958:	2b20      	cmp	r3, #32
 800895a:	4604      	mov	r4, r0
 800895c:	460e      	mov	r6, r1
 800895e:	4617      	mov	r7, r2
 8008960:	d13f      	bne.n	80089e2 <HAL_UART_Transmit+0x94>
 8008962:	2900      	cmp	r1, #0
 8008964:	d03f      	beq.n	80089e6 <HAL_UART_Transmit+0x98>
 8008966:	2a00      	cmp	r2, #0
 8008968:	d03d      	beq.n	80089e6 <HAL_UART_Transmit+0x98>
 800896a:	2321      	movs	r3, #33	@ 0x21
 800896c:	2500      	movs	r5, #0
 800896e:	6445      	str	r5, [r0, #68]	@ 0x44
 8008970:	f880 3041 	strb.w	r3, [r0, #65]	@ 0x41
 8008974:	f7fb ffd6 	bl	8004924 <HAL_GetTick>
 8008978:	68a3      	ldr	r3, [r4, #8]
 800897a:	84a7      	strh	r7, [r4, #36]	@ 0x24
 800897c:	f5b3 5f80 	cmp.w	r3, #4096	@ 0x1000
 8008980:	4681      	mov	r9, r0
 8008982:	84e7      	strh	r7, [r4, #38]	@ 0x26
 8008984:	d103      	bne.n	800898e <HAL_UART_Transmit+0x40>
 8008986:	6923      	ldr	r3, [r4, #16]
 8008988:	b90b      	cbnz	r3, 800898e <HAL_UART_Transmit+0x40>
 800898a:	4635      	mov	r5, r6
 800898c:	461e      	mov	r6, r3
 800898e:	8ce3      	ldrh	r3, [r4, #38]	@ 0x26
 8008990:	b29b      	uxth	r3, r3
 8008992:	b953      	cbnz	r3, 80089aa <HAL_UART_Transmit+0x5c>
 8008994:	4643      	mov	r3, r8
 8008996:	464a      	mov	r2, r9
 8008998:	2140      	movs	r1, #64	@ 0x40
 800899a:	4620      	mov	r0, r4
 800899c:	f7ff ff76 	bl	800888c <UART_WaitOnFlagUntilTimeout.constprop.0>
 80089a0:	2320      	movs	r3, #32
 80089a2:	b950      	cbnz	r0, 80089ba <HAL_UART_Transmit+0x6c>
 80089a4:	f884 3041 	strb.w	r3, [r4, #65]	@ 0x41
 80089a8:	e00a      	b.n	80089c0 <HAL_UART_Transmit+0x72>
 80089aa:	4643      	mov	r3, r8
 80089ac:	464a      	mov	r2, r9
 80089ae:	2180      	movs	r1, #128	@ 0x80
 80089b0:	4620      	mov	r0, r4
 80089b2:	f7ff ff6b 	bl	800888c <UART_WaitOnFlagUntilTimeout.constprop.0>
 80089b6:	b128      	cbz	r0, 80089c4 <HAL_UART_Transmit+0x76>
 80089b8:	2320      	movs	r3, #32
 80089ba:	f884 3041 	strb.w	r3, [r4, #65]	@ 0x41
 80089be:	2003      	movs	r0, #3
 80089c0:	e8bd 83f8 	ldmia.w	sp!, {r3, r4, r5, r6, r7, r8, r9, pc}
 80089c4:	6822      	ldr	r2, [r4, #0]
 80089c6:	b94e      	cbnz	r6, 80089dc <HAL_UART_Transmit+0x8e>
 80089c8:	f835 3b02 	ldrh.w	r3, [r5], #2
 80089cc:	f3c3 0308 	ubfx	r3, r3, #0, #9
 80089d0:	6053      	str	r3, [r2, #4]
 80089d2:	8ce1      	ldrh	r1, [r4, #38]	@ 0x26
 80089d4:	3901      	subs	r1, #1
 80089d6:	b289      	uxth	r1, r1
 80089d8:	84e1      	strh	r1, [r4, #38]	@ 0x26
 80089da:	e7d8      	b.n	800898e <HAL_UART_Transmit+0x40>
 80089dc:	f816 3b01 	ldrb.w	r3, [r6], #1
 80089e0:	e7f6      	b.n	80089d0 <HAL_UART_Transmit+0x82>
 80089e2:	2002      	movs	r0, #2
 80089e4:	e7ec      	b.n	80089c0 <HAL_UART_Transmit+0x72>
 80089e6:	2001      	movs	r0, #1
 80089e8:	e7ea      	b.n	80089c0 <HAL_UART_Transmit+0x72>

080089ea <HAL_UART_TxCpltCallback>:
 80089ea:	4770      	bx	lr

080089ec <HAL_UART_ErrorCallback>:
 80089ec:	4770      	bx	lr

080089ee <UART_DMAAbortOnError>:
 80089ee:	b508      	push	{r3, lr}
 80089f0:	6b80      	ldr	r0, [r0, #56]	@ 0x38
 80089f2:	2300      	movs	r3, #0
 80089f4:	85c3      	strh	r3, [r0, #46]	@ 0x2e
 80089f6:	f7ff fff9 	bl	80089ec <HAL_UART_ErrorCallback>
 80089fa:	bd08      	pop	{r3, pc}

080089fc <HAL_UARTEx_RxEventCallback>:
 80089fc:	4770      	bx	lr

080089fe <UART_Receive_IT.isra.0>:
 80089fe:	f890 3042 	ldrb.w	r3, [r0, #66]	@ 0x42
 8008a02:	2b22      	cmp	r3, #34	@ 0x22
 8008a04:	b507      	push	{r0, r1, r2, lr}
 8008a06:	d142      	bne.n	8008a8e <UART_Receive_IT.isra.0+0x90>
 8008a08:	6881      	ldr	r1, [r0, #8]
 8008a0a:	6802      	ldr	r2, [r0, #0]
 8008a0c:	6a83      	ldr	r3, [r0, #40]	@ 0x28
 8008a0e:	f5b1 5f80 	cmp.w	r1, #4096	@ 0x1000
 8008a12:	d13f      	bne.n	8008a94 <UART_Receive_IT.isra.0+0x96>
 8008a14:	6901      	ldr	r1, [r0, #16]
 8008a16:	2900      	cmp	r1, #0
 8008a18:	d13f      	bne.n	8008a9a <UART_Receive_IT.isra.0+0x9c>
 8008a1a:	6852      	ldr	r2, [r2, #4]
 8008a1c:	f3c2 0208 	ubfx	r2, r2, #0, #9
 8008a20:	f823 2b02 	strh.w	r2, [r3], #2
 8008a24:	6283      	str	r3, [r0, #40]	@ 0x28
 8008a26:	8dc3      	ldrh	r3, [r0, #46]	@ 0x2e
 8008a28:	3b01      	subs	r3, #1
 8008a2a:	b29b      	uxth	r3, r3
 8008a2c:	85c3      	strh	r3, [r0, #46]	@ 0x2e
 8008a2e:	2b00      	cmp	r3, #0
 8008a30:	d12d      	bne.n	8008a8e <UART_Receive_IT.isra.0+0x90>
 8008a32:	6802      	ldr	r2, [r0, #0]
 8008a34:	68d1      	ldr	r1, [r2, #12]
 8008a36:	f021 0120 	bic.w	r1, r1, #32
 8008a3a:	60d1      	str	r1, [r2, #12]
 8008a3c:	68d1      	ldr	r1, [r2, #12]
 8008a3e:	f421 7180 	bic.w	r1, r1, #256	@ 0x100
 8008a42:	60d1      	str	r1, [r2, #12]
 8008a44:	6951      	ldr	r1, [r2, #20]
 8008a46:	f021 0101 	bic.w	r1, r1, #1
 8008a4a:	6151      	str	r1, [r2, #20]
 8008a4c:	2220      	movs	r2, #32
 8008a4e:	f880 2042 	strb.w	r2, [r0, #66]	@ 0x42
 8008a52:	6343      	str	r3, [r0, #52]	@ 0x34
 8008a54:	6b02      	ldr	r2, [r0, #48]	@ 0x30
 8008a56:	2a01      	cmp	r2, #1
 8008a58:	6802      	ldr	r2, [r0, #0]
 8008a5a:	d128      	bne.n	8008aae <UART_Receive_IT.isra.0+0xb0>
 8008a5c:	6303      	str	r3, [r0, #48]	@ 0x30
 8008a5e:	f102 030c 	add.w	r3, r2, #12
 8008a62:	e853 3f00 	ldrex	r3, [r3]
 8008a66:	f023 0310 	bic.w	r3, r3, #16
 8008a6a:	f102 0c0c 	add.w	ip, r2, #12
 8008a6e:	e84c 3100 	strex	r1, r3, [ip]
 8008a72:	2900      	cmp	r1, #0
 8008a74:	d1f3      	bne.n	8008a5e <UART_Receive_IT.isra.0+0x60>
 8008a76:	6813      	ldr	r3, [r2, #0]
 8008a78:	06db      	lsls	r3, r3, #27
 8008a7a:	d505      	bpl.n	8008a88 <UART_Receive_IT.isra.0+0x8a>
 8008a7c:	9101      	str	r1, [sp, #4]
 8008a7e:	6813      	ldr	r3, [r2, #0]
 8008a80:	9301      	str	r3, [sp, #4]
 8008a82:	6853      	ldr	r3, [r2, #4]
 8008a84:	9301      	str	r3, [sp, #4]
 8008a86:	9b01      	ldr	r3, [sp, #4]
 8008a88:	8d81      	ldrh	r1, [r0, #44]	@ 0x2c
 8008a8a:	f7ff ffb7 	bl	80089fc <HAL_UARTEx_RxEventCallback>
 8008a8e:	b003      	add	sp, #12
 8008a90:	f85d fb04 	ldr.w	pc, [sp], #4
 8008a94:	b939      	cbnz	r1, 8008aa6 <UART_Receive_IT.isra.0+0xa8>
 8008a96:	6901      	ldr	r1, [r0, #16]
 8008a98:	b929      	cbnz	r1, 8008aa6 <UART_Receive_IT.isra.0+0xa8>
 8008a9a:	6852      	ldr	r2, [r2, #4]
 8008a9c:	b2d2      	uxtb	r2, r2
 8008a9e:	701a      	strb	r2, [r3, #0]
 8008aa0:	6a83      	ldr	r3, [r0, #40]	@ 0x28
 8008aa2:	3301      	adds	r3, #1
 8008aa4:	e7be      	b.n	8008a24 <UART_Receive_IT.isra.0+0x26>
 8008aa6:	6852      	ldr	r2, [r2, #4]
 8008aa8:	f002 027f 	and.w	r2, r2, #127	@ 0x7f
 8008aac:	e7f7      	b.n	8008a9e <UART_Receive_IT.isra.0+0xa0>
 8008aae:	f7fa f8f3 	bl	8002c98 <HAL_UART_RxCpltCallback>
 8008ab2:	e7ec      	b.n	8008a8e <UART_Receive_IT.isra.0+0x90>

08008ab4 <HAL_UART_IRQHandler>:
 8008ab4:	6803      	ldr	r3, [r0, #0]
 8008ab6:	681a      	ldr	r2, [r3, #0]
 8008ab8:	b573      	push	{r0, r1, r4, r5, r6, lr}
 8008aba:	0716      	lsls	r6, r2, #28
 8008abc:	68d9      	ldr	r1, [r3, #12]
 8008abe:	695d      	ldr	r5, [r3, #20]
 8008ac0:	4604      	mov	r4, r0
 8008ac2:	d108      	bne.n	8008ad6 <HAL_UART_IRQHandler+0x22>
 8008ac4:	0696      	lsls	r6, r2, #26
 8008ac6:	d568      	bpl.n	8008b9a <HAL_UART_IRQHandler+0xe6>
 8008ac8:	068d      	lsls	r5, r1, #26
 8008aca:	d566      	bpl.n	8008b9a <HAL_UART_IRQHandler+0xe6>
 8008acc:	b002      	add	sp, #8
 8008ace:	e8bd 4070 	ldmia.w	sp!, {r4, r5, r6, lr}
 8008ad2:	f7ff bf94 	b.w	80089fe <UART_Receive_IT.isra.0>
 8008ad6:	f005 0001 	and.w	r0, r5, #1
 8008ada:	f401 7590 	and.w	r5, r1, #288	@ 0x120
 8008ade:	4305      	orrs	r5, r0
 8008ae0:	d05b      	beq.n	8008b9a <HAL_UART_IRQHandler+0xe6>
 8008ae2:	07d6      	lsls	r6, r2, #31
 8008ae4:	d505      	bpl.n	8008af2 <HAL_UART_IRQHandler+0x3e>
 8008ae6:	05cd      	lsls	r5, r1, #23
 8008ae8:	bf42      	ittt	mi
 8008aea:	6c63      	ldrmi	r3, [r4, #68]	@ 0x44
 8008aec:	f043 0301 	orrmi.w	r3, r3, #1
 8008af0:	6463      	strmi	r3, [r4, #68]	@ 0x44
 8008af2:	0753      	lsls	r3, r2, #29
 8008af4:	d504      	bpl.n	8008b00 <HAL_UART_IRQHandler+0x4c>
 8008af6:	b118      	cbz	r0, 8008b00 <HAL_UART_IRQHandler+0x4c>
 8008af8:	6c63      	ldr	r3, [r4, #68]	@ 0x44
 8008afa:	f043 0302 	orr.w	r3, r3, #2
 8008afe:	6463      	str	r3, [r4, #68]	@ 0x44
 8008b00:	0796      	lsls	r6, r2, #30
 8008b02:	d504      	bpl.n	8008b0e <HAL_UART_IRQHandler+0x5a>
 8008b04:	b118      	cbz	r0, 8008b0e <HAL_UART_IRQHandler+0x5a>
 8008b06:	6c63      	ldr	r3, [r4, #68]	@ 0x44
 8008b08:	f043 0304 	orr.w	r3, r3, #4
 8008b0c:	6463      	str	r3, [r4, #68]	@ 0x44
 8008b0e:	0715      	lsls	r5, r2, #28
 8008b10:	d507      	bpl.n	8008b22 <HAL_UART_IRQHandler+0x6e>
 8008b12:	f001 0320 	and.w	r3, r1, #32
 8008b16:	4303      	orrs	r3, r0
 8008b18:	bf1e      	ittt	ne
 8008b1a:	6c63      	ldrne	r3, [r4, #68]	@ 0x44
 8008b1c:	f043 0308 	orrne.w	r3, r3, #8
 8008b20:	6463      	strne	r3, [r4, #68]	@ 0x44
 8008b22:	6c63      	ldr	r3, [r4, #68]	@ 0x44
 8008b24:	2b00      	cmp	r3, #0
 8008b26:	d032      	beq.n	8008b8e <HAL_UART_IRQHandler+0xda>
 8008b28:	0692      	lsls	r2, r2, #26
 8008b2a:	d504      	bpl.n	8008b36 <HAL_UART_IRQHandler+0x82>
 8008b2c:	068b      	lsls	r3, r1, #26
 8008b2e:	d502      	bpl.n	8008b36 <HAL_UART_IRQHandler+0x82>
 8008b30:	4620      	mov	r0, r4
 8008b32:	f7ff ff64 	bl	80089fe <UART_Receive_IT.isra.0>
 8008b36:	6826      	ldr	r6, [r4, #0]
 8008b38:	6973      	ldr	r3, [r6, #20]
 8008b3a:	6c62      	ldr	r2, [r4, #68]	@ 0x44
 8008b3c:	f003 0340 	and.w	r3, r3, #64	@ 0x40
 8008b40:	f002 0208 	and.w	r2, r2, #8
 8008b44:	ea53 0502 	orrs.w	r5, r3, r2
 8008b48:	4620      	mov	r0, r4
 8008b4a:	d022      	beq.n	8008b92 <HAL_UART_IRQHandler+0xde>
 8008b4c:	f7ff fe12 	bl	8008774 <UART_EndRxTransfer>
 8008b50:	6973      	ldr	r3, [r6, #20]
 8008b52:	065e      	lsls	r6, r3, #25
 8008b54:	d518      	bpl.n	8008b88 <HAL_UART_IRQHandler+0xd4>
 8008b56:	6822      	ldr	r2, [r4, #0]
 8008b58:	f102 0314 	add.w	r3, r2, #20
 8008b5c:	e853 3f00 	ldrex	r3, [r3]
 8008b60:	f023 0340 	bic.w	r3, r3, #64	@ 0x40
 8008b64:	3214      	adds	r2, #20
 8008b66:	e842 3100 	strex	r1, r3, [r2]
 8008b6a:	2900      	cmp	r1, #0
 8008b6c:	d1f3      	bne.n	8008b56 <HAL_UART_IRQHandler+0xa2>
 8008b6e:	6be0      	ldr	r0, [r4, #60]	@ 0x3c
 8008b70:	b150      	cbz	r0, 8008b88 <HAL_UART_IRQHandler+0xd4>
 8008b72:	4b77      	ldr	r3, [pc, #476]	@ (8008d50 <HAL_UART_IRQHandler+0x29c>)
 8008b74:	6503      	str	r3, [r0, #80]	@ 0x50
 8008b76:	f7fc fb0c 	bl	8005192 <HAL_DMA_Abort_IT>
 8008b7a:	b140      	cbz	r0, 8008b8e <HAL_UART_IRQHandler+0xda>
 8008b7c:	6be0      	ldr	r0, [r4, #60]	@ 0x3c
 8008b7e:	6d03      	ldr	r3, [r0, #80]	@ 0x50
 8008b80:	b002      	add	sp, #8
 8008b82:	e8bd 4070 	ldmia.w	sp!, {r4, r5, r6, lr}
 8008b86:	4718      	bx	r3
 8008b88:	4620      	mov	r0, r4
 8008b8a:	f7ff ff2f 	bl	80089ec <HAL_UART_ErrorCallback>
 8008b8e:	b002      	add	sp, #8
 8008b90:	bd70      	pop	{r4, r5, r6, pc}
 8008b92:	f7ff ff2b 	bl	80089ec <HAL_UART_ErrorCallback>
 8008b96:	6465      	str	r5, [r4, #68]	@ 0x44
 8008b98:	e7f9      	b.n	8008b8e <HAL_UART_IRQHandler+0xda>
 8008b9a:	6b20      	ldr	r0, [r4, #48]	@ 0x30
 8008b9c:	2801      	cmp	r0, #1
 8008b9e:	f040 809b 	bne.w	8008cd8 <HAL_UART_IRQHandler+0x224>
 8008ba2:	06d5      	lsls	r5, r2, #27
 8008ba4:	f140 8098 	bpl.w	8008cd8 <HAL_UART_IRQHandler+0x224>
 8008ba8:	06c8      	lsls	r0, r1, #27
 8008baa:	f140 8095 	bpl.w	8008cd8 <HAL_UART_IRQHandler+0x224>
 8008bae:	2200      	movs	r2, #0
 8008bb0:	9201      	str	r2, [sp, #4]
 8008bb2:	681a      	ldr	r2, [r3, #0]
 8008bb4:	9201      	str	r2, [sp, #4]
 8008bb6:	685a      	ldr	r2, [r3, #4]
 8008bb8:	9201      	str	r2, [sp, #4]
 8008bba:	9a01      	ldr	r2, [sp, #4]
 8008bbc:	6959      	ldr	r1, [r3, #20]
 8008bbe:	8da2      	ldrh	r2, [r4, #44]	@ 0x2c
 8008bc0:	0649      	lsls	r1, r1, #25
 8008bc2:	d556      	bpl.n	8008c72 <HAL_UART_IRQHandler+0x1be>
 8008bc4:	6be0      	ldr	r0, [r4, #60]	@ 0x3c
 8008bc6:	6801      	ldr	r1, [r0, #0]
 8008bc8:	6849      	ldr	r1, [r1, #4]
 8008bca:	b289      	uxth	r1, r1
 8008bcc:	2900      	cmp	r1, #0
 8008bce:	d047      	beq.n	8008c60 <HAL_UART_IRQHandler+0x1ac>
 8008bd0:	4291      	cmp	r1, r2
 8008bd2:	d245      	bcs.n	8008c60 <HAL_UART_IRQHandler+0x1ac>
 8008bd4:	69c2      	ldr	r2, [r0, #28]
 8008bd6:	85e1      	strh	r1, [r4, #46]	@ 0x2e
 8008bd8:	f5b2 7f80 	cmp.w	r2, #256	@ 0x100
 8008bdc:	d036      	beq.n	8008c4c <HAL_UART_IRQHandler+0x198>
 8008bde:	f103 020c 	add.w	r2, r3, #12
 8008be2:	e852 2f00 	ldrex	r2, [r2]
 8008be6:	f422 7280 	bic.w	r2, r2, #256	@ 0x100
 8008bea:	f103 000c 	add.w	r0, r3, #12
 8008bee:	e840 2100 	strex	r1, r2, [r0]
 8008bf2:	2900      	cmp	r1, #0
 8008bf4:	d1f3      	bne.n	8008bde <HAL_UART_IRQHandler+0x12a>
 8008bf6:	f103 0214 	add.w	r2, r3, #20
 8008bfa:	e852 2f00 	ldrex	r2, [r2]
 8008bfe:	f022 0201 	bic.w	r2, r2, #1
 8008c02:	f103 0014 	add.w	r0, r3, #20
 8008c06:	e840 2100 	strex	r1, r2, [r0]
 8008c0a:	2900      	cmp	r1, #0
 8008c0c:	d1f3      	bne.n	8008bf6 <HAL_UART_IRQHandler+0x142>
 8008c0e:	f103 0214 	add.w	r2, r3, #20
 8008c12:	e852 2f00 	ldrex	r2, [r2]
 8008c16:	f022 0240 	bic.w	r2, r2, #64	@ 0x40
 8008c1a:	f103 0014 	add.w	r0, r3, #20
 8008c1e:	e840 2100 	strex	r1, r2, [r0]
 8008c22:	2900      	cmp	r1, #0
 8008c24:	d1f3      	bne.n	8008c0e <HAL_UART_IRQHandler+0x15a>
 8008c26:	2220      	movs	r2, #32
 8008c28:	f884 2042 	strb.w	r2, [r4, #66]	@ 0x42
 8008c2c:	6321      	str	r1, [r4, #48]	@ 0x30
 8008c2e:	f103 020c 	add.w	r2, r3, #12
 8008c32:	e852 2f00 	ldrex	r2, [r2]
 8008c36:	f022 0210 	bic.w	r2, r2, #16
 8008c3a:	f103 000c 	add.w	r0, r3, #12
 8008c3e:	e840 2100 	strex	r1, r2, [r0]
 8008c42:	2900      	cmp	r1, #0
 8008c44:	d1f3      	bne.n	8008c2e <HAL_UART_IRQHandler+0x17a>
 8008c46:	6be0      	ldr	r0, [r4, #60]	@ 0x3c
 8008c48:	f7fc fa65 	bl	8005116 <HAL_DMA_Abort>
 8008c4c:	2302      	movs	r3, #2
 8008c4e:	6363      	str	r3, [r4, #52]	@ 0x34
 8008c50:	8de3      	ldrh	r3, [r4, #46]	@ 0x2e
 8008c52:	8da1      	ldrh	r1, [r4, #44]	@ 0x2c
 8008c54:	1ac9      	subs	r1, r1, r3
 8008c56:	b289      	uxth	r1, r1
 8008c58:	4620      	mov	r0, r4
 8008c5a:	f7ff fecf 	bl	80089fc <HAL_UARTEx_RxEventCallback>
 8008c5e:	e796      	b.n	8008b8e <HAL_UART_IRQHandler+0xda>
 8008c60:	4291      	cmp	r1, r2
 8008c62:	d194      	bne.n	8008b8e <HAL_UART_IRQHandler+0xda>
 8008c64:	69c3      	ldr	r3, [r0, #28]
 8008c66:	f5b3 7f80 	cmp.w	r3, #256	@ 0x100
 8008c6a:	d190      	bne.n	8008b8e <HAL_UART_IRQHandler+0xda>
 8008c6c:	2302      	movs	r3, #2
 8008c6e:	6363      	str	r3, [r4, #52]	@ 0x34
 8008c70:	e7f2      	b.n	8008c58 <HAL_UART_IRQHandler+0x1a4>
 8008c72:	8de1      	ldrh	r1, [r4, #46]	@ 0x2e
 8008c74:	8de0      	ldrh	r0, [r4, #46]	@ 0x2e
 8008c76:	b280      	uxth	r0, r0
 8008c78:	b289      	uxth	r1, r1
 8008c7a:	2800      	cmp	r0, #0
 8008c7c:	d087      	beq.n	8008b8e <HAL_UART_IRQHandler+0xda>
 8008c7e:	1a51      	subs	r1, r2, r1
 8008c80:	b289      	uxth	r1, r1
 8008c82:	2900      	cmp	r1, #0
 8008c84:	d083      	beq.n	8008b8e <HAL_UART_IRQHandler+0xda>
 8008c86:	f103 020c 	add.w	r2, r3, #12
 8008c8a:	e852 2f00 	ldrex	r2, [r2]
 8008c8e:	f422 7290 	bic.w	r2, r2, #288	@ 0x120
 8008c92:	f103 050c 	add.w	r5, r3, #12
 8008c96:	e845 2000 	strex	r0, r2, [r5]
 8008c9a:	2800      	cmp	r0, #0
 8008c9c:	d1f3      	bne.n	8008c86 <HAL_UART_IRQHandler+0x1d2>
 8008c9e:	f103 0214 	add.w	r2, r3, #20
 8008ca2:	e852 2f00 	ldrex	r2, [r2]
 8008ca6:	f022 0201 	bic.w	r2, r2, #1
 8008caa:	f103 0514 	add.w	r5, r3, #20
 8008cae:	e845 2000 	strex	r0, r2, [r5]
 8008cb2:	2800      	cmp	r0, #0
 8008cb4:	d1f3      	bne.n	8008c9e <HAL_UART_IRQHandler+0x1ea>
 8008cb6:	2220      	movs	r2, #32
 8008cb8:	f884 2042 	strb.w	r2, [r4, #66]	@ 0x42
 8008cbc:	6320      	str	r0, [r4, #48]	@ 0x30
 8008cbe:	f103 020c 	add.w	r2, r3, #12
 8008cc2:	e852 2f00 	ldrex	r2, [r2]
 8008cc6:	f022 0210 	bic.w	r2, r2, #16
 8008cca:	f103 050c 	add.w	r5, r3, #12
 8008cce:	e845 2000 	strex	r0, r2, [r5]
 8008cd2:	2800      	cmp	r0, #0
 8008cd4:	d1f3      	bne.n	8008cbe <HAL_UART_IRQHandler+0x20a>
 8008cd6:	e7c9      	b.n	8008c6c <HAL_UART_IRQHandler+0x1b8>
 8008cd8:	0616      	lsls	r6, r2, #24
 8008cda:	d528      	bpl.n	8008d2e <HAL_UART_IRQHandler+0x27a>
 8008cdc:	060d      	lsls	r5, r1, #24
 8008cde:	d526      	bpl.n	8008d2e <HAL_UART_IRQHandler+0x27a>
 8008ce0:	f894 2041 	ldrb.w	r2, [r4, #65]	@ 0x41
 8008ce4:	2a21      	cmp	r2, #33	@ 0x21
 8008ce6:	f47f af52 	bne.w	8008b8e <HAL_UART_IRQHandler+0xda>
 8008cea:	68a1      	ldr	r1, [r4, #8]
 8008cec:	6a22      	ldr	r2, [r4, #32]
 8008cee:	f5b1 5f80 	cmp.w	r1, #4096	@ 0x1000
 8008cf2:	d117      	bne.n	8008d24 <HAL_UART_IRQHandler+0x270>
 8008cf4:	6921      	ldr	r1, [r4, #16]
 8008cf6:	b9a9      	cbnz	r1, 8008d24 <HAL_UART_IRQHandler+0x270>
 8008cf8:	f832 1b02 	ldrh.w	r1, [r2], #2
 8008cfc:	f3c1 0108 	ubfx	r1, r1, #0, #9
 8008d00:	6059      	str	r1, [r3, #4]
 8008d02:	6222      	str	r2, [r4, #32]
 8008d04:	8ce2      	ldrh	r2, [r4, #38]	@ 0x26
 8008d06:	3a01      	subs	r2, #1
 8008d08:	b292      	uxth	r2, r2
 8008d0a:	84e2      	strh	r2, [r4, #38]	@ 0x26
 8008d0c:	2a00      	cmp	r2, #0
 8008d0e:	f47f af3e 	bne.w	8008b8e <HAL_UART_IRQHandler+0xda>
 8008d12:	68da      	ldr	r2, [r3, #12]
 8008d14:	f022 0280 	bic.w	r2, r2, #128	@ 0x80
 8008d18:	60da      	str	r2, [r3, #12]
 8008d1a:	68da      	ldr	r2, [r3, #12]
 8008d1c:	f042 0240 	orr.w	r2, r2, #64	@ 0x40
 8008d20:	60da      	str	r2, [r3, #12]
 8008d22:	e734      	b.n	8008b8e <HAL_UART_IRQHandler+0xda>
 8008d24:	1c51      	adds	r1, r2, #1
 8008d26:	6221      	str	r1, [r4, #32]
 8008d28:	7812      	ldrb	r2, [r2, #0]
 8008d2a:	605a      	str	r2, [r3, #4]
 8008d2c:	e7ea      	b.n	8008d04 <HAL_UART_IRQHandler+0x250>
 8008d2e:	0650      	lsls	r0, r2, #25
 8008d30:	f57f af2d 	bpl.w	8008b8e <HAL_UART_IRQHandler+0xda>
 8008d34:	064a      	lsls	r2, r1, #25
 8008d36:	f57f af2a 	bpl.w	8008b8e <HAL_UART_IRQHandler+0xda>
 8008d3a:	68da      	ldr	r2, [r3, #12]
 8008d3c:	f022 0240 	bic.w	r2, r2, #64	@ 0x40
 8008d40:	60da      	str	r2, [r3, #12]
 8008d42:	2320      	movs	r3, #32
 8008d44:	f884 3041 	strb.w	r3, [r4, #65]	@ 0x41
 8008d48:	4620      	mov	r0, r4
 8008d4a:	f7ff fe4e 	bl	80089ea <HAL_UART_TxCpltCallback>
 8008d4e:	e71e      	b.n	8008b8e <HAL_UART_IRQHandler+0xda>
 8008d50:	080089ef 	.word	0x080089ef

08008d54 <UART_Start_Receive_IT>:
 8008d54:	85c2      	strh	r2, [r0, #46]	@ 0x2e
 8008d56:	2300      	movs	r3, #0
 8008d58:	8582      	strh	r2, [r0, #44]	@ 0x2c
 8008d5a:	6902      	ldr	r2, [r0, #16]
 8008d5c:	6443      	str	r3, [r0, #68]	@ 0x44
 8008d5e:	2322      	movs	r3, #34	@ 0x22
 8008d60:	f880 3042 	strb.w	r3, [r0, #66]	@ 0x42
 8008d64:	6281      	str	r1, [r0, #40]	@ 0x28
 8008d66:	6803      	ldr	r3, [r0, #0]
 8008d68:	b11a      	cbz	r2, 8008d72 <UART_Start_Receive_IT+0x1e>
 8008d6a:	68da      	ldr	r2, [r3, #12]
 8008d6c:	f442 7280 	orr.w	r2, r2, #256	@ 0x100
 8008d70:	60da      	str	r2, [r3, #12]
 8008d72:	695a      	ldr	r2, [r3, #20]
 8008d74:	f042 0201 	orr.w	r2, r2, #1
 8008d78:	615a      	str	r2, [r3, #20]
 8008d7a:	68da      	ldr	r2, [r3, #12]
 8008d7c:	f042 0220 	orr.w	r2, r2, #32
 8008d80:	60da      	str	r2, [r3, #12]
 8008d82:	2000      	movs	r0, #0
 8008d84:	4770      	bx	lr

08008d86 <HAL_UART_Receive_IT>:
 8008d86:	b470      	push	{r4, r5, r6}
 8008d88:	f890 6042 	ldrb.w	r6, [r0, #66]	@ 0x42
 8008d8c:	2e20      	cmp	r6, #32
 8008d8e:	d106      	bne.n	8008d9e <HAL_UART_Receive_IT+0x18>
 8008d90:	b141      	cbz	r1, 8008da4 <HAL_UART_Receive_IT+0x1e>
 8008d92:	b13a      	cbz	r2, 8008da4 <HAL_UART_Receive_IT+0x1e>
 8008d94:	2400      	movs	r4, #0
 8008d96:	6304      	str	r4, [r0, #48]	@ 0x30
 8008d98:	bc70      	pop	{r4, r5, r6}
 8008d9a:	f7ff bfdb 	b.w	8008d54 <UART_Start_Receive_IT>
 8008d9e:	2002      	movs	r0, #2
 8008da0:	bc70      	pop	{r4, r5, r6}
 8008da2:	4770      	bx	lr
 8008da4:	2001      	movs	r0, #1
 8008da6:	e7fb      	b.n	8008da0 <HAL_UART_Receive_IT+0x1a>

08008da8 <USB_CoreReset>:
 8008da8:	b082      	sub	sp, #8
 8008daa:	2300      	movs	r3, #0
 8008dac:	4602      	mov	r2, r0
 8008dae:	9301      	str	r3, [sp, #4]
 8008db0:	9b01      	ldr	r3, [sp, #4]
 8008db2:	3301      	adds	r3, #1
 8008db4:	9301      	str	r3, [sp, #4]
 8008db6:	9b01      	ldr	r3, [sp, #4]
 8008db8:	f1b3 6f70 	cmp.w	r3, #251658240	@ 0xf000000
 8008dbc:	d81a      	bhi.n	8008df4 <USB_CoreReset+0x4c>
 8008dbe:	6913      	ldr	r3, [r2, #16]
 8008dc0:	2b00      	cmp	r3, #0
 8008dc2:	daf5      	bge.n	8008db0 <USB_CoreReset+0x8>
 8008dc4:	230a      	movs	r3, #10
 8008dc6:	9301      	str	r3, [sp, #4]
 8008dc8:	9b01      	ldr	r3, [sp, #4]
 8008dca:	b983      	cbnz	r3, 8008dee <USB_CoreReset+0x46>
 8008dcc:	6913      	ldr	r3, [r2, #16]
 8008dce:	f043 0301 	orr.w	r3, r3, #1
 8008dd2:	6113      	str	r3, [r2, #16]
 8008dd4:	9b01      	ldr	r3, [sp, #4]
 8008dd6:	3301      	adds	r3, #1
 8008dd8:	9301      	str	r3, [sp, #4]
 8008dda:	9b01      	ldr	r3, [sp, #4]
 8008ddc:	f1b3 6f70 	cmp.w	r3, #251658240	@ 0xf000000
 8008de0:	d808      	bhi.n	8008df4 <USB_CoreReset+0x4c>
 8008de2:	6910      	ldr	r0, [r2, #16]
 8008de4:	f010 0001 	ands.w	r0, r0, #1
 8008de8:	d1f4      	bne.n	8008dd4 <USB_CoreReset+0x2c>
 8008dea:	b002      	add	sp, #8
 8008dec:	4770      	bx	lr
 8008dee:	9b01      	ldr	r3, [sp, #4]
 8008df0:	3b01      	subs	r3, #1
 8008df2:	e7e8      	b.n	8008dc6 <USB_CoreReset+0x1e>
 8008df4:	2003      	movs	r0, #3
 8008df6:	e7f8      	b.n	8008dea <USB_CoreReset+0x42>

08008df8 <USB_CoreInit>:
 8008df8:	b084      	sub	sp, #16
 8008dfa:	b538      	push	{r3, r4, r5, lr}
 8008dfc:	ad05      	add	r5, sp, #20
 8008dfe:	e885 000e 	stmia.w	r5, {r1, r2, r3}
 8008e02:	f89d 3019 	ldrb.w	r3, [sp, #25]
 8008e06:	2b01      	cmp	r3, #1
 8008e08:	4604      	mov	r4, r0
 8008e0a:	d127      	bne.n	8008e5c <USB_CoreInit+0x64>
 8008e0c:	6b83      	ldr	r3, [r0, #56]	@ 0x38
 8008e0e:	f423 3380 	bic.w	r3, r3, #65536	@ 0x10000
 8008e12:	6383      	str	r3, [r0, #56]	@ 0x38
 8008e14:	68c3      	ldr	r3, [r0, #12]
 8008e16:	f423 0384 	bic.w	r3, r3, #4325376	@ 0x420000
 8008e1a:	f023 0340 	bic.w	r3, r3, #64	@ 0x40
 8008e1e:	60c3      	str	r3, [r0, #12]
 8008e20:	68c3      	ldr	r3, [r0, #12]
 8008e22:	f423 1340 	bic.w	r3, r3, #3145728	@ 0x300000
 8008e26:	60c3      	str	r3, [r0, #12]
 8008e28:	f89d 3020 	ldrb.w	r3, [sp, #32]
 8008e2c:	2b01      	cmp	r3, #1
 8008e2e:	bf02      	ittt	eq
 8008e30:	68c3      	ldreq	r3, [r0, #12]
 8008e32:	f443 1380 	orreq.w	r3, r3, #1048576	@ 0x100000
 8008e36:	60c3      	streq	r3, [r0, #12]
 8008e38:	f7ff ffb6 	bl	8008da8 <USB_CoreReset>
 8008e3c:	f89d 3016 	ldrb.w	r3, [sp, #22]
 8008e40:	2b01      	cmp	r3, #1
 8008e42:	d107      	bne.n	8008e54 <USB_CoreInit+0x5c>
 8008e44:	68a3      	ldr	r3, [r4, #8]
 8008e46:	f043 0306 	orr.w	r3, r3, #6
 8008e4a:	60a3      	str	r3, [r4, #8]
 8008e4c:	68a3      	ldr	r3, [r4, #8]
 8008e4e:	f043 0320 	orr.w	r3, r3, #32
 8008e52:	60a3      	str	r3, [r4, #8]
 8008e54:	e8bd 4038 	ldmia.w	sp!, {r3, r4, r5, lr}
 8008e58:	b004      	add	sp, #16
 8008e5a:	4770      	bx	lr
 8008e5c:	68c3      	ldr	r3, [r0, #12]
 8008e5e:	f043 0340 	orr.w	r3, r3, #64	@ 0x40
 8008e62:	60c3      	str	r3, [r0, #12]
 8008e64:	f7ff ffa0 	bl	8008da8 <USB_CoreReset>
 8008e68:	f89d 301d 	ldrb.w	r3, [sp, #29]
 8008e6c:	b923      	cbnz	r3, 8008e78 <USB_CoreInit+0x80>
 8008e6e:	6ba3      	ldr	r3, [r4, #56]	@ 0x38
 8008e70:	f443 3380 	orr.w	r3, r3, #65536	@ 0x10000
 8008e74:	63a3      	str	r3, [r4, #56]	@ 0x38
 8008e76:	e7e1      	b.n	8008e3c <USB_CoreInit+0x44>
 8008e78:	6ba3      	ldr	r3, [r4, #56]	@ 0x38
 8008e7a:	f423 3380 	bic.w	r3, r3, #65536	@ 0x10000
 8008e7e:	e7f9      	b.n	8008e74 <USB_CoreInit+0x7c>

08008e80 <USB_SetTurnaroundTime>:
 8008e80:	2a02      	cmp	r2, #2
 8008e82:	d14a      	bne.n	8008f1a <USB_SetTurnaroundTime+0x9a>
 8008e84:	4b27      	ldr	r3, [pc, #156]	@ (8008f24 <USB_SetTurnaroundTime+0xa4>)
 8008e86:	4a28      	ldr	r2, [pc, #160]	@ (8008f28 <USB_SetTurnaroundTime+0xa8>)
 8008e88:	440b      	add	r3, r1
 8008e8a:	4293      	cmp	r3, r2
 8008e8c:	d939      	bls.n	8008f02 <USB_SetTurnaroundTime+0x82>
 8008e8e:	4b27      	ldr	r3, [pc, #156]	@ (8008f2c <USB_SetTurnaroundTime+0xac>)
 8008e90:	4a27      	ldr	r2, [pc, #156]	@ (8008f30 <USB_SetTurnaroundTime+0xb0>)
 8008e92:	440b      	add	r3, r1
 8008e94:	4293      	cmp	r3, r2
 8008e96:	d936      	bls.n	8008f06 <USB_SetTurnaroundTime+0x86>
 8008e98:	4a26      	ldr	r2, [pc, #152]	@ (8008f34 <USB_SetTurnaroundTime+0xb4>)
 8008e9a:	f5a1 0374 	sub.w	r3, r1, #15990784	@ 0xf40000
 8008e9e:	f5a3 5310 	sub.w	r3, r3, #9216	@ 0x2400
 8008ea2:	4293      	cmp	r3, r2
 8008ea4:	d931      	bls.n	8008f0a <USB_SetTurnaroundTime+0x8a>
 8008ea6:	4a24      	ldr	r2, [pc, #144]	@ (8008f38 <USB_SetTurnaroundTime+0xb8>)
 8008ea8:	f1a1 7383 	sub.w	r3, r1, #17170432	@ 0x1060000
 8008eac:	f5a3 43e7 	sub.w	r3, r3, #29568	@ 0x7380
 8008eb0:	4293      	cmp	r3, r2
 8008eb2:	d32c      	bcc.n	8008f0e <USB_SetTurnaroundTime+0x8e>
 8008eb4:	4b21      	ldr	r3, [pc, #132]	@ (8008f3c <USB_SetTurnaroundTime+0xbc>)
 8008eb6:	4a22      	ldr	r2, [pc, #136]	@ (8008f40 <USB_SetTurnaroundTime+0xc0>)
 8008eb8:	440b      	add	r3, r1
 8008eba:	4293      	cmp	r3, r2
 8008ebc:	d929      	bls.n	8008f12 <USB_SetTurnaroundTime+0x92>
 8008ebe:	4b21      	ldr	r3, [pc, #132]	@ (8008f44 <USB_SetTurnaroundTime+0xc4>)
 8008ec0:	4a21      	ldr	r2, [pc, #132]	@ (8008f48 <USB_SetTurnaroundTime+0xc8>)
 8008ec2:	440b      	add	r3, r1
 8008ec4:	4293      	cmp	r3, r2
 8008ec6:	d326      	bcc.n	8008f16 <USB_SetTurnaroundTime+0x96>
 8008ec8:	4b20      	ldr	r3, [pc, #128]	@ (8008f4c <USB_SetTurnaroundTime+0xcc>)
 8008eca:	4a21      	ldr	r2, [pc, #132]	@ (8008f50 <USB_SetTurnaroundTime+0xd0>)
 8008ecc:	440b      	add	r3, r1
 8008ece:	4293      	cmp	r3, r2
 8008ed0:	d323      	bcc.n	8008f1a <USB_SetTurnaroundTime+0x9a>
 8008ed2:	4a20      	ldr	r2, [pc, #128]	@ (8008f54 <USB_SetTurnaroundTime+0xd4>)
 8008ed4:	f1a1 73b7 	sub.w	r3, r1, #23986176	@ 0x16e0000
 8008ed8:	f5a3 5358 	sub.w	r3, r3, #13824	@ 0x3600
 8008edc:	4293      	cmp	r3, r2
 8008ede:	d31e      	bcc.n	8008f1e <USB_SetTurnaroundTime+0x9e>
 8008ee0:	4b1d      	ldr	r3, [pc, #116]	@ (8008f58 <USB_SetTurnaroundTime+0xd8>)
 8008ee2:	4a1e      	ldr	r2, [pc, #120]	@ (8008f5c <USB_SetTurnaroundTime+0xdc>)
 8008ee4:	440b      	add	r3, r1
 8008ee6:	4293      	cmp	r3, r2
 8008ee8:	bf2c      	ite	cs
 8008eea:	2306      	movcs	r3, #6
 8008eec:	2307      	movcc	r3, #7
 8008eee:	68c2      	ldr	r2, [r0, #12]
 8008ef0:	f422 5270 	bic.w	r2, r2, #15360	@ 0x3c00
 8008ef4:	60c2      	str	r2, [r0, #12]
 8008ef6:	68c2      	ldr	r2, [r0, #12]
 8008ef8:	ea42 2383 	orr.w	r3, r2, r3, lsl #10
 8008efc:	60c3      	str	r3, [r0, #12]
 8008efe:	2000      	movs	r0, #0
 8008f00:	4770      	bx	lr
 8008f02:	230f      	movs	r3, #15
 8008f04:	e7f3      	b.n	8008eee <USB_SetTurnaroundTime+0x6e>
 8008f06:	230e      	movs	r3, #14
 8008f08:	e7f1      	b.n	8008eee <USB_SetTurnaroundTime+0x6e>
 8008f0a:	230d      	movs	r3, #13
 8008f0c:	e7ef      	b.n	8008eee <USB_SetTurnaroundTime+0x6e>
 8008f0e:	230c      	movs	r3, #12
 8008f10:	e7ed      	b.n	8008eee <USB_SetTurnaroundTime+0x6e>
 8008f12:	230b      	movs	r3, #11
 8008f14:	e7eb      	b.n	8008eee <USB_SetTurnaroundTime+0x6e>
 8008f16:	230a      	movs	r3, #10
 8008f18:	e7e9      	b.n	8008eee <USB_SetTurnaroundTime+0x6e>
 8008f1a:	2309      	movs	r3, #9
 8008f1c:	e7e7      	b.n	8008eee <USB_SetTurnaroundTime+0x6e>
 8008f1e:	2308      	movs	r3, #8
 8008f20:	e7e5      	b.n	8008eee <USB_SetTurnaroundTime+0x6e>
 8008f22:	bf00      	nop
 8008f24:	ff275340 	.word	0xff275340
 8008f28:	000c34ff 	.word	0x000c34ff
 8008f2c:	ff1b1e40 	.word	0xff1b1e40
 8008f30:	000f423f 	.word	0x000f423f
 8008f34:	00124f7f 	.word	0x00124f7f
 8008f38:	0013d620 	.word	0x0013d620
 8008f3c:	fee5b660 	.word	0xfee5b660
 8008f40:	0016e35f 	.word	0x0016e35f
 8008f44:	feced300 	.word	0xfeced300
 8008f48:	001b7740 	.word	0x001b7740
 8008f4c:	feb35bc0 	.word	0xfeb35bc0
 8008f50:	002191c0 	.word	0x002191c0
 8008f54:	00387520 	.word	0x00387520
 8008f58:	fe5954e0 	.word	0xfe5954e0
 8008f5c:	00419ce0 	.word	0x00419ce0

08008f60 <USB_EnableGlobalInt>:
 8008f60:	6883      	ldr	r3, [r0, #8]
 8008f62:	f043 0301 	orr.w	r3, r3, #1
 8008f66:	6083      	str	r3, [r0, #8]
 8008f68:	2000      	movs	r0, #0
 8008f6a:	4770      	bx	lr

08008f6c <USB_DisableGlobalInt>:
 8008f6c:	6883      	ldr	r3, [r0, #8]
 8008f6e:	f023 0301 	bic.w	r3, r3, #1
 8008f72:	6083      	str	r3, [r0, #8]
 8008f74:	2000      	movs	r0, #0
 8008f76:	4770      	bx	lr

08008f78 <USB_SetCurrentMode>:
 8008f78:	b538      	push	{r3, r4, r5, lr}
 8008f7a:	68c3      	ldr	r3, [r0, #12]
 8008f7c:	2901      	cmp	r1, #1
 8008f7e:	f023 43c0 	bic.w	r3, r3, #1610612736	@ 0x60000000
 8008f82:	4605      	mov	r5, r0
 8008f84:	460c      	mov	r4, r1
 8008f86:	60c3      	str	r3, [r0, #12]
 8008f88:	d114      	bne.n	8008fb4 <USB_SetCurrentMode+0x3c>
 8008f8a:	68c3      	ldr	r3, [r0, #12]
 8008f8c:	f043 5300 	orr.w	r3, r3, #536870912	@ 0x20000000
 8008f90:	60c3      	str	r3, [r0, #12]
 8008f92:	2400      	movs	r4, #0
 8008f94:	200a      	movs	r0, #10
 8008f96:	f7fb fccb 	bl	8004930 <HAL_Delay>
 8008f9a:	696b      	ldr	r3, [r5, #20]
 8008f9c:	07d9      	lsls	r1, r3, #31
 8008f9e:	f104 040a 	add.w	r4, r4, #10
 8008fa2:	d402      	bmi.n	8008faa <USB_SetCurrentMode+0x32>
 8008fa4:	2cc8      	cmp	r4, #200	@ 0xc8
 8008fa6:	d1f5      	bne.n	8008f94 <USB_SetCurrentMode+0x1c>
 8008fa8:	24c8      	movs	r4, #200	@ 0xc8
 8008faa:	f1a4 03c8 	sub.w	r3, r4, #200	@ 0xc8
 8008fae:	4258      	negs	r0, r3
 8008fb0:	4158      	adcs	r0, r3
 8008fb2:	bd38      	pop	{r3, r4, r5, pc}
 8008fb4:	b971      	cbnz	r1, 8008fd4 <USB_SetCurrentMode+0x5c>
 8008fb6:	68c3      	ldr	r3, [r0, #12]
 8008fb8:	f043 4380 	orr.w	r3, r3, #1073741824	@ 0x40000000
 8008fbc:	60c3      	str	r3, [r0, #12]
 8008fbe:	200a      	movs	r0, #10
 8008fc0:	f7fb fcb6 	bl	8004930 <HAL_Delay>
 8008fc4:	696b      	ldr	r3, [r5, #20]
 8008fc6:	07da      	lsls	r2, r3, #31
 8008fc8:	f104 040a 	add.w	r4, r4, #10
 8008fcc:	d5ed      	bpl.n	8008faa <USB_SetCurrentMode+0x32>
 8008fce:	2cc8      	cmp	r4, #200	@ 0xc8
 8008fd0:	d1f5      	bne.n	8008fbe <USB_SetCurrentMode+0x46>
 8008fd2:	e7e9      	b.n	8008fa8 <USB_SetCurrentMode+0x30>
 8008fd4:	2001      	movs	r0, #1
 8008fd6:	e7ec      	b.n	8008fb2 <USB_SetCurrentMode+0x3a>

08008fd8 <USB_FlushTxFifo>:
 8008fd8:	b082      	sub	sp, #8
 8008fda:	2300      	movs	r3, #0
 8008fdc:	4602      	mov	r2, r0
 8008fde:	9301      	str	r3, [sp, #4]
 8008fe0:	9b01      	ldr	r3, [sp, #4]
 8008fe2:	3301      	adds	r3, #1
 8008fe4:	9301      	str	r3, [sp, #4]
 8008fe6:	9b01      	ldr	r3, [sp, #4]
 8008fe8:	f1b3 6f70 	cmp.w	r3, #251658240	@ 0xf000000
 8008fec:	d815      	bhi.n	800901a <USB_FlushTxFifo+0x42>
 8008fee:	6913      	ldr	r3, [r2, #16]
 8008ff0:	2b00      	cmp	r3, #0
 8008ff2:	daf5      	bge.n	8008fe0 <USB_FlushTxFifo+0x8>
 8008ff4:	0189      	lsls	r1, r1, #6
 8008ff6:	2300      	movs	r3, #0
 8008ff8:	f041 0120 	orr.w	r1, r1, #32
 8008ffc:	9301      	str	r3, [sp, #4]
 8008ffe:	6111      	str	r1, [r2, #16]
 8009000:	9b01      	ldr	r3, [sp, #4]
 8009002:	3301      	adds	r3, #1
 8009004:	9301      	str	r3, [sp, #4]
 8009006:	9b01      	ldr	r3, [sp, #4]
 8009008:	f1b3 6f70 	cmp.w	r3, #251658240	@ 0xf000000
 800900c:	d805      	bhi.n	800901a <USB_FlushTxFifo+0x42>
 800900e:	6910      	ldr	r0, [r2, #16]
 8009010:	f010 0020 	ands.w	r0, r0, #32
 8009014:	d1f4      	bne.n	8009000 <USB_FlushTxFifo+0x28>
 8009016:	b002      	add	sp, #8
 8009018:	4770      	bx	lr
 800901a:	2003      	movs	r0, #3
 800901c:	e7fb      	b.n	8009016 <USB_FlushTxFifo+0x3e>

0800901e <USB_FlushRxFifo>:
 800901e:	b082      	sub	sp, #8
 8009020:	2300      	movs	r3, #0
 8009022:	4602      	mov	r2, r0
 8009024:	9301      	str	r3, [sp, #4]
 8009026:	9b01      	ldr	r3, [sp, #4]
 8009028:	3301      	adds	r3, #1
 800902a:	9301      	str	r3, [sp, #4]
 800902c:	9b01      	ldr	r3, [sp, #4]
 800902e:	f1b3 6f70 	cmp.w	r3, #251658240	@ 0xf000000
 8009032:	d813      	bhi.n	800905c <USB_FlushRxFifo+0x3e>
 8009034:	6913      	ldr	r3, [r2, #16]
 8009036:	2b00      	cmp	r3, #0
 8009038:	daf5      	bge.n	8009026 <USB_FlushRxFifo+0x8>
 800903a:	2300      	movs	r3, #0
 800903c:	9301      	str	r3, [sp, #4]
 800903e:	2310      	movs	r3, #16
 8009040:	6113      	str	r3, [r2, #16]
 8009042:	9b01      	ldr	r3, [sp, #4]
 8009044:	3301      	adds	r3, #1
 8009046:	9301      	str	r3, [sp, #4]
 8009048:	9b01      	ldr	r3, [sp, #4]
 800904a:	f1b3 6f70 	cmp.w	r3, #251658240	@ 0xf000000
 800904e:	d805      	bhi.n	800905c <USB_FlushRxFifo+0x3e>
 8009050:	6910      	ldr	r0, [r2, #16]
 8009052:	f010 0010 	ands.w	r0, r0, #16
 8009056:	d1f4      	bne.n	8009042 <USB_FlushRxFifo+0x24>
 8009058:	b002      	add	sp, #8
 800905a:	4770      	bx	lr
 800905c:	2003      	movs	r0, #3
 800905e:	e7fb      	b.n	8009058 <USB_FlushRxFifo+0x3a>

08009060 <USB_SetDevSpeed>:
 8009060:	f8d0 3800 	ldr.w	r3, [r0, #2048]	@ 0x800
 8009064:	4319      	orrs	r1, r3
 8009066:	f8c0 1800 	str.w	r1, [r0, #2048]	@ 0x800
 800906a:	2000      	movs	r0, #0
 800906c:	4770      	bx	lr
	...

08009070 <USB_DevInit>:
 8009070:	b084      	sub	sp, #16
 8009072:	e92d 43f8 	stmdb	sp!, {r3, r4, r5, r6, r7, r8, r9, lr}
 8009076:	4604      	mov	r4, r0
 8009078:	a809      	add	r0, sp, #36	@ 0x24
 800907a:	e880 000e 	stmia.w	r0, {r1, r2, r3}
 800907e:	2300      	movs	r3, #0
 8009080:	f89d 6024 	ldrb.w	r6, [sp, #36]	@ 0x24
 8009084:	f89d 502e 	ldrb.w	r5, [sp, #46]	@ 0x2e
 8009088:	4619      	mov	r1, r3
 800908a:	f103 0240 	add.w	r2, r3, #64	@ 0x40
 800908e:	eb04 0282 	add.w	r2, r4, r2, lsl #2
 8009092:	3301      	adds	r3, #1
 8009094:	2b0f      	cmp	r3, #15
 8009096:	6051      	str	r1, [r2, #4]
 8009098:	d1f7      	bne.n	800908a <USB_DevInit+0x1a>
 800909a:	f504 6700 	add.w	r7, r4, #2048	@ 0x800
 800909e:	2d00      	cmp	r5, #0
 80090a0:	d16c      	bne.n	800917c <USB_DevInit+0x10c>
 80090a2:	687b      	ldr	r3, [r7, #4]
 80090a4:	f043 0302 	orr.w	r3, r3, #2
 80090a8:	607b      	str	r3, [r7, #4]
 80090aa:	6ba3      	ldr	r3, [r4, #56]	@ 0x38
 80090ac:	f443 1300 	orr.w	r3, r3, #2097152	@ 0x200000
 80090b0:	63a3      	str	r3, [r4, #56]	@ 0x38
 80090b2:	6ba3      	ldr	r3, [r4, #56]	@ 0x38
 80090b4:	f423 2300 	bic.w	r3, r3, #524288	@ 0x80000
 80090b8:	63a3      	str	r3, [r4, #56]	@ 0x38
 80090ba:	6ba3      	ldr	r3, [r4, #56]	@ 0x38
 80090bc:	f423 2380 	bic.w	r3, r3, #262144	@ 0x40000
 80090c0:	63a3      	str	r3, [r4, #56]	@ 0x38
 80090c2:	2300      	movs	r3, #0
 80090c4:	f8c4 3e00 	str.w	r3, [r4, #3584]	@ 0xe00
 80090c8:	f89d 3029 	ldrb.w	r3, [sp, #41]	@ 0x29
 80090cc:	2b01      	cmp	r3, #1
 80090ce:	d15f      	bne.n	8009190 <USB_DevInit+0x120>
 80090d0:	f89d 1027 	ldrb.w	r1, [sp, #39]	@ 0x27
 80090d4:	2900      	cmp	r1, #0
 80090d6:	d159      	bne.n	800918c <USB_DevInit+0x11c>
 80090d8:	4620      	mov	r0, r4
 80090da:	f7ff ffc1 	bl	8009060 <USB_SetDevSpeed>
 80090de:	2110      	movs	r1, #16
 80090e0:	4620      	mov	r0, r4
 80090e2:	f7ff ff79 	bl	8008fd8 <USB_FlushTxFifo>
 80090e6:	4601      	mov	r1, r0
 80090e8:	4620      	mov	r0, r4
 80090ea:	f7ff ff98 	bl	800901e <USB_FlushRxFifo>
 80090ee:	4308      	orrs	r0, r1
 80090f0:	b2c0      	uxtb	r0, r0
 80090f2:	2300      	movs	r3, #0
 80090f4:	3800      	subs	r0, #0
 80090f6:	613b      	str	r3, [r7, #16]
 80090f8:	bf18      	it	ne
 80090fa:	2001      	movne	r0, #1
 80090fc:	617b      	str	r3, [r7, #20]
 80090fe:	f504 6210 	add.w	r2, r4, #2304	@ 0x900
 8009102:	61fb      	str	r3, [r7, #28]
 8009104:	4619      	mov	r1, r3
 8009106:	f04f 4c90 	mov.w	ip, #1207959552	@ 0x48000000
 800910a:	f04f 6e00 	mov.w	lr, #134217728	@ 0x8000000
 800910e:	f64f 387f 	movw	r8, #64383	@ 0xfb7f
 8009112:	429e      	cmp	r6, r3
 8009114:	d83e      	bhi.n	8009194 <USB_DevInit+0x124>
 8009116:	2200      	movs	r2, #0
 8009118:	f504 6330 	add.w	r3, r4, #2816	@ 0xb00
 800911c:	4611      	mov	r1, r2
 800911e:	f04f 4c90 	mov.w	ip, #1207959552	@ 0x48000000
 8009122:	f04f 6e00 	mov.w	lr, #134217728	@ 0x8000000
 8009126:	f64f 387f 	movw	r8, #64383	@ 0xfb7f
 800912a:	4296      	cmp	r6, r2
 800912c:	d845      	bhi.n	80091ba <USB_DevInit+0x14a>
 800912e:	693b      	ldr	r3, [r7, #16]
 8009130:	f423 7380 	bic.w	r3, r3, #256	@ 0x100
 8009134:	613b      	str	r3, [r7, #16]
 8009136:	2300      	movs	r3, #0
 8009138:	61a3      	str	r3, [r4, #24]
 800913a:	f06f 4380 	mvn.w	r3, #1073741824	@ 0x40000000
 800913e:	6163      	str	r3, [r4, #20]
 8009140:	f89d 3026 	ldrb.w	r3, [sp, #38]	@ 0x26
 8009144:	b91b      	cbnz	r3, 800914e <USB_DevInit+0xde>
 8009146:	69a3      	ldr	r3, [r4, #24]
 8009148:	f043 0310 	orr.w	r3, r3, #16
 800914c:	61a3      	str	r3, [r4, #24]
 800914e:	69a2      	ldr	r2, [r4, #24]
 8009150:	4b23      	ldr	r3, [pc, #140]	@ (80091e0 <USB_DevInit+0x170>)
 8009152:	4313      	orrs	r3, r2
 8009154:	61a3      	str	r3, [r4, #24]
 8009156:	f89d 302a 	ldrb.w	r3, [sp, #42]	@ 0x2a
 800915a:	b11b      	cbz	r3, 8009164 <USB_DevInit+0xf4>
 800915c:	69a3      	ldr	r3, [r4, #24]
 800915e:	f043 0308 	orr.w	r3, r3, #8
 8009162:	61a3      	str	r3, [r4, #24]
 8009164:	2d01      	cmp	r5, #1
 8009166:	bf01      	itttt	eq
 8009168:	69a3      	ldreq	r3, [r4, #24]
 800916a:	f043 4380 	orreq.w	r3, r3, #1073741824	@ 0x40000000
 800916e:	f043 0304 	orreq.w	r3, r3, #4
 8009172:	61a3      	streq	r3, [r4, #24]
 8009174:	e8bd 43f8 	ldmia.w	sp!, {r3, r4, r5, r6, r7, r8, r9, lr}
 8009178:	b004      	add	sp, #16
 800917a:	4770      	bx	lr
 800917c:	6ba3      	ldr	r3, [r4, #56]	@ 0x38
 800917e:	f423 1300 	bic.w	r3, r3, #2097152	@ 0x200000
 8009182:	63a3      	str	r3, [r4, #56]	@ 0x38
 8009184:	6ba3      	ldr	r3, [r4, #56]	@ 0x38
 8009186:	f443 2300 	orr.w	r3, r3, #524288	@ 0x80000
 800918a:	e799      	b.n	80090c0 <USB_DevInit+0x50>
 800918c:	4619      	mov	r1, r3
 800918e:	e7a3      	b.n	80090d8 <USB_DevInit+0x68>
 8009190:	2103      	movs	r1, #3
 8009192:	e7a1      	b.n	80090d8 <USB_DevInit+0x68>
 8009194:	f8d2 9000 	ldr.w	r9, [r2]
 8009198:	f1b9 0f00 	cmp.w	r9, #0
 800919c:	da0b      	bge.n	80091b6 <USB_DevInit+0x146>
 800919e:	b93b      	cbnz	r3, 80091b0 <USB_DevInit+0x140>
 80091a0:	f8c2 e000 	str.w	lr, [r2]
 80091a4:	6111      	str	r1, [r2, #16]
 80091a6:	3301      	adds	r3, #1
 80091a8:	f8c2 8008 	str.w	r8, [r2, #8]
 80091ac:	3220      	adds	r2, #32
 80091ae:	e7b0      	b.n	8009112 <USB_DevInit+0xa2>
 80091b0:	f8c2 c000 	str.w	ip, [r2]
 80091b4:	e7f6      	b.n	80091a4 <USB_DevInit+0x134>
 80091b6:	6011      	str	r1, [r2, #0]
 80091b8:	e7f4      	b.n	80091a4 <USB_DevInit+0x134>
 80091ba:	f8d3 9000 	ldr.w	r9, [r3]
 80091be:	f1b9 0f00 	cmp.w	r9, #0
 80091c2:	da0b      	bge.n	80091dc <USB_DevInit+0x16c>
 80091c4:	b93a      	cbnz	r2, 80091d6 <USB_DevInit+0x166>
 80091c6:	f8c3 e000 	str.w	lr, [r3]
 80091ca:	6119      	str	r1, [r3, #16]
 80091cc:	3201      	adds	r2, #1
 80091ce:	f8c3 8008 	str.w	r8, [r3, #8]
 80091d2:	3320      	adds	r3, #32
 80091d4:	e7a9      	b.n	800912a <USB_DevInit+0xba>
 80091d6:	f8c3 c000 	str.w	ip, [r3]
 80091da:	e7f6      	b.n	80091ca <USB_DevInit+0x15a>
 80091dc:	6019      	str	r1, [r3, #0]
 80091de:	e7f4      	b.n	80091ca <USB_DevInit+0x15a>
 80091e0:	803c3800 	.word	0x803c3800

080091e4 <USB_GetDevSpeed>:
 80091e4:	f8d0 3808 	ldr.w	r3, [r0, #2056]	@ 0x808
 80091e8:	f013 0006 	ands.w	r0, r3, #6
 80091ec:	d004      	beq.n	80091f8 <USB_GetDevSpeed+0x14>
 80091ee:	f013 0f02 	tst.w	r3, #2
 80091f2:	bf14      	ite	ne
 80091f4:	2002      	movne	r0, #2
 80091f6:	200f      	moveq	r0, #15
 80091f8:	4770      	bx	lr

080091fa <USB_ActivateEndpoint>:
 80091fa:	b530      	push	{r4, r5, lr}
 80091fc:	780c      	ldrb	r4, [r1, #0]
 80091fe:	2201      	movs	r2, #1
 8009200:	f004 050f 	and.w	r5, r4, #15
 8009204:	40aa      	lsls	r2, r5
 8009206:	784d      	ldrb	r5, [r1, #1]
 8009208:	2d01      	cmp	r5, #1
 800920a:	f500 6300 	add.w	r3, r0, #2048	@ 0x800
 800920e:	eb00 1044 	add.w	r0, r0, r4, lsl #5
 8009212:	d119      	bne.n	8009248 <USB_ActivateEndpoint+0x4e>
 8009214:	69dd      	ldr	r5, [r3, #28]
 8009216:	432a      	orrs	r2, r5
 8009218:	61da      	str	r2, [r3, #28]
 800921a:	f8d0 3900 	ldr.w	r3, [r0, #2304]	@ 0x900
 800921e:	041a      	lsls	r2, r3, #16
 8009220:	d410      	bmi.n	8009244 <USB_ActivateEndpoint+0x4a>
 8009222:	688a      	ldr	r2, [r1, #8]
 8009224:	f8d0 5900 	ldr.w	r5, [r0, #2304]	@ 0x900
 8009228:	f3c2 030a 	ubfx	r3, r2, #0, #11
 800922c:	790a      	ldrb	r2, [r1, #4]
 800922e:	432b      	orrs	r3, r5
 8009230:	ea43 4382 	orr.w	r3, r3, r2, lsl #18
 8009234:	ea43 5384 	orr.w	r3, r3, r4, lsl #22
 8009238:	f043 5380 	orr.w	r3, r3, #268435456	@ 0x10000000
 800923c:	f443 4300 	orr.w	r3, r3, #32768	@ 0x8000
 8009240:	f8c0 3900 	str.w	r3, [r0, #2304]	@ 0x900
 8009244:	2000      	movs	r0, #0
 8009246:	bd30      	pop	{r4, r5, pc}
 8009248:	69dc      	ldr	r4, [r3, #28]
 800924a:	ea44 4202 	orr.w	r2, r4, r2, lsl #16
 800924e:	61da      	str	r2, [r3, #28]
 8009250:	f8d0 3b00 	ldr.w	r3, [r0, #2816]	@ 0xb00
 8009254:	041b      	lsls	r3, r3, #16
 8009256:	d4f5      	bmi.n	8009244 <USB_ActivateEndpoint+0x4a>
 8009258:	688b      	ldr	r3, [r1, #8]
 800925a:	f8d0 2b00 	ldr.w	r2, [r0, #2816]	@ 0xb00
 800925e:	f3c3 030a 	ubfx	r3, r3, #0, #11
 8009262:	4313      	orrs	r3, r2
 8009264:	790a      	ldrb	r2, [r1, #4]
 8009266:	ea43 4382 	orr.w	r3, r3, r2, lsl #18
 800926a:	f043 5380 	orr.w	r3, r3, #268435456	@ 0x10000000
 800926e:	f443 4300 	orr.w	r3, r3, #32768	@ 0x8000
 8009272:	f8c0 3b00 	str.w	r3, [r0, #2816]	@ 0xb00
 8009276:	e7e5      	b.n	8009244 <USB_ActivateEndpoint+0x4a>

08009278 <USB_DeactivateEndpoint>:
 8009278:	b510      	push	{r4, lr}
 800927a:	780a      	ldrb	r2, [r1, #0]
 800927c:	7849      	ldrb	r1, [r1, #1]
 800927e:	2901      	cmp	r1, #1
 8009280:	eb00 1342 	add.w	r3, r0, r2, lsl #5
 8009284:	f500 6000 	add.w	r0, r0, #2048	@ 0x800
 8009288:	f002 020f 	and.w	r2, r2, #15
 800928c:	d122      	bne.n	80092d4 <USB_DeactivateEndpoint+0x5c>
 800928e:	f8d3 1900 	ldr.w	r1, [r3, #2304]	@ 0x900
 8009292:	2900      	cmp	r1, #0
 8009294:	da0b      	bge.n	80092ae <USB_DeactivateEndpoint+0x36>
 8009296:	f8d3 1900 	ldr.w	r1, [r3, #2304]	@ 0x900
 800929a:	f041 6100 	orr.w	r1, r1, #134217728	@ 0x8000000
 800929e:	f8c3 1900 	str.w	r1, [r3, #2304]	@ 0x900
 80092a2:	f8d3 1900 	ldr.w	r1, [r3, #2304]	@ 0x900
 80092a6:	f041 4180 	orr.w	r1, r1, #1073741824	@ 0x40000000
 80092aa:	f8c3 1900 	str.w	r1, [r3, #2304]	@ 0x900
 80092ae:	6bc4      	ldr	r4, [r0, #60]	@ 0x3c
 80092b0:	2101      	movs	r1, #1
 80092b2:	fa01 f202 	lsl.w	r2, r1, r2
 80092b6:	ea24 0402 	bic.w	r4, r4, r2
 80092ba:	63c4      	str	r4, [r0, #60]	@ 0x3c
 80092bc:	69c1      	ldr	r1, [r0, #28]
 80092be:	ea21 0202 	bic.w	r2, r1, r2
 80092c2:	61c2      	str	r2, [r0, #28]
 80092c4:	f8d3 1900 	ldr.w	r1, [r3, #2304]	@ 0x900
 80092c8:	4a14      	ldr	r2, [pc, #80]	@ (800931c <USB_DeactivateEndpoint+0xa4>)
 80092ca:	400a      	ands	r2, r1
 80092cc:	f8c3 2900 	str.w	r2, [r3, #2304]	@ 0x900
 80092d0:	2000      	movs	r0, #0
 80092d2:	bd10      	pop	{r4, pc}
 80092d4:	f8d3 1b00 	ldr.w	r1, [r3, #2816]	@ 0xb00
 80092d8:	2900      	cmp	r1, #0
 80092da:	da0b      	bge.n	80092f4 <USB_DeactivateEndpoint+0x7c>
 80092dc:	f8d3 1b00 	ldr.w	r1, [r3, #2816]	@ 0xb00
 80092e0:	f041 6100 	orr.w	r1, r1, #134217728	@ 0x8000000
 80092e4:	f8c3 1b00 	str.w	r1, [r3, #2816]	@ 0xb00
 80092e8:	f8d3 1b00 	ldr.w	r1, [r3, #2816]	@ 0xb00
 80092ec:	f041 4180 	orr.w	r1, r1, #1073741824	@ 0x40000000
 80092f0:	f8c3 1b00 	str.w	r1, [r3, #2816]	@ 0xb00
 80092f4:	6bc4      	ldr	r4, [r0, #60]	@ 0x3c
 80092f6:	f44f 3180 	mov.w	r1, #65536	@ 0x10000
 80092fa:	fa01 f202 	lsl.w	r2, r1, r2
 80092fe:	ea24 0402 	bic.w	r4, r4, r2
 8009302:	63c4      	str	r4, [r0, #60]	@ 0x3c
 8009304:	69c1      	ldr	r1, [r0, #28]
 8009306:	ea21 0202 	bic.w	r2, r1, r2
 800930a:	61c2      	str	r2, [r0, #28]
 800930c:	f8d3 1b00 	ldr.w	r1, [r3, #2816]	@ 0xb00
 8009310:	4a03      	ldr	r2, [pc, #12]	@ (8009320 <USB_DeactivateEndpoint+0xa8>)
 8009312:	400a      	ands	r2, r1
 8009314:	f8c3 2b00 	str.w	r2, [r3, #2816]	@ 0xb00
 8009318:	e7da      	b.n	80092d0 <USB_DeactivateEndpoint+0x58>
 800931a:	bf00      	nop
 800931c:	ec337800 	.word	0xec337800
 8009320:	eff37800 	.word	0xeff37800

08009324 <USB_EPStopXfer>:
 8009324:	b082      	sub	sp, #8
 8009326:	2300      	movs	r3, #0
 8009328:	784a      	ldrb	r2, [r1, #1]
 800932a:	9301      	str	r3, [sp, #4]
 800932c:	780b      	ldrb	r3, [r1, #0]
 800932e:	2a01      	cmp	r2, #1
 8009330:	ea4f 1343 	mov.w	r3, r3, lsl #5
 8009334:	d11e      	bne.n	8009374 <USB_EPStopXfer+0x50>
 8009336:	f500 6010 	add.w	r0, r0, #2304	@ 0x900
 800933a:	18c1      	adds	r1, r0, r3
 800933c:	58c2      	ldr	r2, [r0, r3]
 800933e:	2a00      	cmp	r2, #0
 8009340:	db02      	blt.n	8009348 <USB_EPStopXfer+0x24>
 8009342:	2000      	movs	r0, #0
 8009344:	b002      	add	sp, #8
 8009346:	4770      	bx	lr
 8009348:	58c2      	ldr	r2, [r0, r3]
 800934a:	f042 6200 	orr.w	r2, r2, #134217728	@ 0x8000000
 800934e:	50c2      	str	r2, [r0, r3]
 8009350:	58c2      	ldr	r2, [r0, r3]
 8009352:	f042 4280 	orr.w	r2, r2, #1073741824	@ 0x40000000
 8009356:	50c2      	str	r2, [r0, r3]
 8009358:	f242 7210 	movw	r2, #10000	@ 0x2710
 800935c:	9b01      	ldr	r3, [sp, #4]
 800935e:	3301      	adds	r3, #1
 8009360:	9301      	str	r3, [sp, #4]
 8009362:	9b01      	ldr	r3, [sp, #4]
 8009364:	4293      	cmp	r3, r2
 8009366:	d901      	bls.n	800936c <USB_EPStopXfer+0x48>
 8009368:	2001      	movs	r0, #1
 800936a:	e7eb      	b.n	8009344 <USB_EPStopXfer+0x20>
 800936c:	680b      	ldr	r3, [r1, #0]
 800936e:	2b00      	cmp	r3, #0
 8009370:	dbf4      	blt.n	800935c <USB_EPStopXfer+0x38>
 8009372:	e7e6      	b.n	8009342 <USB_EPStopXfer+0x1e>
 8009374:	f500 6030 	add.w	r0, r0, #2816	@ 0xb00
 8009378:	18c1      	adds	r1, r0, r3
 800937a:	58c2      	ldr	r2, [r0, r3]
 800937c:	2a00      	cmp	r2, #0
 800937e:	dae0      	bge.n	8009342 <USB_EPStopXfer+0x1e>
 8009380:	58c2      	ldr	r2, [r0, r3]
 8009382:	f042 6200 	orr.w	r2, r2, #134217728	@ 0x8000000
 8009386:	50c2      	str	r2, [r0, r3]
 8009388:	58c2      	ldr	r2, [r0, r3]
 800938a:	f042 4280 	orr.w	r2, r2, #1073741824	@ 0x40000000
 800938e:	50c2      	str	r2, [r0, r3]
 8009390:	f242 7210 	movw	r2, #10000	@ 0x2710
 8009394:	9b01      	ldr	r3, [sp, #4]
 8009396:	3301      	adds	r3, #1
 8009398:	9301      	str	r3, [sp, #4]
 800939a:	9b01      	ldr	r3, [sp, #4]
 800939c:	4293      	cmp	r3, r2
 800939e:	d8e3      	bhi.n	8009368 <USB_EPStopXfer+0x44>
 80093a0:	680b      	ldr	r3, [r1, #0]
 80093a2:	2b00      	cmp	r3, #0
 80093a4:	dbf6      	blt.n	8009394 <USB_EPStopXfer+0x70>
 80093a6:	e7cc      	b.n	8009342 <USB_EPStopXfer+0x1e>

080093a8 <USB_WritePacket>:
 80093a8:	b510      	push	{r4, lr}
 80093aa:	f89d 4008 	ldrb.w	r4, [sp, #8]
 80093ae:	b944      	cbnz	r4, 80093c2 <USB_WritePacket+0x1a>
 80093b0:	3303      	adds	r3, #3
 80093b2:	3201      	adds	r2, #1
 80093b4:	089b      	lsrs	r3, r3, #2
 80093b6:	eb00 3002 	add.w	r0, r0, r2, lsl #12
 80093ba:	eb01 0383 	add.w	r3, r1, r3, lsl #2
 80093be:	4299      	cmp	r1, r3
 80093c0:	d101      	bne.n	80093c6 <USB_WritePacket+0x1e>
 80093c2:	2000      	movs	r0, #0
 80093c4:	bd10      	pop	{r4, pc}
 80093c6:	f851 2b04 	ldr.w	r2, [r1], #4
 80093ca:	6002      	str	r2, [r0, #0]
 80093cc:	e7f7      	b.n	80093be <USB_WritePacket+0x16>
	...

080093d0 <USB_EPStartXfer>:
 80093d0:	e92d 41f3 	stmdb	sp!, {r0, r1, r4, r5, r6, r7, r8, lr}
 80093d4:	784b      	ldrb	r3, [r1, #1]
 80093d6:	690c      	ldr	r4, [r1, #16]
 80093d8:	790f      	ldrb	r7, [r1, #4]
 80093da:	f8df e1f0 	ldr.w	lr, [pc, #496]	@ 80095cc <USB_EPStartXfer+0x1fc>
 80093de:	f8df 81f0 	ldr.w	r8, [pc, #496]	@ 80095d0 <USB_EPStartXfer+0x200>
 80093e2:	4616      	mov	r6, r2
 80093e4:	780a      	ldrb	r2, [r1, #0]
 80093e6:	2b01      	cmp	r3, #1
 80093e8:	eb00 1542 	add.w	r5, r0, r2, lsl #5
 80093ec:	f040 8097 	bne.w	800951e <USB_EPStartXfer+0x14e>
 80093f0:	f505 6c10 	add.w	ip, r5, #2304	@ 0x900
 80093f4:	f8dc 3010 	ldr.w	r3, [ip, #16]
 80093f8:	bb74      	cbnz	r4, 8009458 <USB_EPStartXfer+0x88>
 80093fa:	ea03 030e 	and.w	r3, r3, lr
 80093fe:	f8cc 3010 	str.w	r3, [ip, #16]
 8009402:	f8dc 3010 	ldr.w	r3, [ip, #16]
 8009406:	f443 2300 	orr.w	r3, r3, #524288	@ 0x80000
 800940a:	f8cc 3010 	str.w	r3, [ip, #16]
 800940e:	f8dc 3010 	ldr.w	r3, [ip, #16]
 8009412:	ea03 0308 	and.w	r3, r3, r8
 8009416:	2e01      	cmp	r6, #1
 8009418:	f8cc 3010 	str.w	r3, [ip, #16]
 800941c:	d157      	bne.n	80094ce <USB_EPStartXfer+0xfe>
 800941e:	69cb      	ldr	r3, [r1, #28]
 8009420:	b10b      	cbz	r3, 8009426 <USB_EPStartXfer+0x56>
 8009422:	f8cc 3014 	str.w	r3, [ip, #20]
 8009426:	2f01      	cmp	r7, #1
 8009428:	d10c      	bne.n	8009444 <USB_EPStartXfer+0x74>
 800942a:	f8d0 3808 	ldr.w	r3, [r0, #2056]	@ 0x808
 800942e:	f413 7f80 	tst.w	r3, #256	@ 0x100
 8009432:	f8d5 3900 	ldr.w	r3, [r5, #2304]	@ 0x900
 8009436:	bf0c      	ite	eq
 8009438:	f043 5300 	orreq.w	r3, r3, #536870912	@ 0x20000000
 800943c:	f043 5380 	orrne.w	r3, r3, #268435456	@ 0x10000000
 8009440:	f8c5 3900 	str.w	r3, [r5, #2304]	@ 0x900
 8009444:	f8d5 3900 	ldr.w	r3, [r5, #2304]	@ 0x900
 8009448:	f043 4304 	orr.w	r3, r3, #2214592512	@ 0x84000000
 800944c:	f8c5 3900 	str.w	r3, [r5, #2304]	@ 0x900
 8009450:	2000      	movs	r0, #0
 8009452:	b002      	add	sp, #8
 8009454:	e8bd 81f0 	ldmia.w	sp!, {r4, r5, r6, r7, r8, pc}
 8009458:	ea03 0308 	and.w	r3, r3, r8
 800945c:	f8cc 3010 	str.w	r3, [ip, #16]
 8009460:	f8dc 3010 	ldr.w	r3, [ip, #16]
 8009464:	ea03 030e 	and.w	r3, r3, lr
 8009468:	f8cc 3010 	str.w	r3, [ip, #16]
 800946c:	688b      	ldr	r3, [r1, #8]
 800946e:	b97a      	cbnz	r2, 8009490 <USB_EPStartXfer+0xc0>
 8009470:	42a3      	cmp	r3, r4
 8009472:	bf38      	it	cc
 8009474:	610b      	strcc	r3, [r1, #16]
 8009476:	f8dc 3010 	ldr.w	r3, [ip, #16]
 800947a:	f443 2300 	orr.w	r3, r3, #524288	@ 0x80000
 800947e:	f8cc 3010 	str.w	r3, [ip, #16]
 8009482:	690b      	ldr	r3, [r1, #16]
 8009484:	f8dc 4010 	ldr.w	r4, [ip, #16]
 8009488:	f3c3 0312 	ubfx	r3, r3, #0, #19
 800948c:	4323      	orrs	r3, r4
 800948e:	e7c2      	b.n	8009416 <USB_EPStartXfer+0x46>
 8009490:	441c      	add	r4, r3
 8009492:	3c01      	subs	r4, #1
 8009494:	fbb4 f4f3 	udiv	r4, r4, r3
 8009498:	4b4b      	ldr	r3, [pc, #300]	@ (80095c8 <USB_EPStartXfer+0x1f8>)
 800949a:	f8dc e010 	ldr.w	lr, [ip, #16]
 800949e:	fa1f f884 	uxth.w	r8, r4
 80094a2:	ea03 44c4 	and.w	r4, r3, r4, lsl #19
 80094a6:	ea44 040e 	orr.w	r4, r4, lr
 80094aa:	2f01      	cmp	r7, #1
 80094ac:	f8cc 4010 	str.w	r4, [ip, #16]
 80094b0:	d1e7      	bne.n	8009482 <USB_EPStartXfer+0xb2>
 80094b2:	f8dc 3010 	ldr.w	r3, [ip, #16]
 80094b6:	f023 43c0 	bic.w	r3, r3, #1610612736	@ 0x60000000
 80094ba:	f8cc 3010 	str.w	r3, [ip, #16]
 80094be:	f8dc 4010 	ldr.w	r4, [ip, #16]
 80094c2:	ea4f 7348 	mov.w	r3, r8, lsl #29
 80094c6:	f003 43c0 	and.w	r3, r3, #1610612736	@ 0x60000000
 80094ca:	4323      	orrs	r3, r4
 80094cc:	e7d7      	b.n	800947e <USB_EPStartXfer+0xae>
 80094ce:	f8d5 3900 	ldr.w	r3, [r5, #2304]	@ 0x900
 80094d2:	2f01      	cmp	r7, #1
 80094d4:	f043 4304 	orr.w	r3, r3, #2214592512	@ 0x84000000
 80094d8:	f8c5 3900 	str.w	r3, [r5, #2304]	@ 0x900
 80094dc:	690b      	ldr	r3, [r1, #16]
 80094de:	d00b      	beq.n	80094f8 <USB_EPStartXfer+0x128>
 80094e0:	2b00      	cmp	r3, #0
 80094e2:	d0b5      	beq.n	8009450 <USB_EPStartXfer+0x80>
 80094e4:	f8d0 1834 	ldr.w	r1, [r0, #2100]	@ 0x834
 80094e8:	f002 020f 	and.w	r2, r2, #15
 80094ec:	2301      	movs	r3, #1
 80094ee:	4093      	lsls	r3, r2
 80094f0:	430b      	orrs	r3, r1
 80094f2:	f8c0 3834 	str.w	r3, [r0, #2100]	@ 0x834
 80094f6:	e7ab      	b.n	8009450 <USB_EPStartXfer+0x80>
 80094f8:	f8d0 4808 	ldr.w	r4, [r0, #2056]	@ 0x808
 80094fc:	f414 7f80 	tst.w	r4, #256	@ 0x100
 8009500:	f8d5 4900 	ldr.w	r4, [r5, #2304]	@ 0x900
 8009504:	bf0c      	ite	eq
 8009506:	f044 5400 	orreq.w	r4, r4, #536870912	@ 0x20000000
 800950a:	f044 5480 	orrne.w	r4, r4, #268435456	@ 0x10000000
 800950e:	f8c5 4900 	str.w	r4, [r5, #2304]	@ 0x900
 8009512:	9600      	str	r6, [sp, #0]
 8009514:	68c9      	ldr	r1, [r1, #12]
 8009516:	b29b      	uxth	r3, r3
 8009518:	f7ff ff46 	bl	80093a8 <USB_WritePacket>
 800951c:	e798      	b.n	8009450 <USB_EPStartXfer+0x80>
 800951e:	f8d5 3b10 	ldr.w	r3, [r5, #2832]	@ 0xb10
 8009522:	ea03 0308 	and.w	r3, r3, r8
 8009526:	f8c5 3b10 	str.w	r3, [r5, #2832]	@ 0xb10
 800952a:	f8d5 3b10 	ldr.w	r3, [r5, #2832]	@ 0xb10
 800952e:	ea03 030e 	and.w	r3, r3, lr
 8009532:	f505 6c30 	add.w	ip, r5, #2816	@ 0xb00
 8009536:	f8cc 3010 	str.w	r3, [ip, #16]
 800953a:	688b      	ldr	r3, [r1, #8]
 800953c:	bb5a      	cbnz	r2, 8009596 <USB_EPStartXfer+0x1c6>
 800953e:	b104      	cbz	r4, 8009542 <USB_EPStartXfer+0x172>
 8009540:	610b      	str	r3, [r1, #16]
 8009542:	620b      	str	r3, [r1, #32]
 8009544:	f8dc 2010 	ldr.w	r2, [ip, #16]
 8009548:	f3c3 0312 	ubfx	r3, r3, #0, #19
 800954c:	4313      	orrs	r3, r2
 800954e:	f8cc 3010 	str.w	r3, [ip, #16]
 8009552:	f8dc 3010 	ldr.w	r3, [ip, #16]
 8009556:	f443 2300 	orr.w	r3, r3, #524288	@ 0x80000
 800955a:	2e01      	cmp	r6, #1
 800955c:	f8cc 3010 	str.w	r3, [ip, #16]
 8009560:	d103      	bne.n	800956a <USB_EPStartXfer+0x19a>
 8009562:	68cb      	ldr	r3, [r1, #12]
 8009564:	b10b      	cbz	r3, 800956a <USB_EPStartXfer+0x19a>
 8009566:	f8cc 3014 	str.w	r3, [ip, #20]
 800956a:	2f01      	cmp	r7, #1
 800956c:	d10c      	bne.n	8009588 <USB_EPStartXfer+0x1b8>
 800956e:	f8d0 3808 	ldr.w	r3, [r0, #2056]	@ 0x808
 8009572:	f413 7f80 	tst.w	r3, #256	@ 0x100
 8009576:	f8d5 3b00 	ldr.w	r3, [r5, #2816]	@ 0xb00
 800957a:	bf0c      	ite	eq
 800957c:	f043 5300 	orreq.w	r3, r3, #536870912	@ 0x20000000
 8009580:	f043 5380 	orrne.w	r3, r3, #268435456	@ 0x10000000
 8009584:	f8c5 3b00 	str.w	r3, [r5, #2816]	@ 0xb00
 8009588:	f8d5 3b00 	ldr.w	r3, [r5, #2816]	@ 0xb00
 800958c:	f043 4304 	orr.w	r3, r3, #2214592512	@ 0x84000000
 8009590:	f8c5 3b00 	str.w	r3, [r5, #2816]	@ 0xb00
 8009594:	e75c      	b.n	8009450 <USB_EPStartXfer+0x80>
 8009596:	2c00      	cmp	r4, #0
 8009598:	d0d4      	beq.n	8009544 <USB_EPStartXfer+0x174>
 800959a:	441c      	add	r4, r3
 800959c:	4a0a      	ldr	r2, [pc, #40]	@ (80095c8 <USB_EPStartXfer+0x1f8>)
 800959e:	f8dc e010 	ldr.w	lr, [ip, #16]
 80095a2:	3c01      	subs	r4, #1
 80095a4:	fbb4 f4f3 	udiv	r4, r4, r3
 80095a8:	b2a4      	uxth	r4, r4
 80095aa:	ea02 42c4 	and.w	r2, r2, r4, lsl #19
 80095ae:	4363      	muls	r3, r4
 80095b0:	ea42 020e 	orr.w	r2, r2, lr
 80095b4:	620b      	str	r3, [r1, #32]
 80095b6:	f8cc 2010 	str.w	r2, [ip, #16]
 80095ba:	f8dc 2010 	ldr.w	r2, [ip, #16]
 80095be:	f3c3 0312 	ubfx	r3, r3, #0, #19
 80095c2:	4313      	orrs	r3, r2
 80095c4:	e7c9      	b.n	800955a <USB_EPStartXfer+0x18a>
 80095c6:	bf00      	nop
 80095c8:	1ff80000 	.word	0x1ff80000
 80095cc:	e007ffff 	.word	0xe007ffff
 80095d0:	fff80000 	.word	0xfff80000

080095d4 <USB_ReadPacket>:
 80095d4:	4603      	mov	r3, r0
 80095d6:	b570      	push	{r4, r5, r6, lr}
 80095d8:	2000      	movs	r0, #0
 80095da:	0894      	lsrs	r4, r2, #2
 80095dc:	f503 5580 	add.w	r5, r3, #4096	@ 0x1000
 80095e0:	f002 0203 	and.w	r2, r2, #3
 80095e4:	42a0      	cmp	r0, r4
 80095e6:	d310      	bcc.n	800960a <USB_ReadPacket+0x36>
 80095e8:	eb01 0084 	add.w	r0, r1, r4, lsl #2
 80095ec:	b162      	cbz	r2, 8009608 <USB_ReadPacket+0x34>
 80095ee:	f503 5380 	add.w	r3, r3, #4096	@ 0x1000
 80095f2:	681c      	ldr	r4, [r3, #0]
 80095f4:	2300      	movs	r3, #0
 80095f6:	00d9      	lsls	r1, r3, #3
 80095f8:	fa24 f101 	lsr.w	r1, r4, r1
 80095fc:	54c1      	strb	r1, [r0, r3]
 80095fe:	3301      	adds	r3, #1
 8009600:	b299      	uxth	r1, r3
 8009602:	428a      	cmp	r2, r1
 8009604:	d1f7      	bne.n	80095f6 <USB_ReadPacket+0x22>
 8009606:	4410      	add	r0, r2
 8009608:	bd70      	pop	{r4, r5, r6, pc}
 800960a:	682e      	ldr	r6, [r5, #0]
 800960c:	f841 6020 	str.w	r6, [r1, r0, lsl #2]
 8009610:	3001      	adds	r0, #1
 8009612:	e7e7      	b.n	80095e4 <USB_ReadPacket+0x10>

08009614 <USB_EPSetStall>:
 8009614:	784a      	ldrb	r2, [r1, #1]
 8009616:	780b      	ldrb	r3, [r1, #0]
 8009618:	2a01      	cmp	r2, #1
 800961a:	eb00 1043 	add.w	r0, r0, r3, lsl #5
 800961e:	d112      	bne.n	8009646 <USB_EPSetStall+0x32>
 8009620:	f8d0 2900 	ldr.w	r2, [r0, #2304]	@ 0x900
 8009624:	2a00      	cmp	r2, #0
 8009626:	db06      	blt.n	8009636 <USB_EPSetStall+0x22>
 8009628:	b12b      	cbz	r3, 8009636 <USB_EPSetStall+0x22>
 800962a:	f8d0 3900 	ldr.w	r3, [r0, #2304]	@ 0x900
 800962e:	f023 4380 	bic.w	r3, r3, #1073741824	@ 0x40000000
 8009632:	f8c0 3900 	str.w	r3, [r0, #2304]	@ 0x900
 8009636:	f8d0 3900 	ldr.w	r3, [r0, #2304]	@ 0x900
 800963a:	f443 1300 	orr.w	r3, r3, #2097152	@ 0x200000
 800963e:	f8c0 3900 	str.w	r3, [r0, #2304]	@ 0x900
 8009642:	2000      	movs	r0, #0
 8009644:	4770      	bx	lr
 8009646:	f8d0 2b00 	ldr.w	r2, [r0, #2816]	@ 0xb00
 800964a:	2a00      	cmp	r2, #0
 800964c:	db06      	blt.n	800965c <USB_EPSetStall+0x48>
 800964e:	b12b      	cbz	r3, 800965c <USB_EPSetStall+0x48>
 8009650:	f8d0 3b00 	ldr.w	r3, [r0, #2816]	@ 0xb00
 8009654:	f023 4380 	bic.w	r3, r3, #1073741824	@ 0x40000000
 8009658:	f8c0 3b00 	str.w	r3, [r0, #2816]	@ 0xb00
 800965c:	f8d0 3b00 	ldr.w	r3, [r0, #2816]	@ 0xb00
 8009660:	f443 1300 	orr.w	r3, r3, #2097152	@ 0x200000
 8009664:	f8c0 3b00 	str.w	r3, [r0, #2816]	@ 0xb00
 8009668:	e7eb      	b.n	8009642 <USB_EPSetStall+0x2e>

0800966a <USB_EPClearStall>:
 800966a:	780b      	ldrb	r3, [r1, #0]
 800966c:	784a      	ldrb	r2, [r1, #1]
 800966e:	eb00 1043 	add.w	r0, r0, r3, lsl #5
 8009672:	790b      	ldrb	r3, [r1, #4]
 8009674:	2a01      	cmp	r2, #1
 8009676:	f1a3 0302 	sub.w	r3, r3, #2
 800967a:	b2db      	uxtb	r3, r3
 800967c:	d10f      	bne.n	800969e <USB_EPClearStall+0x34>
 800967e:	f8d0 2900 	ldr.w	r2, [r0, #2304]	@ 0x900
 8009682:	2b01      	cmp	r3, #1
 8009684:	f422 1200 	bic.w	r2, r2, #2097152	@ 0x200000
 8009688:	f8c0 2900 	str.w	r2, [r0, #2304]	@ 0x900
 800968c:	d805      	bhi.n	800969a <USB_EPClearStall+0x30>
 800968e:	f8d0 3900 	ldr.w	r3, [r0, #2304]	@ 0x900
 8009692:	f043 5380 	orr.w	r3, r3, #268435456	@ 0x10000000
 8009696:	f8c0 3900 	str.w	r3, [r0, #2304]	@ 0x900
 800969a:	2000      	movs	r0, #0
 800969c:	4770      	bx	lr
 800969e:	f8d0 2b00 	ldr.w	r2, [r0, #2816]	@ 0xb00
 80096a2:	f422 1200 	bic.w	r2, r2, #2097152	@ 0x200000
 80096a6:	2b01      	cmp	r3, #1
 80096a8:	f8c0 2b00 	str.w	r2, [r0, #2816]	@ 0xb00
 80096ac:	bf9e      	ittt	ls
 80096ae:	f8d0 3b00 	ldrls.w	r3, [r0, #2816]	@ 0xb00
 80096b2:	f043 5380 	orrls.w	r3, r3, #268435456	@ 0x10000000
 80096b6:	f8c0 3b00 	strls.w	r3, [r0, #2816]	@ 0xb00
 80096ba:	e7ee      	b.n	800969a <USB_EPClearStall+0x30>

080096bc <USB_SetDevAddress>:
 80096bc:	f8d0 3800 	ldr.w	r3, [r0, #2048]	@ 0x800
 80096c0:	f423 63fe 	bic.w	r3, r3, #2032	@ 0x7f0
 80096c4:	f8c0 3800 	str.w	r3, [r0, #2048]	@ 0x800
 80096c8:	f8d0 3800 	ldr.w	r3, [r0, #2048]	@ 0x800
 80096cc:	0109      	lsls	r1, r1, #4
 80096ce:	f401 61fe 	and.w	r1, r1, #2032	@ 0x7f0
 80096d2:	4319      	orrs	r1, r3
 80096d4:	f8c0 1800 	str.w	r1, [r0, #2048]	@ 0x800
 80096d8:	2000      	movs	r0, #0
 80096da:	4770      	bx	lr

080096dc <USB_DevConnect>:
 80096dc:	f8d0 3e00 	ldr.w	r3, [r0, #3584]	@ 0xe00
 80096e0:	f023 0303 	bic.w	r3, r3, #3
 80096e4:	f8c0 3e00 	str.w	r3, [r0, #3584]	@ 0xe00
 80096e8:	f8d0 3804 	ldr.w	r3, [r0, #2052]	@ 0x804
 80096ec:	f023 0302 	bic.w	r3, r3, #2
 80096f0:	f8c0 3804 	str.w	r3, [r0, #2052]	@ 0x804
 80096f4:	2000      	movs	r0, #0
 80096f6:	4770      	bx	lr

080096f8 <USB_DevDisconnect>:
 80096f8:	f8d0 3e00 	ldr.w	r3, [r0, #3584]	@ 0xe00
 80096fc:	f023 0303 	bic.w	r3, r3, #3
 8009700:	f8c0 3e00 	str.w	r3, [r0, #3584]	@ 0xe00
 8009704:	f8d0 3804 	ldr.w	r3, [r0, #2052]	@ 0x804
 8009708:	f043 0302 	orr.w	r3, r3, #2
 800970c:	f8c0 3804 	str.w	r3, [r0, #2052]	@ 0x804
 8009710:	2000      	movs	r0, #0
 8009712:	4770      	bx	lr

08009714 <USB_ReadInterrupts>:
 8009714:	6942      	ldr	r2, [r0, #20]
 8009716:	6980      	ldr	r0, [r0, #24]
 8009718:	4010      	ands	r0, r2
 800971a:	4770      	bx	lr

0800971c <USB_ReadDevAllOutEpInterrupt>:
 800971c:	f8d0 3818 	ldr.w	r3, [r0, #2072]	@ 0x818
 8009720:	f500 6000 	add.w	r0, r0, #2048	@ 0x800
 8009724:	69c0      	ldr	r0, [r0, #28]
 8009726:	4018      	ands	r0, r3
 8009728:	0c00      	lsrs	r0, r0, #16
 800972a:	4770      	bx	lr

0800972c <USB_ReadDevAllInEpInterrupt>:
 800972c:	f8d0 3818 	ldr.w	r3, [r0, #2072]	@ 0x818
 8009730:	f500 6000 	add.w	r0, r0, #2048	@ 0x800
 8009734:	69c0      	ldr	r0, [r0, #28]
 8009736:	4018      	ands	r0, r3
 8009738:	b280      	uxth	r0, r0
 800973a:	4770      	bx	lr

0800973c <USB_ReadDevOutEPInterrupt>:
 800973c:	eb00 1141 	add.w	r1, r0, r1, lsl #5
 8009740:	f500 6000 	add.w	r0, r0, #2048	@ 0x800
 8009744:	f8d1 2b08 	ldr.w	r2, [r1, #2824]	@ 0xb08
 8009748:	6940      	ldr	r0, [r0, #20]
 800974a:	4010      	ands	r0, r2
 800974c:	4770      	bx	lr

0800974e <USB_ReadDevInEPInterrupt>:
 800974e:	f8d0 2810 	ldr.w	r2, [r0, #2064]	@ 0x810
 8009752:	f8d0 3834 	ldr.w	r3, [r0, #2100]	@ 0x834
 8009756:	eb00 1041 	add.w	r0, r0, r1, lsl #5
 800975a:	f001 010f 	and.w	r1, r1, #15
 800975e:	40cb      	lsrs	r3, r1
 8009760:	f500 6010 	add.w	r0, r0, #2304	@ 0x900
 8009764:	01db      	lsls	r3, r3, #7
 8009766:	6880      	ldr	r0, [r0, #8]
 8009768:	b2db      	uxtb	r3, r3
 800976a:	4313      	orrs	r3, r2
 800976c:	4018      	ands	r0, r3
 800976e:	4770      	bx	lr

08009770 <USB_GetMode>:
 8009770:	6940      	ldr	r0, [r0, #20]
 8009772:	f000 0001 	and.w	r0, r0, #1
 8009776:	4770      	bx	lr

08009778 <USB_ActivateSetup>:
 8009778:	f8d0 3900 	ldr.w	r3, [r0, #2304]	@ 0x900
 800977c:	f36f 030a 	bfc	r3, #0, #11
 8009780:	f8c0 3900 	str.w	r3, [r0, #2304]	@ 0x900
 8009784:	f8d0 3804 	ldr.w	r3, [r0, #2052]	@ 0x804
 8009788:	f443 7380 	orr.w	r3, r3, #256	@ 0x100
 800978c:	f8c0 3804 	str.w	r3, [r0, #2052]	@ 0x804
 8009790:	2000      	movs	r0, #0
 8009792:	4770      	bx	lr

08009794 <USB_EP0_OutStart>:
 8009794:	b530      	push	{r4, r5, lr}
 8009796:	6c05      	ldr	r5, [r0, #64]	@ 0x40
 8009798:	4c10      	ldr	r4, [pc, #64]	@ (80097dc <USB_EP0_OutStart+0x48>)
 800979a:	42a5      	cmp	r5, r4
 800979c:	f500 6330 	add.w	r3, r0, #2816	@ 0xb00
 80097a0:	d903      	bls.n	80097aa <USB_EP0_OutStart+0x16>
 80097a2:	f8d0 4b00 	ldr.w	r4, [r0, #2816]	@ 0xb00
 80097a6:	2c00      	cmp	r4, #0
 80097a8:	db16      	blt.n	80097d8 <USB_EP0_OutStart+0x44>
 80097aa:	2400      	movs	r4, #0
 80097ac:	611c      	str	r4, [r3, #16]
 80097ae:	691c      	ldr	r4, [r3, #16]
 80097b0:	f444 2400 	orr.w	r4, r4, #524288	@ 0x80000
 80097b4:	611c      	str	r4, [r3, #16]
 80097b6:	691c      	ldr	r4, [r3, #16]
 80097b8:	f044 0418 	orr.w	r4, r4, #24
 80097bc:	611c      	str	r4, [r3, #16]
 80097be:	691c      	ldr	r4, [r3, #16]
 80097c0:	2901      	cmp	r1, #1
 80097c2:	f044 44c0 	orr.w	r4, r4, #1610612736	@ 0x60000000
 80097c6:	611c      	str	r4, [r3, #16]
 80097c8:	bf01      	itttt	eq
 80097ca:	615a      	streq	r2, [r3, #20]
 80097cc:	f8d0 3b00 	ldreq.w	r3, [r0, #2816]	@ 0xb00
 80097d0:	f043 2380 	orreq.w	r3, r3, #2147516416	@ 0x80008000
 80097d4:	f8c0 3b00 	streq.w	r3, [r0, #2816]	@ 0xb00
 80097d8:	2000      	movs	r0, #0
 80097da:	bd30      	pop	{r4, r5, pc}
 80097dc:	4f54300a 	.word	0x4f54300a

080097e0 <USBD_CDC_EP0_RxReady>:
 80097e0:	f8d0 32d4 	ldr.w	r3, [r0, #724]	@ 0x2d4
 80097e4:	eb00 0083 	add.w	r0, r0, r3, lsl #2
 80097e8:	b510      	push	{r4, lr}
 80097ea:	f8d0 42c0 	ldr.w	r4, [r0, #704]	@ 0x2c0
 80097ee:	b18c      	cbz	r4, 8009814 <USBD_CDC_EP0_RxReady+0x34>
 80097f0:	f8d0 32c4 	ldr.w	r3, [r0, #708]	@ 0x2c4
 80097f4:	b11b      	cbz	r3, 80097fe <USBD_CDC_EP0_RxReady+0x1e>
 80097f6:	f894 0200 	ldrb.w	r0, [r4, #512]	@ 0x200
 80097fa:	28ff      	cmp	r0, #255	@ 0xff
 80097fc:	d101      	bne.n	8009802 <USBD_CDC_EP0_RxReady+0x22>
 80097fe:	2000      	movs	r0, #0
 8009800:	bd10      	pop	{r4, pc}
 8009802:	689b      	ldr	r3, [r3, #8]
 8009804:	f894 2201 	ldrb.w	r2, [r4, #513]	@ 0x201
 8009808:	4621      	mov	r1, r4
 800980a:	4798      	blx	r3
 800980c:	23ff      	movs	r3, #255	@ 0xff
 800980e:	f884 3200 	strb.w	r3, [r4, #512]	@ 0x200
 8009812:	e7f4      	b.n	80097fe <USBD_CDC_EP0_RxReady+0x1e>
 8009814:	2003      	movs	r0, #3
 8009816:	e7f3      	b.n	8009800 <USBD_CDC_EP0_RxReady+0x20>

08009818 <USBD_CDC_GetDeviceQualifierDescriptor>:
 8009818:	230a      	movs	r3, #10
 800981a:	8003      	strh	r3, [r0, #0]
 800981c:	4800      	ldr	r0, [pc, #0]	@ (8009820 <USBD_CDC_GetDeviceQualifierDescriptor+0x8>)
 800981e:	4770      	bx	lr
 8009820:	200000e8 	.word	0x200000e8

08009824 <USBD_CDC_GetFSCfgDesc>:
 8009824:	b570      	push	{r4, r5, r6, lr}
 8009826:	2182      	movs	r1, #130	@ 0x82
 8009828:	4606      	mov	r6, r0
 800982a:	480f      	ldr	r0, [pc, #60]	@ (8009868 <USBD_CDC_GetFSCfgDesc+0x44>)
 800982c:	f000 fb85 	bl	8009f3a <USBD_GetEpDesc>
 8009830:	2101      	movs	r1, #1
 8009832:	4605      	mov	r5, r0
 8009834:	480c      	ldr	r0, [pc, #48]	@ (8009868 <USBD_CDC_GetFSCfgDesc+0x44>)
 8009836:	f000 fb80 	bl	8009f3a <USBD_GetEpDesc>
 800983a:	2181      	movs	r1, #129	@ 0x81
 800983c:	4604      	mov	r4, r0
 800983e:	480a      	ldr	r0, [pc, #40]	@ (8009868 <USBD_CDC_GetFSCfgDesc+0x44>)
 8009840:	f000 fb7b 	bl	8009f3a <USBD_GetEpDesc>
 8009844:	b10d      	cbz	r5, 800984a <USBD_CDC_GetFSCfgDesc+0x26>
 8009846:	2210      	movs	r2, #16
 8009848:	71aa      	strb	r2, [r5, #6]
 800984a:	b11c      	cbz	r4, 8009854 <USBD_CDC_GetFSCfgDesc+0x30>
 800984c:	2240      	movs	r2, #64	@ 0x40
 800984e:	7122      	strb	r2, [r4, #4]
 8009850:	2200      	movs	r2, #0
 8009852:	7162      	strb	r2, [r4, #5]
 8009854:	b118      	cbz	r0, 800985e <USBD_CDC_GetFSCfgDesc+0x3a>
 8009856:	2240      	movs	r2, #64	@ 0x40
 8009858:	7102      	strb	r2, [r0, #4]
 800985a:	2200      	movs	r2, #0
 800985c:	7142      	strb	r2, [r0, #5]
 800985e:	2343      	movs	r3, #67	@ 0x43
 8009860:	4801      	ldr	r0, [pc, #4]	@ (8009868 <USBD_CDC_GetFSCfgDesc+0x44>)
 8009862:	8033      	strh	r3, [r6, #0]
 8009864:	bd70      	pop	{r4, r5, r6, pc}
 8009866:	bf00      	nop
 8009868:	2000006c 	.word	0x2000006c

0800986c <USBD_CDC_GetOtherSpeedCfgDesc>:
 800986c:	f7ff bfda 	b.w	8009824 <USBD_CDC_GetFSCfgDesc>

08009870 <USBD_CDC_GetHSCfgDesc>:
 8009870:	b570      	push	{r4, r5, r6, lr}
 8009872:	2182      	movs	r1, #130	@ 0x82
 8009874:	4606      	mov	r6, r0
 8009876:	480f      	ldr	r0, [pc, #60]	@ (80098b4 <USBD_CDC_GetHSCfgDesc+0x44>)
 8009878:	f000 fb5f 	bl	8009f3a <USBD_GetEpDesc>
 800987c:	2101      	movs	r1, #1
 800987e:	4605      	mov	r5, r0
 8009880:	480c      	ldr	r0, [pc, #48]	@ (80098b4 <USBD_CDC_GetHSCfgDesc+0x44>)
 8009882:	f000 fb5a 	bl	8009f3a <USBD_GetEpDesc>
 8009886:	2181      	movs	r1, #129	@ 0x81
 8009888:	4604      	mov	r4, r0
 800988a:	480a      	ldr	r0, [pc, #40]	@ (80098b4 <USBD_CDC_GetHSCfgDesc+0x44>)
 800988c:	f000 fb55 	bl	8009f3a <USBD_GetEpDesc>
 8009890:	b10d      	cbz	r5, 8009896 <USBD_CDC_GetHSCfgDesc+0x26>
 8009892:	2210      	movs	r2, #16
 8009894:	71aa      	strb	r2, [r5, #6]
 8009896:	b11c      	cbz	r4, 80098a0 <USBD_CDC_GetHSCfgDesc+0x30>
 8009898:	2200      	movs	r2, #0
 800989a:	7122      	strb	r2, [r4, #4]
 800989c:	2202      	movs	r2, #2
 800989e:	7162      	strb	r2, [r4, #5]
 80098a0:	b118      	cbz	r0, 80098aa <USBD_CDC_GetHSCfgDesc+0x3a>
 80098a2:	2200      	movs	r2, #0
 80098a4:	7102      	strb	r2, [r0, #4]
 80098a6:	2202      	movs	r2, #2
 80098a8:	7142      	strb	r2, [r0, #5]
 80098aa:	2343      	movs	r3, #67	@ 0x43
 80098ac:	4801      	ldr	r0, [pc, #4]	@ (80098b4 <USBD_CDC_GetHSCfgDesc+0x44>)
 80098ae:	8033      	strh	r3, [r6, #0]
 80098b0:	bd70      	pop	{r4, r5, r6, pc}
 80098b2:	bf00      	nop
 80098b4:	2000006c 	.word	0x2000006c

080098b8 <USBD_CDC_DataOut>:
 80098b8:	b538      	push	{r3, r4, r5, lr}
 80098ba:	f8d0 32d4 	ldr.w	r3, [r0, #724]	@ 0x2d4
 80098be:	33b0      	adds	r3, #176	@ 0xb0
 80098c0:	4604      	mov	r4, r0
 80098c2:	f850 5023 	ldr.w	r5, [r0, r3, lsl #2]
 80098c6:	b18d      	cbz	r5, 80098ec <USBD_CDC_DataOut+0x34>
 80098c8:	f000 ffec 	bl	800a8a4 <USBD_LL_GetRxDataSize>
 80098cc:	f8d4 32d4 	ldr.w	r3, [r4, #724]	@ 0x2d4
 80098d0:	f8c5 020c 	str.w	r0, [r5, #524]	@ 0x20c
 80098d4:	eb04 0483 	add.w	r4, r4, r3, lsl #2
 80098d8:	f8d5 0204 	ldr.w	r0, [r5, #516]	@ 0x204
 80098dc:	f8d4 32c4 	ldr.w	r3, [r4, #708]	@ 0x2c4
 80098e0:	f505 7103 	add.w	r1, r5, #524	@ 0x20c
 80098e4:	68db      	ldr	r3, [r3, #12]
 80098e6:	4798      	blx	r3
 80098e8:	2000      	movs	r0, #0
 80098ea:	bd38      	pop	{r3, r4, r5, pc}
 80098ec:	2003      	movs	r0, #3
 80098ee:	e7fc      	b.n	80098ea <USBD_CDC_DataOut+0x32>

080098f0 <USBD_CDC_DataIn>:
 80098f0:	b5f8      	push	{r3, r4, r5, r6, r7, lr}
 80098f2:	f8d0 62d4 	ldr.w	r6, [r0, #724]	@ 0x2d4
 80098f6:	f8d0 72c8 	ldr.w	r7, [r0, #712]	@ 0x2c8
 80098fa:	eb00 0686 	add.w	r6, r0, r6, lsl #2
 80098fe:	460a      	mov	r2, r1
 8009900:	f8d6 52c0 	ldr.w	r5, [r6, #704]	@ 0x2c0
 8009904:	b325      	cbz	r5, 8009950 <USBD_CDC_DataIn+0x60>
 8009906:	f001 0c0f 	and.w	ip, r1, #15
 800990a:	2414      	movs	r4, #20
 800990c:	fb04 040c 	mla	r4, r4, ip, r0
 8009910:	6963      	ldr	r3, [r4, #20]
 8009912:	b17b      	cbz	r3, 8009934 <USBD_CDC_DataIn+0x44>
 8009914:	f04f 0e24 	mov.w	lr, #36	@ 0x24
 8009918:	fb0e 770c 	mla	r7, lr, ip, r7
 800991c:	69ff      	ldr	r7, [r7, #28]
 800991e:	fbb3 fcf7 	udiv	ip, r3, r7
 8009922:	fb07 331c 	mls	r3, r7, ip, r3
 8009926:	b92b      	cbnz	r3, 8009934 <USBD_CDC_DataIn+0x44>
 8009928:	6163      	str	r3, [r4, #20]
 800992a:	461a      	mov	r2, r3
 800992c:	f001 f802 	bl	800a934 <USBD_LL_Transmit>
 8009930:	2000      	movs	r0, #0
 8009932:	bdf8      	pop	{r3, r4, r5, r6, r7, pc}
 8009934:	2300      	movs	r3, #0
 8009936:	f8c5 3214 	str.w	r3, [r5, #532]	@ 0x214
 800993a:	f8d6 32c4 	ldr.w	r3, [r6, #708]	@ 0x2c4
 800993e:	691b      	ldr	r3, [r3, #16]
 8009940:	2b00      	cmp	r3, #0
 8009942:	d0f5      	beq.n	8009930 <USBD_CDC_DataIn+0x40>
 8009944:	f8d5 0208 	ldr.w	r0, [r5, #520]	@ 0x208
 8009948:	f505 7104 	add.w	r1, r5, #528	@ 0x210
 800994c:	4798      	blx	r3
 800994e:	e7ef      	b.n	8009930 <USBD_CDC_DataIn+0x40>
 8009950:	2003      	movs	r0, #3
 8009952:	e7ee      	b.n	8009932 <USBD_CDC_DataIn+0x42>

08009954 <USBD_CDC_Setup>:
 8009954:	f8d0 32d4 	ldr.w	r3, [r0, #724]	@ 0x2d4
 8009958:	b5f7      	push	{r0, r1, r2, r4, r5, r6, r7, lr}
 800995a:	eb00 0383 	add.w	r3, r0, r3, lsl #2
 800995e:	2200      	movs	r2, #0
 8009960:	f8d3 62c0 	ldr.w	r6, [r3, #704]	@ 0x2c0
 8009964:	f88d 2005 	strb.w	r2, [sp, #5]
 8009968:	4604      	mov	r4, r0
 800996a:	460d      	mov	r5, r1
 800996c:	f8ad 2006 	strh.w	r2, [sp, #6]
 8009970:	2e00      	cmp	r6, #0
 8009972:	d065      	beq.n	8009a40 <USBD_CDC_Setup+0xec>
 8009974:	f891 c000 	ldrb.w	ip, [r1]
 8009978:	f01c 0260 	ands.w	r2, ip, #96	@ 0x60
 800997c:	d029      	beq.n	80099d2 <USBD_CDC_Setup+0x7e>
 800997e:	2a20      	cmp	r2, #32
 8009980:	d15a      	bne.n	8009a38 <USBD_CDC_Setup+0xe4>
 8009982:	88ca      	ldrh	r2, [r1, #6]
 8009984:	784f      	ldrb	r7, [r1, #1]
 8009986:	b1f2      	cbz	r2, 80099c6 <USBD_CDC_Setup+0x72>
 8009988:	f01c 0f80 	tst.w	ip, #128	@ 0x80
 800998c:	d00e      	beq.n	80099ac <USBD_CDC_Setup+0x58>
 800998e:	f8d3 32c4 	ldr.w	r3, [r3, #708]	@ 0x2c4
 8009992:	4631      	mov	r1, r6
 8009994:	689b      	ldr	r3, [r3, #8]
 8009996:	4638      	mov	r0, r7
 8009998:	4798      	blx	r3
 800999a:	88ea      	ldrh	r2, [r5, #6]
 800999c:	2a07      	cmp	r2, #7
 800999e:	bf28      	it	cs
 80099a0:	2207      	movcs	r2, #7
 80099a2:	4631      	mov	r1, r6
 80099a4:	4620      	mov	r0, r4
 80099a6:	f000 fd4e 	bl	800a446 <USBD_CtlSendData>
 80099aa:	e009      	b.n	80099c0 <USBD_CDC_Setup+0x6c>
 80099ac:	2a40      	cmp	r2, #64	@ 0x40
 80099ae:	bf28      	it	cs
 80099b0:	2240      	movcs	r2, #64	@ 0x40
 80099b2:	f886 7200 	strb.w	r7, [r6, #512]	@ 0x200
 80099b6:	f886 2201 	strb.w	r2, [r6, #513]	@ 0x201
 80099ba:	4631      	mov	r1, r6
 80099bc:	f000 fd59 	bl	800a472 <USBD_CtlPrepareRx>
 80099c0:	2000      	movs	r0, #0
 80099c2:	b003      	add	sp, #12
 80099c4:	bdf0      	pop	{r4, r5, r6, r7, pc}
 80099c6:	f8d3 32c4 	ldr.w	r3, [r3, #708]	@ 0x2c4
 80099ca:	4638      	mov	r0, r7
 80099cc:	689b      	ldr	r3, [r3, #8]
 80099ce:	4798      	blx	r3
 80099d0:	e7f6      	b.n	80099c0 <USBD_CDC_Setup+0x6c>
 80099d2:	784b      	ldrb	r3, [r1, #1]
 80099d4:	2b0b      	cmp	r3, #11
 80099d6:	d82f      	bhi.n	8009a38 <USBD_CDC_Setup+0xe4>
 80099d8:	a201      	add	r2, pc, #4	@ (adr r2, 80099e0 <USBD_CDC_Setup+0x8c>)
 80099da:	f852 f023 	ldr.w	pc, [r2, r3, lsl #2]
 80099de:	bf00      	nop
 80099e0:	08009a11 	.word	0x08009a11
 80099e4:	080099c1 	.word	0x080099c1
 80099e8:	08009a39 	.word	0x08009a39
 80099ec:	08009a39 	.word	0x08009a39
 80099f0:	08009a39 	.word	0x08009a39
 80099f4:	08009a39 	.word	0x08009a39
 80099f8:	08009a39 	.word	0x08009a39
 80099fc:	08009a39 	.word	0x08009a39
 8009a00:	08009a39 	.word	0x08009a39
 8009a04:	08009a39 	.word	0x08009a39
 8009a08:	08009a21 	.word	0x08009a21
 8009a0c:	08009a31 	.word	0x08009a31
 8009a10:	f890 329c 	ldrb.w	r3, [r0, #668]	@ 0x29c
 8009a14:	2b03      	cmp	r3, #3
 8009a16:	d10f      	bne.n	8009a38 <USBD_CDC_Setup+0xe4>
 8009a18:	2202      	movs	r2, #2
 8009a1a:	f10d 0106 	add.w	r1, sp, #6
 8009a1e:	e7c1      	b.n	80099a4 <USBD_CDC_Setup+0x50>
 8009a20:	f890 329c 	ldrb.w	r3, [r0, #668]	@ 0x29c
 8009a24:	2b03      	cmp	r3, #3
 8009a26:	d107      	bne.n	8009a38 <USBD_CDC_Setup+0xe4>
 8009a28:	2201      	movs	r2, #1
 8009a2a:	f10d 0105 	add.w	r1, sp, #5
 8009a2e:	e7b9      	b.n	80099a4 <USBD_CDC_Setup+0x50>
 8009a30:	f890 329c 	ldrb.w	r3, [r0, #668]	@ 0x29c
 8009a34:	2b03      	cmp	r3, #3
 8009a36:	d0c3      	beq.n	80099c0 <USBD_CDC_Setup+0x6c>
 8009a38:	4629      	mov	r1, r5
 8009a3a:	4620      	mov	r0, r4
 8009a3c:	f000 fcdc 	bl	800a3f8 <USBD_CtlError>
 8009a40:	2003      	movs	r0, #3
 8009a42:	e7be      	b.n	80099c2 <USBD_CDC_Setup+0x6e>

08009a44 <USBD_CDC_DeInit>:
 8009a44:	b538      	push	{r3, r4, r5, lr}
 8009a46:	4604      	mov	r4, r0
 8009a48:	2500      	movs	r5, #0
 8009a4a:	2181      	movs	r1, #129	@ 0x81
 8009a4c:	f000 ff4e 	bl	800a8ec <USBD_LL_CloseEP>
 8009a50:	2101      	movs	r1, #1
 8009a52:	f884 5037 	strb.w	r5, [r4, #55]	@ 0x37
 8009a56:	4620      	mov	r0, r4
 8009a58:	f000 ff48 	bl	800a8ec <USBD_LL_CloseEP>
 8009a5c:	f884 5177 	strb.w	r5, [r4, #375]	@ 0x177
 8009a60:	2182      	movs	r1, #130	@ 0x82
 8009a62:	4620      	mov	r0, r4
 8009a64:	f000 ff42 	bl	800a8ec <USBD_LL_CloseEP>
 8009a68:	f8d4 32d4 	ldr.w	r3, [r4, #724]	@ 0x2d4
 8009a6c:	f884 504b 	strb.w	r5, [r4, #75]	@ 0x4b
 8009a70:	eb04 0383 	add.w	r3, r4, r3, lsl #2
 8009a74:	6465      	str	r5, [r4, #68]	@ 0x44
 8009a76:	f8d3 22c0 	ldr.w	r2, [r3, #704]	@ 0x2c0
 8009a7a:	b18a      	cbz	r2, 8009aa0 <USBD_CDC_DeInit+0x5c>
 8009a7c:	f8d3 32c4 	ldr.w	r3, [r3, #708]	@ 0x2c4
 8009a80:	685b      	ldr	r3, [r3, #4]
 8009a82:	4798      	blx	r3
 8009a84:	f8d4 32d4 	ldr.w	r3, [r4, #724]	@ 0x2d4
 8009a88:	33b0      	adds	r3, #176	@ 0xb0
 8009a8a:	f854 0023 	ldr.w	r0, [r4, r3, lsl #2]
 8009a8e:	f000 ff11 	bl	800a8b4 <USBD_static_free>
 8009a92:	f8d4 32d4 	ldr.w	r3, [r4, #724]	@ 0x2d4
 8009a96:	33b0      	adds	r3, #176	@ 0xb0
 8009a98:	f844 5023 	str.w	r5, [r4, r3, lsl #2]
 8009a9c:	f8c4 52bc 	str.w	r5, [r4, #700]	@ 0x2bc
 8009aa0:	2000      	movs	r0, #0
 8009aa2:	bd38      	pop	{r3, r4, r5, pc}

08009aa4 <USBD_CDC_Init>:
 8009aa4:	b5f8      	push	{r3, r4, r5, r6, r7, lr}
 8009aa6:	4604      	mov	r4, r0
 8009aa8:	f44f 7007 	mov.w	r0, #540	@ 0x21c
 8009aac:	f000 fefe 	bl	800a8ac <USBD_static_malloc>
 8009ab0:	4605      	mov	r5, r0
 8009ab2:	b930      	cbnz	r0, 8009ac2 <USBD_CDC_Init+0x1e>
 8009ab4:	f8d4 32d4 	ldr.w	r3, [r4, #724]	@ 0x2d4
 8009ab8:	33b0      	adds	r3, #176	@ 0xb0
 8009aba:	f844 0023 	str.w	r0, [r4, r3, lsl #2]
 8009abe:	2002      	movs	r0, #2
 8009ac0:	e046      	b.n	8009b50 <USBD_CDC_Init+0xac>
 8009ac2:	f44f 7207 	mov.w	r2, #540	@ 0x21c
 8009ac6:	2100      	movs	r1, #0
 8009ac8:	f000 fffa 	bl	800aac0 <memset>
 8009acc:	f8d4 32d4 	ldr.w	r3, [r4, #724]	@ 0x2d4
 8009ad0:	33b0      	adds	r3, #176	@ 0xb0
 8009ad2:	f844 5023 	str.w	r5, [r4, r3, lsl #2]
 8009ad6:	7c23      	ldrb	r3, [r4, #16]
 8009ad8:	f8c4 52bc 	str.w	r5, [r4, #700]	@ 0x2bc
 8009adc:	bbcb      	cbnz	r3, 8009b52 <USBD_CDC_Init+0xae>
 8009ade:	f44f 7300 	mov.w	r3, #512	@ 0x200
 8009ae2:	2181      	movs	r1, #129	@ 0x81
 8009ae4:	2202      	movs	r2, #2
 8009ae6:	4620      	mov	r0, r4
 8009ae8:	f000 fef4 	bl	800a8d4 <USBD_LL_OpenEP>
 8009aec:	2101      	movs	r1, #1
 8009aee:	f884 1037 	strb.w	r1, [r4, #55]	@ 0x37
 8009af2:	f44f 7300 	mov.w	r3, #512	@ 0x200
 8009af6:	2202      	movs	r2, #2
 8009af8:	4620      	mov	r0, r4
 8009afa:	f000 feeb 	bl	800a8d4 <USBD_LL_OpenEP>
 8009afe:	2601      	movs	r6, #1
 8009b00:	2310      	movs	r3, #16
 8009b02:	2203      	movs	r2, #3
 8009b04:	6463      	str	r3, [r4, #68]	@ 0x44
 8009b06:	2182      	movs	r1, #130	@ 0x82
 8009b08:	2308      	movs	r3, #8
 8009b0a:	f884 6177 	strb.w	r6, [r4, #375]	@ 0x177
 8009b0e:	4620      	mov	r0, r4
 8009b10:	f000 fee0 	bl	800a8d4 <USBD_LL_OpenEP>
 8009b14:	f8d4 32d4 	ldr.w	r3, [r4, #724]	@ 0x2d4
 8009b18:	f884 604b 	strb.w	r6, [r4, #75]	@ 0x4b
 8009b1c:	eb04 0383 	add.w	r3, r4, r3, lsl #2
 8009b20:	2700      	movs	r7, #0
 8009b22:	f8d3 32c4 	ldr.w	r3, [r3, #708]	@ 0x2c4
 8009b26:	f8c5 7204 	str.w	r7, [r5, #516]	@ 0x204
 8009b2a:	681b      	ldr	r3, [r3, #0]
 8009b2c:	4798      	blx	r3
 8009b2e:	f8d5 2204 	ldr.w	r2, [r5, #516]	@ 0x204
 8009b32:	f8c5 7214 	str.w	r7, [r5, #532]	@ 0x214
 8009b36:	f8c5 7218 	str.w	r7, [r5, #536]	@ 0x218
 8009b3a:	2a00      	cmp	r2, #0
 8009b3c:	d0bf      	beq.n	8009abe <USBD_CDC_Init+0x1a>
 8009b3e:	7c23      	ldrb	r3, [r4, #16]
 8009b40:	b993      	cbnz	r3, 8009b68 <USBD_CDC_Init+0xc4>
 8009b42:	f44f 7300 	mov.w	r3, #512	@ 0x200
 8009b46:	4631      	mov	r1, r6
 8009b48:	4620      	mov	r0, r4
 8009b4a:	f000 fefc 	bl	800a946 <USBD_LL_PrepareReceive>
 8009b4e:	2000      	movs	r0, #0
 8009b50:	bdf8      	pop	{r3, r4, r5, r6, r7, pc}
 8009b52:	2340      	movs	r3, #64	@ 0x40
 8009b54:	2181      	movs	r1, #129	@ 0x81
 8009b56:	2202      	movs	r2, #2
 8009b58:	4620      	mov	r0, r4
 8009b5a:	f000 febb 	bl	800a8d4 <USBD_LL_OpenEP>
 8009b5e:	2101      	movs	r1, #1
 8009b60:	f884 1037 	strb.w	r1, [r4, #55]	@ 0x37
 8009b64:	2340      	movs	r3, #64	@ 0x40
 8009b66:	e7c6      	b.n	8009af6 <USBD_CDC_Init+0x52>
 8009b68:	2340      	movs	r3, #64	@ 0x40
 8009b6a:	e7ec      	b.n	8009b46 <USBD_CDC_Init+0xa2>

08009b6c <USBD_CDC_RegisterInterface>:
 8009b6c:	b139      	cbz	r1, 8009b7e <USBD_CDC_RegisterInterface+0x12>
 8009b6e:	f8d0 32d4 	ldr.w	r3, [r0, #724]	@ 0x2d4
 8009b72:	eb00 0083 	add.w	r0, r0, r3, lsl #2
 8009b76:	f8c0 12c4 	str.w	r1, [r0, #708]	@ 0x2c4
 8009b7a:	2000      	movs	r0, #0
 8009b7c:	4770      	bx	lr
 8009b7e:	2003      	movs	r0, #3
 8009b80:	4770      	bx	lr

08009b82 <USBD_CDC_SetTxBuffer>:
 8009b82:	f8d0 32d4 	ldr.w	r3, [r0, #724]	@ 0x2d4
 8009b86:	33b0      	adds	r3, #176	@ 0xb0
 8009b88:	f850 3023 	ldr.w	r3, [r0, r3, lsl #2]
 8009b8c:	b12b      	cbz	r3, 8009b9a <USBD_CDC_SetTxBuffer+0x18>
 8009b8e:	f8c3 1208 	str.w	r1, [r3, #520]	@ 0x208
 8009b92:	f8c3 2210 	str.w	r2, [r3, #528]	@ 0x210
 8009b96:	2000      	movs	r0, #0
 8009b98:	4770      	bx	lr
 8009b9a:	2003      	movs	r0, #3
 8009b9c:	4770      	bx	lr

08009b9e <USBD_CDC_SetRxBuffer>:
 8009b9e:	f8d0 32d4 	ldr.w	r3, [r0, #724]	@ 0x2d4
 8009ba2:	33b0      	adds	r3, #176	@ 0xb0
 8009ba4:	f850 3023 	ldr.w	r3, [r0, r3, lsl #2]
 8009ba8:	b11b      	cbz	r3, 8009bb2 <USBD_CDC_SetRxBuffer+0x14>
 8009baa:	f8c3 1204 	str.w	r1, [r3, #516]	@ 0x204
 8009bae:	2000      	movs	r0, #0
 8009bb0:	4770      	bx	lr
 8009bb2:	2003      	movs	r0, #3
 8009bb4:	4770      	bx	lr

08009bb6 <USBD_CDC_TransmitPacket>:
 8009bb6:	f8d0 32d4 	ldr.w	r3, [r0, #724]	@ 0x2d4
 8009bba:	33b0      	adds	r3, #176	@ 0xb0
 8009bbc:	b510      	push	{r4, lr}
 8009bbe:	f850 2023 	ldr.w	r2, [r0, r3, lsl #2]
 8009bc2:	b17a      	cbz	r2, 8009be4 <USBD_CDC_TransmitPacket+0x2e>
 8009bc4:	f8d2 4214 	ldr.w	r4, [r2, #532]	@ 0x214
 8009bc8:	2301      	movs	r3, #1
 8009bca:	b96c      	cbnz	r4, 8009be8 <USBD_CDC_TransmitPacket+0x32>
 8009bcc:	f8c2 3214 	str.w	r3, [r2, #532]	@ 0x214
 8009bd0:	f8d2 3210 	ldr.w	r3, [r2, #528]	@ 0x210
 8009bd4:	6283      	str	r3, [r0, #40]	@ 0x28
 8009bd6:	f8d2 2208 	ldr.w	r2, [r2, #520]	@ 0x208
 8009bda:	2181      	movs	r1, #129	@ 0x81
 8009bdc:	f000 feaa 	bl	800a934 <USBD_LL_Transmit>
 8009be0:	4620      	mov	r0, r4
 8009be2:	bd10      	pop	{r4, pc}
 8009be4:	2003      	movs	r0, #3
 8009be6:	e7fc      	b.n	8009be2 <USBD_CDC_TransmitPacket+0x2c>
 8009be8:	4618      	mov	r0, r3
 8009bea:	e7fa      	b.n	8009be2 <USBD_CDC_TransmitPacket+0x2c>

08009bec <USBD_CDC_ReceivePacket>:
 8009bec:	f8d0 22d4 	ldr.w	r2, [r0, #724]	@ 0x2d4
 8009bf0:	32b0      	adds	r2, #176	@ 0xb0
 8009bf2:	b508      	push	{r3, lr}
 8009bf4:	f850 2022 	ldr.w	r2, [r0, r2, lsl #2]
 8009bf8:	b162      	cbz	r2, 8009c14 <USBD_CDC_ReceivePacket+0x28>
 8009bfa:	7c03      	ldrb	r3, [r0, #16]
 8009bfc:	f8d2 2204 	ldr.w	r2, [r2, #516]	@ 0x204
 8009c00:	b933      	cbnz	r3, 8009c10 <USBD_CDC_ReceivePacket+0x24>
 8009c02:	f44f 7300 	mov.w	r3, #512	@ 0x200
 8009c06:	2101      	movs	r1, #1
 8009c08:	f000 fe9d 	bl	800a946 <USBD_LL_PrepareReceive>
 8009c0c:	2000      	movs	r0, #0
 8009c0e:	bd08      	pop	{r3, pc}
 8009c10:	2340      	movs	r3, #64	@ 0x40
 8009c12:	e7f8      	b.n	8009c06 <USBD_CDC_ReceivePacket+0x1a>
 8009c14:	2003      	movs	r0, #3
 8009c16:	e7fa      	b.n	8009c0e <USBD_CDC_ReceivePacket+0x22>

08009c18 <USBD_Init>:
 8009c18:	b178      	cbz	r0, 8009c3a <USBD_Init+0x22>
 8009c1a:	2300      	movs	r3, #0
 8009c1c:	f8c0 32b8 	str.w	r3, [r0, #696]	@ 0x2b8
 8009c20:	f8c0 32c4 	str.w	r3, [r0, #708]	@ 0x2c4
 8009c24:	f8c0 32d0 	str.w	r3, [r0, #720]	@ 0x2d0
 8009c28:	b109      	cbz	r1, 8009c2e <USBD_Init+0x16>
 8009c2a:	f8c0 12b4 	str.w	r1, [r0, #692]	@ 0x2b4
 8009c2e:	2301      	movs	r3, #1
 8009c30:	f880 329c 	strb.w	r3, [r0, #668]	@ 0x29c
 8009c34:	7002      	strb	r2, [r0, #0]
 8009c36:	f000 bdf5 	b.w	800a824 <USBD_LL_Init>
 8009c3a:	2003      	movs	r0, #3
 8009c3c:	4770      	bx	lr

08009c3e <USBD_RegisterClass>:
 8009c3e:	b513      	push	{r0, r1, r4, lr}
 8009c40:	2300      	movs	r3, #0
 8009c42:	4604      	mov	r4, r0
 8009c44:	f8ad 3006 	strh.w	r3, [sp, #6]
 8009c48:	b181      	cbz	r1, 8009c6c <USBD_RegisterClass+0x2e>
 8009c4a:	6acb      	ldr	r3, [r1, #44]	@ 0x2c
 8009c4c:	f8c0 12b8 	str.w	r1, [r0, #696]	@ 0x2b8
 8009c50:	b123      	cbz	r3, 8009c5c <USBD_RegisterClass+0x1e>
 8009c52:	f10d 0006 	add.w	r0, sp, #6
 8009c56:	4798      	blx	r3
 8009c58:	f8c4 02d0 	str.w	r0, [r4, #720]	@ 0x2d0
 8009c5c:	f8d4 32d8 	ldr.w	r3, [r4, #728]	@ 0x2d8
 8009c60:	3301      	adds	r3, #1
 8009c62:	f8c4 32d8 	str.w	r3, [r4, #728]	@ 0x2d8
 8009c66:	2000      	movs	r0, #0
 8009c68:	b002      	add	sp, #8
 8009c6a:	bd10      	pop	{r4, pc}
 8009c6c:	2003      	movs	r0, #3
 8009c6e:	e7fb      	b.n	8009c68 <USBD_RegisterClass+0x2a>

08009c70 <USBD_Start>:
 8009c70:	f000 be27 	b.w	800a8c2 <USBD_LL_Start>

08009c74 <USBD_SetClassConfig>:
 8009c74:	f8d0 32b8 	ldr.w	r3, [r0, #696]	@ 0x2b8
 8009c78:	b10b      	cbz	r3, 8009c7e <USBD_SetClassConfig+0xa>
 8009c7a:	681b      	ldr	r3, [r3, #0]
 8009c7c:	4718      	bx	r3
 8009c7e:	4618      	mov	r0, r3
 8009c80:	4770      	bx	lr

08009c82 <USBD_ClrClassConfig>:
 8009c82:	b508      	push	{r3, lr}
 8009c84:	f8d0 32b8 	ldr.w	r3, [r0, #696]	@ 0x2b8
 8009c88:	685b      	ldr	r3, [r3, #4]
 8009c8a:	4798      	blx	r3
 8009c8c:	2800      	cmp	r0, #0
 8009c8e:	bf18      	it	ne
 8009c90:	2003      	movne	r0, #3
 8009c92:	bd08      	pop	{r3, pc}

08009c94 <USBD_LL_SetupStage>:
 8009c94:	b538      	push	{r3, r4, r5, lr}
 8009c96:	4604      	mov	r4, r0
 8009c98:	f200 25aa 	addw	r5, r0, #682	@ 0x2aa
 8009c9c:	4628      	mov	r0, r5
 8009c9e:	f000 fba0 	bl	800a3e2 <USBD_ParseSetupRequest>
 8009ca2:	2301      	movs	r3, #1
 8009ca4:	f894 12aa 	ldrb.w	r1, [r4, #682]	@ 0x2aa
 8009ca8:	f8c4 3294 	str.w	r3, [r4, #660]	@ 0x294
 8009cac:	f8b4 32b0 	ldrh.w	r3, [r4, #688]	@ 0x2b0
 8009cb0:	f8c4 3298 	str.w	r3, [r4, #664]	@ 0x298
 8009cb4:	f001 031f 	and.w	r3, r1, #31
 8009cb8:	2b01      	cmp	r3, #1
 8009cba:	d008      	beq.n	8009cce <USBD_LL_SetupStage+0x3a>
 8009cbc:	2b02      	cmp	r3, #2
 8009cbe:	d00c      	beq.n	8009cda <USBD_LL_SetupStage+0x46>
 8009cc0:	b98b      	cbnz	r3, 8009ce6 <USBD_LL_SetupStage+0x52>
 8009cc2:	4629      	mov	r1, r5
 8009cc4:	4620      	mov	r0, r4
 8009cc6:	e8bd 4038 	ldmia.w	sp!, {r3, r4, r5, lr}
 8009cca:	f000 b953 	b.w	8009f74 <USBD_StdDevReq>
 8009cce:	4629      	mov	r1, r5
 8009cd0:	4620      	mov	r0, r4
 8009cd2:	e8bd 4038 	ldmia.w	sp!, {r3, r4, r5, lr}
 8009cd6:	f000 bab1 	b.w	800a23c <USBD_StdItfReq>
 8009cda:	4629      	mov	r1, r5
 8009cdc:	4620      	mov	r0, r4
 8009cde:	e8bd 4038 	ldmia.w	sp!, {r3, r4, r5, lr}
 8009ce2:	f000 bada 	b.w	800a29a <USBD_StdEPReq>
 8009ce6:	4620      	mov	r0, r4
 8009ce8:	f001 0180 	and.w	r1, r1, #128	@ 0x80
 8009cec:	e8bd 4038 	ldmia.w	sp!, {r3, r4, r5, lr}
 8009cf0:	f000 be05 	b.w	800a8fe <USBD_LL_StallEP>

08009cf4 <USBD_LL_DataOutStage>:
 8009cf4:	b570      	push	{r4, r5, r6, lr}
 8009cf6:	4604      	mov	r4, r0
 8009cf8:	bb39      	cbnz	r1, 8009d4a <USBD_LL_DataOutStage+0x56>
 8009cfa:	f8d0 3294 	ldr.w	r3, [r0, #660]	@ 0x294
 8009cfe:	2b03      	cmp	r3, #3
 8009d00:	d112      	bne.n	8009d28 <USBD_LL_DataOutStage+0x34>
 8009d02:	f8d0 3158 	ldr.w	r3, [r0, #344]	@ 0x158
 8009d06:	f8b0 2160 	ldrh.w	r2, [r0, #352]	@ 0x160
 8009d0a:	4293      	cmp	r3, r2
 8009d0c:	d90e      	bls.n	8009d2c <USBD_LL_DataOutStage+0x38>
 8009d0e:	f8d0 1164 	ldr.w	r1, [r0, #356]	@ 0x164
 8009d12:	1a9b      	subs	r3, r3, r2
 8009d14:	4411      	add	r1, r2
 8009d16:	429a      	cmp	r2, r3
 8009d18:	f8c0 3158 	str.w	r3, [r0, #344]	@ 0x158
 8009d1c:	f8c0 1164 	str.w	r1, [r0, #356]	@ 0x164
 8009d20:	bf38      	it	cc
 8009d22:	461a      	movcc	r2, r3
 8009d24:	f000 fbb6 	bl	800a494 <USBD_CtlContinueRx>
 8009d28:	2000      	movs	r0, #0
 8009d2a:	bd70      	pop	{r4, r5, r6, pc}
 8009d2c:	f890 329c 	ldrb.w	r3, [r0, #668]	@ 0x29c
 8009d30:	2b03      	cmp	r3, #3
 8009d32:	d106      	bne.n	8009d42 <USBD_LL_DataOutStage+0x4e>
 8009d34:	f8d0 32b8 	ldr.w	r3, [r0, #696]	@ 0x2b8
 8009d38:	691b      	ldr	r3, [r3, #16]
 8009d3a:	b113      	cbz	r3, 8009d42 <USBD_LL_DataOutStage+0x4e>
 8009d3c:	f8c0 12d4 	str.w	r1, [r0, #724]	@ 0x2d4
 8009d40:	4798      	blx	r3
 8009d42:	4620      	mov	r0, r4
 8009d44:	f000 fbae 	bl	800a4a4 <USBD_CtlSendStatus>
 8009d48:	e7ee      	b.n	8009d28 <USBD_LL_DataOutStage+0x34>
 8009d4a:	f890 329c 	ldrb.w	r3, [r0, #668]	@ 0x29c
 8009d4e:	2b03      	cmp	r3, #3
 8009d50:	d1ea      	bne.n	8009d28 <USBD_LL_DataOutStage+0x34>
 8009d52:	f8d0 32b8 	ldr.w	r3, [r0, #696]	@ 0x2b8
 8009d56:	699b      	ldr	r3, [r3, #24]
 8009d58:	2b00      	cmp	r3, #0
 8009d5a:	d0e5      	beq.n	8009d28 <USBD_LL_DataOutStage+0x34>
 8009d5c:	2200      	movs	r2, #0
 8009d5e:	e8bd 4070 	ldmia.w	sp!, {r4, r5, r6, lr}
 8009d62:	f8c0 22d4 	str.w	r2, [r0, #724]	@ 0x2d4
 8009d66:	4718      	bx	r3

08009d68 <USBD_LL_DataInStage>:
 8009d68:	b570      	push	{r4, r5, r6, lr}
 8009d6a:	4604      	mov	r4, r0
 8009d6c:	460d      	mov	r5, r1
 8009d6e:	2900      	cmp	r1, #0
 8009d70:	d13f      	bne.n	8009df2 <USBD_LL_DataInStage+0x8a>
 8009d72:	f8d0 3294 	ldr.w	r3, [r0, #660]	@ 0x294
 8009d76:	2b02      	cmp	r3, #2
 8009d78:	d110      	bne.n	8009d9c <USBD_LL_DataInStage+0x34>
 8009d7a:	6982      	ldr	r2, [r0, #24]
 8009d7c:	8c03      	ldrh	r3, [r0, #32]
 8009d7e:	429a      	cmp	r2, r3
 8009d80:	d914      	bls.n	8009dac <USBD_LL_DataInStage+0x44>
 8009d82:	6a41      	ldr	r1, [r0, #36]	@ 0x24
 8009d84:	1ad2      	subs	r2, r2, r3
 8009d86:	4419      	add	r1, r3
 8009d88:	6182      	str	r2, [r0, #24]
 8009d8a:	6241      	str	r1, [r0, #36]	@ 0x24
 8009d8c:	f000 fb69 	bl	800a462 <USBD_CtlContinueSendData>
 8009d90:	462b      	mov	r3, r5
 8009d92:	462a      	mov	r2, r5
 8009d94:	4629      	mov	r1, r5
 8009d96:	4620      	mov	r0, r4
 8009d98:	f000 fdd5 	bl	800a946 <USBD_LL_PrepareReceive>
 8009d9c:	f894 32a0 	ldrb.w	r3, [r4, #672]	@ 0x2a0
 8009da0:	b113      	cbz	r3, 8009da8 <USBD_LL_DataInStage+0x40>
 8009da2:	2300      	movs	r3, #0
 8009da4:	f884 32a0 	strb.w	r3, [r4, #672]	@ 0x2a0
 8009da8:	2000      	movs	r0, #0
 8009daa:	bd70      	pop	{r4, r5, r6, pc}
 8009dac:	d10c      	bne.n	8009dc8 <USBD_LL_DataInStage+0x60>
 8009dae:	6943      	ldr	r3, [r0, #20]
 8009db0:	429a      	cmp	r2, r3
 8009db2:	d809      	bhi.n	8009dc8 <USBD_LL_DataInStage+0x60>
 8009db4:	f8d0 2298 	ldr.w	r2, [r0, #664]	@ 0x298
 8009db8:	4293      	cmp	r3, r2
 8009dba:	d205      	bcs.n	8009dc8 <USBD_LL_DataInStage+0x60>
 8009dbc:	460a      	mov	r2, r1
 8009dbe:	f000 fb50 	bl	800a462 <USBD_CtlContinueSendData>
 8009dc2:	f8c4 5298 	str.w	r5, [r4, #664]	@ 0x298
 8009dc6:	e7e3      	b.n	8009d90 <USBD_LL_DataInStage+0x28>
 8009dc8:	f894 329c 	ldrb.w	r3, [r4, #668]	@ 0x29c
 8009dcc:	2b03      	cmp	r3, #3
 8009dce:	d108      	bne.n	8009de2 <USBD_LL_DataInStage+0x7a>
 8009dd0:	f8d4 32b8 	ldr.w	r3, [r4, #696]	@ 0x2b8
 8009dd4:	68db      	ldr	r3, [r3, #12]
 8009dd6:	b123      	cbz	r3, 8009de2 <USBD_LL_DataInStage+0x7a>
 8009dd8:	2200      	movs	r2, #0
 8009dda:	f8c4 22d4 	str.w	r2, [r4, #724]	@ 0x2d4
 8009dde:	4620      	mov	r0, r4
 8009de0:	4798      	blx	r3
 8009de2:	2180      	movs	r1, #128	@ 0x80
 8009de4:	4620      	mov	r0, r4
 8009de6:	f000 fd8a 	bl	800a8fe <USBD_LL_StallEP>
 8009dea:	4620      	mov	r0, r4
 8009dec:	f000 fb65 	bl	800a4ba <USBD_CtlReceiveStatus>
 8009df0:	e7d4      	b.n	8009d9c <USBD_LL_DataInStage+0x34>
 8009df2:	f890 329c 	ldrb.w	r3, [r0, #668]	@ 0x29c
 8009df6:	2b03      	cmp	r3, #3
 8009df8:	d1d6      	bne.n	8009da8 <USBD_LL_DataInStage+0x40>
 8009dfa:	f8d0 32b8 	ldr.w	r3, [r0, #696]	@ 0x2b8
 8009dfe:	695b      	ldr	r3, [r3, #20]
 8009e00:	2b00      	cmp	r3, #0
 8009e02:	d0d1      	beq.n	8009da8 <USBD_LL_DataInStage+0x40>
 8009e04:	2200      	movs	r2, #0
 8009e06:	e8bd 4070 	ldmia.w	sp!, {r4, r5, r6, lr}
 8009e0a:	f8c0 22d4 	str.w	r2, [r0, #724]	@ 0x2d4
 8009e0e:	4718      	bx	r3

08009e10 <USBD_LL_Reset>:
 8009e10:	b5f8      	push	{r3, r4, r5, r6, r7, lr}
 8009e12:	2301      	movs	r3, #1
 8009e14:	f880 329c 	strb.w	r3, [r0, #668]	@ 0x29c
 8009e18:	f8d0 32b8 	ldr.w	r3, [r0, #696]	@ 0x2b8
 8009e1c:	2100      	movs	r1, #0
 8009e1e:	4604      	mov	r4, r0
 8009e20:	f8c0 1294 	str.w	r1, [r0, #660]	@ 0x294
 8009e24:	6041      	str	r1, [r0, #4]
 8009e26:	f8c0 12a4 	str.w	r1, [r0, #676]	@ 0x2a4
 8009e2a:	f880 12a0 	strb.w	r1, [r0, #672]	@ 0x2a0
 8009e2e:	b9bb      	cbnz	r3, 8009e60 <USBD_LL_Reset+0x50>
 8009e30:	2600      	movs	r6, #0
 8009e32:	2200      	movs	r2, #0
 8009e34:	2540      	movs	r5, #64	@ 0x40
 8009e36:	4611      	mov	r1, r2
 8009e38:	2701      	movs	r7, #1
 8009e3a:	2340      	movs	r3, #64	@ 0x40
 8009e3c:	4620      	mov	r0, r4
 8009e3e:	f000 fd49 	bl	800a8d4 <USBD_LL_OpenEP>
 8009e42:	f884 7163 	strb.w	r7, [r4, #355]	@ 0x163
 8009e46:	f8a4 5160 	strh.w	r5, [r4, #352]	@ 0x160
 8009e4a:	462b      	mov	r3, r5
 8009e4c:	2200      	movs	r2, #0
 8009e4e:	2180      	movs	r1, #128	@ 0x80
 8009e50:	4620      	mov	r0, r4
 8009e52:	f000 fd3f 	bl	800a8d4 <USBD_LL_OpenEP>
 8009e56:	f884 7023 	strb.w	r7, [r4, #35]	@ 0x23
 8009e5a:	8425      	strh	r5, [r4, #32]
 8009e5c:	4630      	mov	r0, r6
 8009e5e:	bdf8      	pop	{r3, r4, r5, r6, r7, pc}
 8009e60:	685b      	ldr	r3, [r3, #4]
 8009e62:	2b00      	cmp	r3, #0
 8009e64:	d0e4      	beq.n	8009e30 <USBD_LL_Reset+0x20>
 8009e66:	4798      	blx	r3
 8009e68:	2800      	cmp	r0, #0
 8009e6a:	d0e1      	beq.n	8009e30 <USBD_LL_Reset+0x20>
 8009e6c:	2603      	movs	r6, #3
 8009e6e:	e7e0      	b.n	8009e32 <USBD_LL_Reset+0x22>

08009e70 <USBD_LL_SetSpeed>:
 8009e70:	7401      	strb	r1, [r0, #16]
 8009e72:	2000      	movs	r0, #0
 8009e74:	4770      	bx	lr

08009e76 <USBD_LL_Suspend>:
 8009e76:	f890 329c 	ldrb.w	r3, [r0, #668]	@ 0x29c
 8009e7a:	2b04      	cmp	r3, #4
 8009e7c:	bf1e      	ittt	ne
 8009e7e:	f890 329c 	ldrbne.w	r3, [r0, #668]	@ 0x29c
 8009e82:	b2db      	uxtbne	r3, r3
 8009e84:	f880 329d 	strbne.w	r3, [r0, #669]	@ 0x29d
 8009e88:	2304      	movs	r3, #4
 8009e8a:	f880 329c 	strb.w	r3, [r0, #668]	@ 0x29c
 8009e8e:	2000      	movs	r0, #0
 8009e90:	4770      	bx	lr

08009e92 <USBD_LL_Resume>:
 8009e92:	f890 329c 	ldrb.w	r3, [r0, #668]	@ 0x29c
 8009e96:	2b04      	cmp	r3, #4
 8009e98:	bf02      	ittt	eq
 8009e9a:	f890 329d 	ldrbeq.w	r3, [r0, #669]	@ 0x29d
 8009e9e:	b2db      	uxtbeq	r3, r3
 8009ea0:	f880 329c 	strbeq.w	r3, [r0, #668]	@ 0x29c
 8009ea4:	2000      	movs	r0, #0
 8009ea6:	4770      	bx	lr

08009ea8 <USBD_LL_SOF>:
 8009ea8:	b508      	push	{r3, lr}
 8009eaa:	f890 229c 	ldrb.w	r2, [r0, #668]	@ 0x29c
 8009eae:	2a03      	cmp	r2, #3
 8009eb0:	d105      	bne.n	8009ebe <USBD_LL_SOF+0x16>
 8009eb2:	f8d0 32b8 	ldr.w	r3, [r0, #696]	@ 0x2b8
 8009eb6:	b113      	cbz	r3, 8009ebe <USBD_LL_SOF+0x16>
 8009eb8:	69db      	ldr	r3, [r3, #28]
 8009eba:	b103      	cbz	r3, 8009ebe <USBD_LL_SOF+0x16>
 8009ebc:	4798      	blx	r3
 8009ebe:	2000      	movs	r0, #0
 8009ec0:	bd08      	pop	{r3, pc}

08009ec2 <USBD_LL_IsoINIncomplete>:
 8009ec2:	f8d0 22d4 	ldr.w	r2, [r0, #724]	@ 0x2d4
 8009ec6:	32ae      	adds	r2, #174	@ 0xae
 8009ec8:	b508      	push	{r3, lr}
 8009eca:	f850 2022 	ldr.w	r2, [r0, r2, lsl #2]
 8009ece:	b14a      	cbz	r2, 8009ee4 <USBD_LL_IsoINIncomplete+0x22>
 8009ed0:	f890 329c 	ldrb.w	r3, [r0, #668]	@ 0x29c
 8009ed4:	2b03      	cmp	r3, #3
 8009ed6:	d101      	bne.n	8009edc <USBD_LL_IsoINIncomplete+0x1a>
 8009ed8:	6a13      	ldr	r3, [r2, #32]
 8009eda:	b90b      	cbnz	r3, 8009ee0 <USBD_LL_IsoINIncomplete+0x1e>
 8009edc:	2000      	movs	r0, #0
 8009ede:	bd08      	pop	{r3, pc}
 8009ee0:	4798      	blx	r3
 8009ee2:	e7fb      	b.n	8009edc <USBD_LL_IsoINIncomplete+0x1a>
 8009ee4:	2003      	movs	r0, #3
 8009ee6:	e7fa      	b.n	8009ede <USBD_LL_IsoINIncomplete+0x1c>

08009ee8 <USBD_LL_IsoOUTIncomplete>:
 8009ee8:	f8d0 22d4 	ldr.w	r2, [r0, #724]	@ 0x2d4
 8009eec:	32ae      	adds	r2, #174	@ 0xae
 8009eee:	b508      	push	{r3, lr}
 8009ef0:	f850 2022 	ldr.w	r2, [r0, r2, lsl #2]
 8009ef4:	b14a      	cbz	r2, 8009f0a <USBD_LL_IsoOUTIncomplete+0x22>
 8009ef6:	f890 329c 	ldrb.w	r3, [r0, #668]	@ 0x29c
 8009efa:	2b03      	cmp	r3, #3
 8009efc:	d101      	bne.n	8009f02 <USBD_LL_IsoOUTIncomplete+0x1a>
 8009efe:	6a53      	ldr	r3, [r2, #36]	@ 0x24
 8009f00:	b90b      	cbnz	r3, 8009f06 <USBD_LL_IsoOUTIncomplete+0x1e>
 8009f02:	2000      	movs	r0, #0
 8009f04:	bd08      	pop	{r3, pc}
 8009f06:	4798      	blx	r3
 8009f08:	e7fb      	b.n	8009f02 <USBD_LL_IsoOUTIncomplete+0x1a>
 8009f0a:	2003      	movs	r0, #3
 8009f0c:	e7fa      	b.n	8009f04 <USBD_LL_IsoOUTIncomplete+0x1c>

08009f0e <USBD_LL_DevConnected>:
 8009f0e:	2000      	movs	r0, #0
 8009f10:	4770      	bx	lr

08009f12 <USBD_LL_DevDisconnected>:
 8009f12:	2201      	movs	r2, #1
 8009f14:	b508      	push	{r3, lr}
 8009f16:	f880 229c 	strb.w	r2, [r0, #668]	@ 0x29c
 8009f1a:	f8d0 22b8 	ldr.w	r2, [r0, #696]	@ 0x2b8
 8009f1e:	b90a      	cbnz	r2, 8009f24 <USBD_LL_DevDisconnected+0x12>
 8009f20:	2000      	movs	r0, #0
 8009f22:	bd08      	pop	{r3, pc}
 8009f24:	6852      	ldr	r2, [r2, #4]
 8009f26:	7901      	ldrb	r1, [r0, #4]
 8009f28:	4790      	blx	r2
 8009f2a:	2800      	cmp	r0, #0
 8009f2c:	d0f8      	beq.n	8009f20 <USBD_LL_DevDisconnected+0xe>
 8009f2e:	2003      	movs	r0, #3
 8009f30:	e7f7      	b.n	8009f22 <USBD_LL_DevDisconnected+0x10>

08009f32 <USBD_CoreFindIF>:
 8009f32:	2000      	movs	r0, #0
 8009f34:	4770      	bx	lr

08009f36 <USBD_CoreFindEP>:
 8009f36:	2000      	movs	r0, #0
 8009f38:	4770      	bx	lr

08009f3a <USBD_GetEpDesc>:
 8009f3a:	b510      	push	{r4, lr}
 8009f3c:	8842      	ldrh	r2, [r0, #2]
 8009f3e:	7803      	ldrb	r3, [r0, #0]
 8009f40:	429a      	cmp	r2, r3
 8009f42:	d801      	bhi.n	8009f48 <USBD_GetEpDesc+0xe>
 8009f44:	2000      	movs	r0, #0
 8009f46:	bd10      	pop	{r4, pc}
 8009f48:	7804      	ldrb	r4, [r0, #0]
 8009f4a:	4420      	add	r0, r4
 8009f4c:	4423      	add	r3, r4
 8009f4e:	7844      	ldrb	r4, [r0, #1]
 8009f50:	2c05      	cmp	r4, #5
 8009f52:	b29b      	uxth	r3, r3
 8009f54:	d1f4      	bne.n	8009f40 <USBD_GetEpDesc+0x6>
 8009f56:	7884      	ldrb	r4, [r0, #2]
 8009f58:	428c      	cmp	r4, r1
 8009f5a:	d1f1      	bne.n	8009f40 <USBD_GetEpDesc+0x6>
 8009f5c:	e7f3      	b.n	8009f46 <USBD_GetEpDesc+0xc>

08009f5e <USBD_CtlError.constprop.0>:
 8009f5e:	b510      	push	{r4, lr}
 8009f60:	2180      	movs	r1, #128	@ 0x80
 8009f62:	4604      	mov	r4, r0
 8009f64:	f000 fccb 	bl	800a8fe <USBD_LL_StallEP>
 8009f68:	4620      	mov	r0, r4
 8009f6a:	2100      	movs	r1, #0
 8009f6c:	e8bd 4010 	ldmia.w	sp!, {r4, lr}
 8009f70:	f000 bcc5 	b.w	800a8fe <USBD_LL_StallEP>

08009f74 <USBD_StdDevReq>:
 8009f74:	b573      	push	{r0, r1, r4, r5, r6, lr}
 8009f76:	780b      	ldrb	r3, [r1, #0]
 8009f78:	f003 0360 	and.w	r3, r3, #96	@ 0x60
 8009f7c:	2b20      	cmp	r3, #32
 8009f7e:	4604      	mov	r4, r0
 8009f80:	460d      	mov	r5, r1
 8009f82:	d009      	beq.n	8009f98 <USBD_StdDevReq+0x24>
 8009f84:	2b40      	cmp	r3, #64	@ 0x40
 8009f86:	d007      	beq.n	8009f98 <USBD_StdDevReq+0x24>
 8009f88:	b193      	cbz	r3, 8009fb0 <USBD_StdDevReq+0x3c>
 8009f8a:	4620      	mov	r0, r4
 8009f8c:	f7ff ffe7 	bl	8009f5e <USBD_CtlError.constprop.0>
 8009f90:	2500      	movs	r5, #0
 8009f92:	4628      	mov	r0, r5
 8009f94:	b002      	add	sp, #8
 8009f96:	bd70      	pop	{r4, r5, r6, pc}
 8009f98:	f8d4 32d4 	ldr.w	r3, [r4, #724]	@ 0x2d4
 8009f9c:	33ae      	adds	r3, #174	@ 0xae
 8009f9e:	4629      	mov	r1, r5
 8009fa0:	f854 3023 	ldr.w	r3, [r4, r3, lsl #2]
 8009fa4:	689b      	ldr	r3, [r3, #8]
 8009fa6:	4620      	mov	r0, r4
 8009fa8:	b002      	add	sp, #8
 8009faa:	e8bd 4070 	ldmia.w	sp!, {r4, r5, r6, lr}
 8009fae:	4718      	bx	r3
 8009fb0:	784b      	ldrb	r3, [r1, #1]
 8009fb2:	2b09      	cmp	r3, #9
 8009fb4:	d8e9      	bhi.n	8009f8a <USBD_StdDevReq+0x16>
 8009fb6:	a201      	add	r2, pc, #4	@ (adr r2, 8009fbc <USBD_StdDevReq+0x48>)
 8009fb8:	f852 f023 	ldr.w	pc, [r2, r3, lsl #2]
 8009fbc:	0800a1dd 	.word	0x0800a1dd
 8009fc0:	0800a221 	.word	0x0800a221
 8009fc4:	08009f8b 	.word	0x08009f8b
 8009fc8:	0800a205 	.word	0x0800a205
 8009fcc:	08009f8b 	.word	0x08009f8b
 8009fd0:	0800a0d7 	.word	0x0800a0d7
 8009fd4:	08009fe5 	.word	0x08009fe5
 8009fd8:	08009f8b 	.word	0x08009f8b
 8009fdc:	0800a1b1 	.word	0x0800a1b1
 8009fe0:	0800a119 	.word	0x0800a119
 8009fe4:	2300      	movs	r3, #0
 8009fe6:	f8ad 3006 	strh.w	r3, [sp, #6]
 8009fea:	884b      	ldrh	r3, [r1, #2]
 8009fec:	0a1a      	lsrs	r2, r3, #8
 8009fee:	3a01      	subs	r2, #1
 8009ff0:	2a06      	cmp	r2, #6
 8009ff2:	d8ca      	bhi.n	8009f8a <USBD_StdDevReq+0x16>
 8009ff4:	a101      	add	r1, pc, #4	@ (adr r1, 8009ffc <USBD_StdDevReq+0x88>)
 8009ff6:	f851 f022 	ldr.w	pc, [r1, r2, lsl #2]
 8009ffa:	bf00      	nop
 8009ffc:	0800a019 	.word	0x0800a019
 800a000:	0800a04b 	.word	0x0800a04b
 800a004:	0800a065 	.word	0x0800a065
 800a008:	08009f8b 	.word	0x08009f8b
 800a00c:	08009f8b 	.word	0x08009f8b
 800a010:	0800a0a9 	.word	0x0800a0a9
 800a014:	0800a0bf 	.word	0x0800a0bf
 800a018:	f8d0 32b4 	ldr.w	r3, [r0, #692]	@ 0x2b4
 800a01c:	681b      	ldr	r3, [r3, #0]
 800a01e:	7c20      	ldrb	r0, [r4, #16]
 800a020:	f10d 0106 	add.w	r1, sp, #6
 800a024:	4798      	blx	r3
 800a026:	88ea      	ldrh	r2, [r5, #6]
 800a028:	2a00      	cmp	r2, #0
 800a02a:	f000 80a4 	beq.w	800a176 <USBD_StdDevReq+0x202>
 800a02e:	f8bd 3006 	ldrh.w	r3, [sp, #6]
 800a032:	2b00      	cmp	r3, #0
 800a034:	d0a9      	beq.n	8009f8a <USBD_StdDevReq+0x16>
 800a036:	429a      	cmp	r2, r3
 800a038:	bf28      	it	cs
 800a03a:	461a      	movcs	r2, r3
 800a03c:	f8ad 2006 	strh.w	r2, [sp, #6]
 800a040:	4601      	mov	r1, r0
 800a042:	4620      	mov	r0, r4
 800a044:	f000 f9ff 	bl	800a446 <USBD_CtlSendData>
 800a048:	e7a2      	b.n	8009f90 <USBD_StdDevReq+0x1c>
 800a04a:	7c02      	ldrb	r2, [r0, #16]
 800a04c:	f8d0 32b8 	ldr.w	r3, [r0, #696]	@ 0x2b8
 800a050:	b932      	cbnz	r2, 800a060 <USBD_StdDevReq+0xec>
 800a052:	6a9b      	ldr	r3, [r3, #40]	@ 0x28
 800a054:	f10d 0006 	add.w	r0, sp, #6
 800a058:	4798      	blx	r3
 800a05a:	2302      	movs	r3, #2
 800a05c:	7043      	strb	r3, [r0, #1]
 800a05e:	e7e2      	b.n	800a026 <USBD_StdDevReq+0xb2>
 800a060:	6adb      	ldr	r3, [r3, #44]	@ 0x2c
 800a062:	e7f7      	b.n	800a054 <USBD_StdDevReq+0xe0>
 800a064:	b2db      	uxtb	r3, r3
 800a066:	2b05      	cmp	r3, #5
 800a068:	d88f      	bhi.n	8009f8a <USBD_StdDevReq+0x16>
 800a06a:	e8df f003 	tbb	[pc, r3]
 800a06e:	0903      	.short	0x0903
 800a070:	1915110d 	.word	0x1915110d
 800a074:	f8d0 32b4 	ldr.w	r3, [r0, #692]	@ 0x2b4
 800a078:	685b      	ldr	r3, [r3, #4]
 800a07a:	2b00      	cmp	r3, #0
 800a07c:	d1cf      	bne.n	800a01e <USBD_StdDevReq+0xaa>
 800a07e:	e784      	b.n	8009f8a <USBD_StdDevReq+0x16>
 800a080:	f8d0 32b4 	ldr.w	r3, [r0, #692]	@ 0x2b4
 800a084:	689b      	ldr	r3, [r3, #8]
 800a086:	e7f8      	b.n	800a07a <USBD_StdDevReq+0x106>
 800a088:	f8d0 32b4 	ldr.w	r3, [r0, #692]	@ 0x2b4
 800a08c:	68db      	ldr	r3, [r3, #12]
 800a08e:	e7f4      	b.n	800a07a <USBD_StdDevReq+0x106>
 800a090:	f8d0 32b4 	ldr.w	r3, [r0, #692]	@ 0x2b4
 800a094:	691b      	ldr	r3, [r3, #16]
 800a096:	e7f0      	b.n	800a07a <USBD_StdDevReq+0x106>
 800a098:	f8d0 32b4 	ldr.w	r3, [r0, #692]	@ 0x2b4
 800a09c:	695b      	ldr	r3, [r3, #20]
 800a09e:	e7ec      	b.n	800a07a <USBD_StdDevReq+0x106>
 800a0a0:	f8d0 32b4 	ldr.w	r3, [r0, #692]	@ 0x2b4
 800a0a4:	699b      	ldr	r3, [r3, #24]
 800a0a6:	e7e8      	b.n	800a07a <USBD_StdDevReq+0x106>
 800a0a8:	7c03      	ldrb	r3, [r0, #16]
 800a0aa:	2b00      	cmp	r3, #0
 800a0ac:	f47f af6d 	bne.w	8009f8a <USBD_StdDevReq+0x16>
 800a0b0:	f8d0 32b8 	ldr.w	r3, [r0, #696]	@ 0x2b8
 800a0b4:	f10d 0006 	add.w	r0, sp, #6
 800a0b8:	6b5b      	ldr	r3, [r3, #52]	@ 0x34
 800a0ba:	4798      	blx	r3
 800a0bc:	e7b3      	b.n	800a026 <USBD_StdDevReq+0xb2>
 800a0be:	7c03      	ldrb	r3, [r0, #16]
 800a0c0:	2b00      	cmp	r3, #0
 800a0c2:	f47f af62 	bne.w	8009f8a <USBD_StdDevReq+0x16>
 800a0c6:	f8d0 32b8 	ldr.w	r3, [r0, #696]	@ 0x2b8
 800a0ca:	f10d 0006 	add.w	r0, sp, #6
 800a0ce:	6b1b      	ldr	r3, [r3, #48]	@ 0x30
 800a0d0:	4798      	blx	r3
 800a0d2:	2307      	movs	r3, #7
 800a0d4:	e7c2      	b.n	800a05c <USBD_StdDevReq+0xe8>
 800a0d6:	888b      	ldrh	r3, [r1, #4]
 800a0d8:	2b00      	cmp	r3, #0
 800a0da:	f47f af56 	bne.w	8009f8a <USBD_StdDevReq+0x16>
 800a0de:	88cb      	ldrh	r3, [r1, #6]
 800a0e0:	2b00      	cmp	r3, #0
 800a0e2:	f47f af52 	bne.w	8009f8a <USBD_StdDevReq+0x16>
 800a0e6:	884d      	ldrh	r5, [r1, #2]
 800a0e8:	2d7f      	cmp	r5, #127	@ 0x7f
 800a0ea:	f63f af4e 	bhi.w	8009f8a <USBD_StdDevReq+0x16>
 800a0ee:	f890 329c 	ldrb.w	r3, [r0, #668]	@ 0x29c
 800a0f2:	2b03      	cmp	r3, #3
 800a0f4:	f43f af49 	beq.w	8009f8a <USBD_StdDevReq+0x16>
 800a0f8:	b2ed      	uxtb	r5, r5
 800a0fa:	f880 529e 	strb.w	r5, [r0, #670]	@ 0x29e
 800a0fe:	4629      	mov	r1, r5
 800a100:	f000 fc0f 	bl	800a922 <USBD_LL_SetUSBAddress>
 800a104:	4620      	mov	r0, r4
 800a106:	f000 f9cd 	bl	800a4a4 <USBD_CtlSendStatus>
 800a10a:	b11d      	cbz	r5, 800a114 <USBD_StdDevReq+0x1a0>
 800a10c:	2302      	movs	r3, #2
 800a10e:	f884 329c 	strb.w	r3, [r4, #668]	@ 0x29c
 800a112:	e73d      	b.n	8009f90 <USBD_StdDevReq+0x1c>
 800a114:	2301      	movs	r3, #1
 800a116:	e7fa      	b.n	800a10e <USBD_StdDevReq+0x19a>
 800a118:	7889      	ldrb	r1, [r1, #2]
 800a11a:	4d47      	ldr	r5, [pc, #284]	@ (800a238 <USBD_StdDevReq+0x2c4>)
 800a11c:	2901      	cmp	r1, #1
 800a11e:	7029      	strb	r1, [r5, #0]
 800a120:	d903      	bls.n	800a12a <USBD_StdDevReq+0x1b6>
 800a122:	f7ff ff1c 	bl	8009f5e <USBD_CtlError.constprop.0>
 800a126:	2503      	movs	r5, #3
 800a128:	e733      	b.n	8009f92 <USBD_StdDevReq+0x1e>
 800a12a:	f890 329c 	ldrb.w	r3, [r0, #668]	@ 0x29c
 800a12e:	2b02      	cmp	r3, #2
 800a130:	b2de      	uxtb	r6, r3
 800a132:	d008      	beq.n	800a146 <USBD_StdDevReq+0x1d2>
 800a134:	2e03      	cmp	r6, #3
 800a136:	d017      	beq.n	800a168 <USBD_StdDevReq+0x1f4>
 800a138:	f7ff ff11 	bl	8009f5e <USBD_CtlError.constprop.0>
 800a13c:	7829      	ldrb	r1, [r5, #0]
 800a13e:	4620      	mov	r0, r4
 800a140:	f7ff fd9f 	bl	8009c82 <USBD_ClrClassConfig>
 800a144:	e7ef      	b.n	800a126 <USBD_StdDevReq+0x1b2>
 800a146:	b1b1      	cbz	r1, 800a176 <USBD_StdDevReq+0x202>
 800a148:	2101      	movs	r1, #1
 800a14a:	6041      	str	r1, [r0, #4]
 800a14c:	f7ff fd92 	bl	8009c74 <USBD_SetClassConfig>
 800a150:	4605      	mov	r5, r0
 800a152:	4620      	mov	r0, r4
 800a154:	b125      	cbz	r5, 800a160 <USBD_StdDevReq+0x1ec>
 800a156:	f7ff ff02 	bl	8009f5e <USBD_CtlError.constprop.0>
 800a15a:	f884 629c 	strb.w	r6, [r4, #668]	@ 0x29c
 800a15e:	e718      	b.n	8009f92 <USBD_StdDevReq+0x1e>
 800a160:	f000 f9a0 	bl	800a4a4 <USBD_CtlSendStatus>
 800a164:	2303      	movs	r3, #3
 800a166:	e7d2      	b.n	800a10e <USBD_StdDevReq+0x19a>
 800a168:	b949      	cbnz	r1, 800a17e <USBD_StdDevReq+0x20a>
 800a16a:	2302      	movs	r3, #2
 800a16c:	f880 329c 	strb.w	r3, [r0, #668]	@ 0x29c
 800a170:	6041      	str	r1, [r0, #4]
 800a172:	f7ff fd86 	bl	8009c82 <USBD_ClrClassConfig>
 800a176:	4620      	mov	r0, r4
 800a178:	f000 f994 	bl	800a4a4 <USBD_CtlSendStatus>
 800a17c:	e708      	b.n	8009f90 <USBD_StdDevReq+0x1c>
 800a17e:	6841      	ldr	r1, [r0, #4]
 800a180:	2901      	cmp	r1, #1
 800a182:	d0f8      	beq.n	800a176 <USBD_StdDevReq+0x202>
 800a184:	b2c9      	uxtb	r1, r1
 800a186:	f7ff fd7c 	bl	8009c82 <USBD_ClrClassConfig>
 800a18a:	7829      	ldrb	r1, [r5, #0]
 800a18c:	6061      	str	r1, [r4, #4]
 800a18e:	4620      	mov	r0, r4
 800a190:	f7ff fd70 	bl	8009c74 <USBD_SetClassConfig>
 800a194:	4605      	mov	r5, r0
 800a196:	2800      	cmp	r0, #0
 800a198:	d0ed      	beq.n	800a176 <USBD_StdDevReq+0x202>
 800a19a:	4620      	mov	r0, r4
 800a19c:	f7ff fedf 	bl	8009f5e <USBD_CtlError.constprop.0>
 800a1a0:	7921      	ldrb	r1, [r4, #4]
 800a1a2:	4620      	mov	r0, r4
 800a1a4:	f7ff fd6d 	bl	8009c82 <USBD_ClrClassConfig>
 800a1a8:	2302      	movs	r3, #2
 800a1aa:	f884 329c 	strb.w	r3, [r4, #668]	@ 0x29c
 800a1ae:	e6f0      	b.n	8009f92 <USBD_StdDevReq+0x1e>
 800a1b0:	88ca      	ldrh	r2, [r1, #6]
 800a1b2:	2a01      	cmp	r2, #1
 800a1b4:	f47f aee9 	bne.w	8009f8a <USBD_StdDevReq+0x16>
 800a1b8:	f890 129c 	ldrb.w	r1, [r0, #668]	@ 0x29c
 800a1bc:	2902      	cmp	r1, #2
 800a1be:	b2cb      	uxtb	r3, r1
 800a1c0:	d807      	bhi.n	800a1d2 <USBD_StdDevReq+0x25e>
 800a1c2:	2b00      	cmp	r3, #0
 800a1c4:	f43f aee1 	beq.w	8009f8a <USBD_StdDevReq+0x16>
 800a1c8:	4601      	mov	r1, r0
 800a1ca:	2300      	movs	r3, #0
 800a1cc:	f841 3f08 	str.w	r3, [r1, #8]!
 800a1d0:	e737      	b.n	800a042 <USBD_StdDevReq+0xce>
 800a1d2:	2b03      	cmp	r3, #3
 800a1d4:	f47f aed9 	bne.w	8009f8a <USBD_StdDevReq+0x16>
 800a1d8:	1d01      	adds	r1, r0, #4
 800a1da:	e732      	b.n	800a042 <USBD_StdDevReq+0xce>
 800a1dc:	f890 329c 	ldrb.w	r3, [r0, #668]	@ 0x29c
 800a1e0:	3b01      	subs	r3, #1
 800a1e2:	2b02      	cmp	r3, #2
 800a1e4:	f63f aed1 	bhi.w	8009f8a <USBD_StdDevReq+0x16>
 800a1e8:	88ca      	ldrh	r2, [r1, #6]
 800a1ea:	2a02      	cmp	r2, #2
 800a1ec:	f47f aecd 	bne.w	8009f8a <USBD_StdDevReq+0x16>
 800a1f0:	f8d0 32a4 	ldr.w	r3, [r0, #676]	@ 0x2a4
 800a1f4:	4601      	mov	r1, r0
 800a1f6:	2b00      	cmp	r3, #0
 800a1f8:	bf0c      	ite	eq
 800a1fa:	2301      	moveq	r3, #1
 800a1fc:	2303      	movne	r3, #3
 800a1fe:	f841 3f0c 	str.w	r3, [r1, #12]!
 800a202:	e71e      	b.n	800a042 <USBD_StdDevReq+0xce>
 800a204:	884b      	ldrh	r3, [r1, #2]
 800a206:	2b01      	cmp	r3, #1
 800a208:	d102      	bne.n	800a210 <USBD_StdDevReq+0x29c>
 800a20a:	f8c4 32a4 	str.w	r3, [r4, #676]	@ 0x2a4
 800a20e:	e7b2      	b.n	800a176 <USBD_StdDevReq+0x202>
 800a210:	2b02      	cmp	r3, #2
 800a212:	f47f aeba 	bne.w	8009f8a <USBD_StdDevReq+0x16>
 800a216:	888b      	ldrh	r3, [r1, #4]
 800a218:	0a1b      	lsrs	r3, r3, #8
 800a21a:	f880 32a0 	strb.w	r3, [r0, #672]	@ 0x2a0
 800a21e:	e7aa      	b.n	800a176 <USBD_StdDevReq+0x202>
 800a220:	f890 329c 	ldrb.w	r3, [r0, #668]	@ 0x29c
 800a224:	3b01      	subs	r3, #1
 800a226:	2b02      	cmp	r3, #2
 800a228:	f63f aeaf 	bhi.w	8009f8a <USBD_StdDevReq+0x16>
 800a22c:	884b      	ldrh	r3, [r1, #2]
 800a22e:	2b01      	cmp	r3, #1
 800a230:	f47f aeae 	bne.w	8009f90 <USBD_StdDevReq+0x1c>
 800a234:	2300      	movs	r3, #0
 800a236:	e7e8      	b.n	800a20a <USBD_StdDevReq+0x296>
 800a238:	200012d8 	.word	0x200012d8

0800a23c <USBD_StdItfReq>:
 800a23c:	b570      	push	{r4, r5, r6, lr}
 800a23e:	780b      	ldrb	r3, [r1, #0]
 800a240:	f003 0260 	and.w	r2, r3, #96	@ 0x60
 800a244:	065b      	lsls	r3, r3, #25
 800a246:	4604      	mov	r4, r0
 800a248:	460e      	mov	r6, r1
 800a24a:	d501      	bpl.n	800a250 <USBD_StdItfReq+0x14>
 800a24c:	2a40      	cmp	r2, #64	@ 0x40
 800a24e:	d11f      	bne.n	800a290 <USBD_StdItfReq+0x54>
 800a250:	f894 329c 	ldrb.w	r3, [r4, #668]	@ 0x29c
 800a254:	3b01      	subs	r3, #1
 800a256:	2b02      	cmp	r3, #2
 800a258:	d81a      	bhi.n	800a290 <USBD_StdItfReq+0x54>
 800a25a:	7931      	ldrb	r1, [r6, #4]
 800a25c:	2901      	cmp	r1, #1
 800a25e:	4620      	mov	r0, r4
 800a260:	d817      	bhi.n	800a292 <USBD_StdItfReq+0x56>
 800a262:	f7ff fe66 	bl	8009f32 <USBD_CoreFindIF>
 800a266:	b988      	cbnz	r0, 800a28c <USBD_StdItfReq+0x50>
 800a268:	f8d4 32b8 	ldr.w	r3, [r4, #696]	@ 0x2b8
 800a26c:	689b      	ldr	r3, [r3, #8]
 800a26e:	b16b      	cbz	r3, 800a28c <USBD_StdItfReq+0x50>
 800a270:	f8c4 02d4 	str.w	r0, [r4, #724]	@ 0x2d4
 800a274:	4631      	mov	r1, r6
 800a276:	4620      	mov	r0, r4
 800a278:	4798      	blx	r3
 800a27a:	4605      	mov	r5, r0
 800a27c:	88f3      	ldrh	r3, [r6, #6]
 800a27e:	b91b      	cbnz	r3, 800a288 <USBD_StdItfReq+0x4c>
 800a280:	b915      	cbnz	r5, 800a288 <USBD_StdItfReq+0x4c>
 800a282:	4620      	mov	r0, r4
 800a284:	f000 f90e 	bl	800a4a4 <USBD_CtlSendStatus>
 800a288:	4628      	mov	r0, r5
 800a28a:	bd70      	pop	{r4, r5, r6, pc}
 800a28c:	2503      	movs	r5, #3
 800a28e:	e7f5      	b.n	800a27c <USBD_StdItfReq+0x40>
 800a290:	4620      	mov	r0, r4
 800a292:	f7ff fe64 	bl	8009f5e <USBD_CtlError.constprop.0>
 800a296:	2500      	movs	r5, #0
 800a298:	e7f6      	b.n	800a288 <USBD_StdItfReq+0x4c>

0800a29a <USBD_StdEPReq>:
 800a29a:	b570      	push	{r4, r5, r6, lr}
 800a29c:	780b      	ldrb	r3, [r1, #0]
 800a29e:	888a      	ldrh	r2, [r1, #4]
 800a2a0:	790d      	ldrb	r5, [r1, #4]
 800a2a2:	f003 0360 	and.w	r3, r3, #96	@ 0x60
 800a2a6:	2b20      	cmp	r3, #32
 800a2a8:	4604      	mov	r4, r0
 800a2aa:	460e      	mov	r6, r1
 800a2ac:	d059      	beq.n	800a362 <USBD_StdEPReq+0xc8>
 800a2ae:	2b40      	cmp	r3, #64	@ 0x40
 800a2b0:	d057      	beq.n	800a362 <USBD_StdEPReq+0xc8>
 800a2b2:	b11b      	cbz	r3, 800a2bc <USBD_StdEPReq+0x22>
 800a2b4:	4620      	mov	r0, r4
 800a2b6:	f7ff fe52 	bl	8009f5e <USBD_CtlError.constprop.0>
 800a2ba:	e03e      	b.n	800a33a <USBD_StdEPReq+0xa0>
 800a2bc:	784b      	ldrb	r3, [r1, #1]
 800a2be:	2b01      	cmp	r3, #1
 800a2c0:	d03d      	beq.n	800a33e <USBD_StdEPReq+0xa4>
 800a2c2:	2b03      	cmp	r3, #3
 800a2c4:	d026      	beq.n	800a314 <USBD_StdEPReq+0x7a>
 800a2c6:	2b00      	cmp	r3, #0
 800a2c8:	d1f4      	bne.n	800a2b4 <USBD_StdEPReq+0x1a>
 800a2ca:	f890 329c 	ldrb.w	r3, [r0, #668]	@ 0x29c
 800a2ce:	2b02      	cmp	r3, #2
 800a2d0:	b2d9      	uxtb	r1, r3
 800a2d2:	d062      	beq.n	800a39a <USBD_StdEPReq+0x100>
 800a2d4:	2903      	cmp	r1, #3
 800a2d6:	d1ed      	bne.n	800a2b4 <USBD_StdEPReq+0x1a>
 800a2d8:	f005 030f 	and.w	r3, r5, #15
 800a2dc:	f012 0f80 	tst.w	r2, #128	@ 0x80
 800a2e0:	f04f 0214 	mov.w	r2, #20
 800a2e4:	fb02 0303 	mla	r3, r2, r3, r0
 800a2e8:	d067      	beq.n	800a3ba <USBD_StdEPReq+0x120>
 800a2ea:	f893 3023 	ldrb.w	r3, [r3, #35]	@ 0x23
 800a2ee:	2b00      	cmp	r3, #0
 800a2f0:	d0e0      	beq.n	800a2b4 <USBD_StdEPReq+0x1a>
 800a2f2:	f005 067f 	and.w	r6, r5, #127	@ 0x7f
 800a2f6:	3601      	adds	r6, #1
 800a2f8:	eb06 0686 	add.w	r6, r6, r6, lsl #2
 800a2fc:	2d80      	cmp	r5, #128	@ 0x80
 800a2fe:	eb00 0686 	add.w	r6, r0, r6, lsl #2
 800a302:	d066      	beq.n	800a3d2 <USBD_StdEPReq+0x138>
 800a304:	4629      	mov	r1, r5
 800a306:	4620      	mov	r0, r4
 800a308:	f000 faba 	bl	800a880 <USBD_LL_IsStallEP>
 800a30c:	2800      	cmp	r0, #0
 800a30e:	d066      	beq.n	800a3de <USBD_StdEPReq+0x144>
 800a310:	2301      	movs	r3, #1
 800a312:	e05f      	b.n	800a3d4 <USBD_StdEPReq+0x13a>
 800a314:	f890 329c 	ldrb.w	r3, [r0, #668]	@ 0x29c
 800a318:	2b02      	cmp	r3, #2
 800a31a:	b2da      	uxtb	r2, r3
 800a31c:	d033      	beq.n	800a386 <USBD_StdEPReq+0xec>
 800a31e:	2a03      	cmp	r2, #3
 800a320:	d1c8      	bne.n	800a2b4 <USBD_StdEPReq+0x1a>
 800a322:	884b      	ldrh	r3, [r1, #2]
 800a324:	b933      	cbnz	r3, 800a334 <USBD_StdEPReq+0x9a>
 800a326:	0669      	lsls	r1, r5, #25
 800a328:	d004      	beq.n	800a334 <USBD_StdEPReq+0x9a>
 800a32a:	88f3      	ldrh	r3, [r6, #6]
 800a32c:	b913      	cbnz	r3, 800a334 <USBD_StdEPReq+0x9a>
 800a32e:	4629      	mov	r1, r5
 800a330:	f000 fae5 	bl	800a8fe <USBD_LL_StallEP>
 800a334:	4620      	mov	r0, r4
 800a336:	f000 f8b5 	bl	800a4a4 <USBD_CtlSendStatus>
 800a33a:	2000      	movs	r0, #0
 800a33c:	bd70      	pop	{r4, r5, r6, pc}
 800a33e:	f890 329c 	ldrb.w	r3, [r0, #668]	@ 0x29c
 800a342:	2b02      	cmp	r3, #2
 800a344:	b2da      	uxtb	r2, r3
 800a346:	d01e      	beq.n	800a386 <USBD_StdEPReq+0xec>
 800a348:	2a03      	cmp	r2, #3
 800a34a:	d1b3      	bne.n	800a2b4 <USBD_StdEPReq+0x1a>
 800a34c:	884b      	ldrh	r3, [r1, #2]
 800a34e:	2b00      	cmp	r3, #0
 800a350:	d1f3      	bne.n	800a33a <USBD_StdEPReq+0xa0>
 800a352:	066b      	lsls	r3, r5, #25
 800a354:	d002      	beq.n	800a35c <USBD_StdEPReq+0xc2>
 800a356:	4629      	mov	r1, r5
 800a358:	f000 fada 	bl	800a910 <USBD_LL_ClearStallEP>
 800a35c:	4620      	mov	r0, r4
 800a35e:	f000 f8a1 	bl	800a4a4 <USBD_CtlSendStatus>
 800a362:	4629      	mov	r1, r5
 800a364:	4620      	mov	r0, r4
 800a366:	f7ff fde6 	bl	8009f36 <USBD_CoreFindEP>
 800a36a:	2800      	cmp	r0, #0
 800a36c:	d1e5      	bne.n	800a33a <USBD_StdEPReq+0xa0>
 800a36e:	f8d4 32b8 	ldr.w	r3, [r4, #696]	@ 0x2b8
 800a372:	f8c4 02d4 	str.w	r0, [r4, #724]	@ 0x2d4
 800a376:	689b      	ldr	r3, [r3, #8]
 800a378:	2b00      	cmp	r3, #0
 800a37a:	d0de      	beq.n	800a33a <USBD_StdEPReq+0xa0>
 800a37c:	4631      	mov	r1, r6
 800a37e:	4620      	mov	r0, r4
 800a380:	e8bd 4070 	ldmia.w	sp!, {r4, r5, r6, lr}
 800a384:	4718      	bx	r3
 800a386:	066a      	lsls	r2, r5, #25
 800a388:	d094      	beq.n	800a2b4 <USBD_StdEPReq+0x1a>
 800a38a:	4629      	mov	r1, r5
 800a38c:	f000 fab7 	bl	800a8fe <USBD_LL_StallEP>
 800a390:	2180      	movs	r1, #128	@ 0x80
 800a392:	4620      	mov	r0, r4
 800a394:	f000 fab3 	bl	800a8fe <USBD_LL_StallEP>
 800a398:	e7cf      	b.n	800a33a <USBD_StdEPReq+0xa0>
 800a39a:	0669      	lsls	r1, r5, #25
 800a39c:	d18a      	bne.n	800a2b4 <USBD_StdEPReq+0x1a>
 800a39e:	0613      	lsls	r3, r2, #24
 800a3a0:	bf4c      	ite	mi
 800a3a2:	f100 0114 	addmi.w	r1, r0, #20
 800a3a6:	f500 71aa 	addpl.w	r1, r0, #340	@ 0x154
 800a3aa:	2300      	movs	r3, #0
 800a3ac:	f801 3f0e 	strb.w	r3, [r1, #14]!
 800a3b0:	2202      	movs	r2, #2
 800a3b2:	4620      	mov	r0, r4
 800a3b4:	f000 f847 	bl	800a446 <USBD_CtlSendData>
 800a3b8:	e7bf      	b.n	800a33a <USBD_StdEPReq+0xa0>
 800a3ba:	f893 3163 	ldrb.w	r3, [r3, #355]	@ 0x163
 800a3be:	2b00      	cmp	r3, #0
 800a3c0:	f43f af78 	beq.w	800a2b4 <USBD_StdEPReq+0x1a>
 800a3c4:	2614      	movs	r6, #20
 800a3c6:	fb06 0605 	mla	r6, r6, r5, r0
 800a3ca:	f506 76aa 	add.w	r6, r6, #340	@ 0x154
 800a3ce:	2d00      	cmp	r5, #0
 800a3d0:	d198      	bne.n	800a304 <USBD_StdEPReq+0x6a>
 800a3d2:	2300      	movs	r3, #0
 800a3d4:	73b3      	strb	r3, [r6, #14]
 800a3d6:	2202      	movs	r2, #2
 800a3d8:	f106 010e 	add.w	r1, r6, #14
 800a3dc:	e7e9      	b.n	800a3b2 <USBD_StdEPReq+0x118>
 800a3de:	73b0      	strb	r0, [r6, #14]
 800a3e0:	e7f9      	b.n	800a3d6 <USBD_StdEPReq+0x13c>

0800a3e2 <USBD_ParseSetupRequest>:
 800a3e2:	780b      	ldrb	r3, [r1, #0]
 800a3e4:	7003      	strb	r3, [r0, #0]
 800a3e6:	784b      	ldrb	r3, [r1, #1]
 800a3e8:	7043      	strb	r3, [r0, #1]
 800a3ea:	884b      	ldrh	r3, [r1, #2]
 800a3ec:	8043      	strh	r3, [r0, #2]
 800a3ee:	888b      	ldrh	r3, [r1, #4]
 800a3f0:	8083      	strh	r3, [r0, #4]
 800a3f2:	88cb      	ldrh	r3, [r1, #6]
 800a3f4:	80c3      	strh	r3, [r0, #6]
 800a3f6:	4770      	bx	lr

0800a3f8 <USBD_CtlError>:
 800a3f8:	b510      	push	{r4, lr}
 800a3fa:	2180      	movs	r1, #128	@ 0x80
 800a3fc:	4604      	mov	r4, r0
 800a3fe:	f000 fa7e 	bl	800a8fe <USBD_LL_StallEP>
 800a402:	4620      	mov	r0, r4
 800a404:	2100      	movs	r1, #0
 800a406:	e8bd 4010 	ldmia.w	sp!, {r4, lr}
 800a40a:	f000 ba78 	b.w	800a8fe <USBD_LL_StallEP>

0800a40e <USBD_GetString>:
 800a40e:	b570      	push	{r4, r5, r6, lr}
 800a410:	460d      	mov	r5, r1
 800a412:	4616      	mov	r6, r2
 800a414:	4604      	mov	r4, r0
 800a416:	b170      	cbz	r0, 800a436 <USBD_GetString+0x28>
 800a418:	f7f5 feec 	bl	80001f4 <strlen>
 800a41c:	b2c3      	uxtb	r3, r0
 800a41e:	3301      	adds	r3, #1
 800a420:	005b      	lsls	r3, r3, #1
 800a422:	8033      	strh	r3, [r6, #0]
 800a424:	702b      	strb	r3, [r5, #0]
 800a426:	2303      	movs	r3, #3
 800a428:	706b      	strb	r3, [r5, #1]
 800a42a:	3c01      	subs	r4, #1
 800a42c:	2302      	movs	r3, #2
 800a42e:	2100      	movs	r1, #0
 800a430:	f814 2f01 	ldrb.w	r2, [r4, #1]!
 800a434:	b902      	cbnz	r2, 800a438 <USBD_GetString+0x2a>
 800a436:	bd70      	pop	{r4, r5, r6, pc}
 800a438:	54ea      	strb	r2, [r5, r3]
 800a43a:	1c5a      	adds	r2, r3, #1
 800a43c:	b2d2      	uxtb	r2, r2
 800a43e:	3302      	adds	r3, #2
 800a440:	54a9      	strb	r1, [r5, r2]
 800a442:	b2db      	uxtb	r3, r3
 800a444:	e7f4      	b.n	800a430 <USBD_GetString+0x22>

0800a446 <USBD_CtlSendData>:
 800a446:	b510      	push	{r4, lr}
 800a448:	4613      	mov	r3, r2
 800a44a:	2202      	movs	r2, #2
 800a44c:	f8c0 2294 	str.w	r2, [r0, #660]	@ 0x294
 800a450:	6143      	str	r3, [r0, #20]
 800a452:	460a      	mov	r2, r1
 800a454:	6241      	str	r1, [r0, #36]	@ 0x24
 800a456:	6183      	str	r3, [r0, #24]
 800a458:	2100      	movs	r1, #0
 800a45a:	f000 fa6b 	bl	800a934 <USBD_LL_Transmit>
 800a45e:	2000      	movs	r0, #0
 800a460:	bd10      	pop	{r4, pc}

0800a462 <USBD_CtlContinueSendData>:
 800a462:	b508      	push	{r3, lr}
 800a464:	4613      	mov	r3, r2
 800a466:	460a      	mov	r2, r1
 800a468:	2100      	movs	r1, #0
 800a46a:	f000 fa63 	bl	800a934 <USBD_LL_Transmit>
 800a46e:	2000      	movs	r0, #0
 800a470:	bd08      	pop	{r3, pc}

0800a472 <USBD_CtlPrepareRx>:
 800a472:	b510      	push	{r4, lr}
 800a474:	4613      	mov	r3, r2
 800a476:	2203      	movs	r2, #3
 800a478:	f8c0 2294 	str.w	r2, [r0, #660]	@ 0x294
 800a47c:	f8c0 3154 	str.w	r3, [r0, #340]	@ 0x154
 800a480:	460a      	mov	r2, r1
 800a482:	f8c0 1164 	str.w	r1, [r0, #356]	@ 0x164
 800a486:	f8c0 3158 	str.w	r3, [r0, #344]	@ 0x158
 800a48a:	2100      	movs	r1, #0
 800a48c:	f000 fa5b 	bl	800a946 <USBD_LL_PrepareReceive>
 800a490:	2000      	movs	r0, #0
 800a492:	bd10      	pop	{r4, pc}

0800a494 <USBD_CtlContinueRx>:
 800a494:	b508      	push	{r3, lr}
 800a496:	4613      	mov	r3, r2
 800a498:	460a      	mov	r2, r1
 800a49a:	2100      	movs	r1, #0
 800a49c:	f000 fa53 	bl	800a946 <USBD_LL_PrepareReceive>
 800a4a0:	2000      	movs	r0, #0
 800a4a2:	bd08      	pop	{r3, pc}

0800a4a4 <USBD_CtlSendStatus>:
 800a4a4:	b508      	push	{r3, lr}
 800a4a6:	2204      	movs	r2, #4
 800a4a8:	2300      	movs	r3, #0
 800a4aa:	f8c0 2294 	str.w	r2, [r0, #660]	@ 0x294
 800a4ae:	4619      	mov	r1, r3
 800a4b0:	461a      	mov	r2, r3
 800a4b2:	f000 fa3f 	bl	800a934 <USBD_LL_Transmit>
 800a4b6:	2000      	movs	r0, #0
 800a4b8:	bd08      	pop	{r3, pc}

0800a4ba <USBD_CtlReceiveStatus>:
 800a4ba:	b508      	push	{r3, lr}
 800a4bc:	2205      	movs	r2, #5
 800a4be:	2300      	movs	r3, #0
 800a4c0:	f8c0 2294 	str.w	r2, [r0, #660]	@ 0x294
 800a4c4:	4619      	mov	r1, r3
 800a4c6:	461a      	mov	r2, r3
 800a4c8:	f000 fa3d 	bl	800a946 <USBD_LL_PrepareReceive>
 800a4cc:	2000      	movs	r0, #0
 800a4ce:	bd08      	pop	{r3, pc}

0800a4d0 <MX_USB_DEVICE_Init>:
 800a4d0:	b508      	push	{r3, lr}
 800a4d2:	490f      	ldr	r1, [pc, #60]	@ (800a510 <MX_USB_DEVICE_Init+0x40>)
 800a4d4:	480f      	ldr	r0, [pc, #60]	@ (800a514 <MX_USB_DEVICE_Init+0x44>)
 800a4d6:	2200      	movs	r2, #0
 800a4d8:	f7ff fb9e 	bl	8009c18 <USBD_Init>
 800a4dc:	b108      	cbz	r0, 800a4e2 <MX_USB_DEVICE_Init+0x12>
 800a4de:	f7f9 fb89 	bl	8003bf4 <Error_Handler>
 800a4e2:	490d      	ldr	r1, [pc, #52]	@ (800a518 <MX_USB_DEVICE_Init+0x48>)
 800a4e4:	480b      	ldr	r0, [pc, #44]	@ (800a514 <MX_USB_DEVICE_Init+0x44>)
 800a4e6:	f7ff fbaa 	bl	8009c3e <USBD_RegisterClass>
 800a4ea:	b108      	cbz	r0, 800a4f0 <MX_USB_DEVICE_Init+0x20>
 800a4ec:	f7f9 fb82 	bl	8003bf4 <Error_Handler>
 800a4f0:	490a      	ldr	r1, [pc, #40]	@ (800a51c <MX_USB_DEVICE_Init+0x4c>)
 800a4f2:	4808      	ldr	r0, [pc, #32]	@ (800a514 <MX_USB_DEVICE_Init+0x44>)
 800a4f4:	f7ff fb3a 	bl	8009b6c <USBD_CDC_RegisterInterface>
 800a4f8:	b108      	cbz	r0, 800a4fe <MX_USB_DEVICE_Init+0x2e>
 800a4fa:	f7f9 fb7b 	bl	8003bf4 <Error_Handler>
 800a4fe:	4805      	ldr	r0, [pc, #20]	@ (800a514 <MX_USB_DEVICE_Init+0x44>)
 800a500:	f7ff fbb6 	bl	8009c70 <USBD_Start>
 800a504:	b118      	cbz	r0, 800a50e <MX_USB_DEVICE_Init+0x3e>
 800a506:	e8bd 4008 	ldmia.w	sp!, {r3, lr}
 800a50a:	f7f9 bb73 	b.w	8003bf4 <Error_Handler>
 800a50e:	bd08      	pop	{r3, pc}
 800a510:	20000144 	.word	0x20000144
 800a514:	200012dc 	.word	0x200012dc
 800a518:	200000b0 	.word	0x200000b0
 800a51c:	200000f4 	.word	0x200000f4

0800a520 <CDC_DeInit_FS>:
 800a520:	2000      	movs	r0, #0
 800a522:	4770      	bx	lr

0800a524 <CDC_Control_FS>:
 800a524:	2820      	cmp	r0, #32
 800a526:	d003      	beq.n	800a530 <CDC_Control_FS+0xc>
 800a528:	2821      	cmp	r0, #33	@ 0x21
 800a52a:	d00b      	beq.n	800a544 <CDC_Control_FS+0x20>
 800a52c:	2000      	movs	r0, #0
 800a52e:	4770      	bx	lr
 800a530:	4b0d      	ldr	r3, [pc, #52]	@ (800a568 <CDC_Control_FS+0x44>)
 800a532:	680a      	ldr	r2, [r1, #0]
 800a534:	601a      	str	r2, [r3, #0]
 800a536:	790a      	ldrb	r2, [r1, #4]
 800a538:	711a      	strb	r2, [r3, #4]
 800a53a:	794a      	ldrb	r2, [r1, #5]
 800a53c:	715a      	strb	r2, [r3, #5]
 800a53e:	798a      	ldrb	r2, [r1, #6]
 800a540:	719a      	strb	r2, [r3, #6]
 800a542:	e7f3      	b.n	800a52c <CDC_Control_FS+0x8>
 800a544:	4b08      	ldr	r3, [pc, #32]	@ (800a568 <CDC_Control_FS+0x44>)
 800a546:	681a      	ldr	r2, [r3, #0]
 800a548:	700a      	strb	r2, [r1, #0]
 800a54a:	681a      	ldr	r2, [r3, #0]
 800a54c:	0a12      	lsrs	r2, r2, #8
 800a54e:	704a      	strb	r2, [r1, #1]
 800a550:	885a      	ldrh	r2, [r3, #2]
 800a552:	708a      	strb	r2, [r1, #2]
 800a554:	78da      	ldrb	r2, [r3, #3]
 800a556:	70ca      	strb	r2, [r1, #3]
 800a558:	791a      	ldrb	r2, [r3, #4]
 800a55a:	710a      	strb	r2, [r1, #4]
 800a55c:	795a      	ldrb	r2, [r3, #5]
 800a55e:	714a      	strb	r2, [r1, #5]
 800a560:	799b      	ldrb	r3, [r3, #6]
 800a562:	718b      	strb	r3, [r1, #6]
 800a564:	e7e2      	b.n	800a52c <CDC_Control_FS+0x8>
 800a566:	bf00      	nop
 800a568:	20000108 	.word	0x20000108

0800a56c <CDC_TransmitCplt_FS>:
 800a56c:	2000      	movs	r0, #0
 800a56e:	4770      	bx	lr

0800a570 <CDC_Receive_FS>:
 800a570:	4b07      	ldr	r3, [pc, #28]	@ (800a590 <CDC_Receive_FS+0x20>)
 800a572:	681b      	ldr	r3, [r3, #0]
 800a574:	b510      	push	{r4, lr}
 800a576:	4604      	mov	r4, r0
 800a578:	b10b      	cbz	r3, 800a57e <CDC_Receive_FS+0xe>
 800a57a:	6809      	ldr	r1, [r1, #0]
 800a57c:	4798      	blx	r3
 800a57e:	4621      	mov	r1, r4
 800a580:	4804      	ldr	r0, [pc, #16]	@ (800a594 <CDC_Receive_FS+0x24>)
 800a582:	f7ff fb0c 	bl	8009b9e <USBD_CDC_SetRxBuffer>
 800a586:	4803      	ldr	r0, [pc, #12]	@ (800a594 <CDC_Receive_FS+0x24>)
 800a588:	f7ff fb30 	bl	8009bec <USBD_CDC_ReceivePacket>
 800a58c:	2000      	movs	r0, #0
 800a58e:	bd10      	pop	{r4, pc}
 800a590:	200015b8 	.word	0x200015b8
 800a594:	200012dc 	.word	0x200012dc

0800a598 <CDC_Init_FS>:
 800a598:	b510      	push	{r4, lr}
 800a59a:	4c07      	ldr	r4, [pc, #28]	@ (800a5b8 <CDC_Init_FS+0x20>)
 800a59c:	4907      	ldr	r1, [pc, #28]	@ (800a5bc <CDC_Init_FS+0x24>)
 800a59e:	2200      	movs	r2, #0
 800a5a0:	4620      	mov	r0, r4
 800a5a2:	f7ff faee 	bl	8009b82 <USBD_CDC_SetTxBuffer>
 800a5a6:	4906      	ldr	r1, [pc, #24]	@ (800a5c0 <CDC_Init_FS+0x28>)
 800a5a8:	4620      	mov	r0, r4
 800a5aa:	f7ff faf8 	bl	8009b9e <USBD_CDC_SetRxBuffer>
 800a5ae:	4620      	mov	r0, r4
 800a5b0:	f7ff fb1c 	bl	8009bec <USBD_CDC_ReceivePacket>
 800a5b4:	2000      	movs	r0, #0
 800a5b6:	bd10      	pop	{r4, pc}
 800a5b8:	200012dc 	.word	0x200012dc
 800a5bc:	200015bc 	.word	0x200015bc
 800a5c0:	20001dbc 	.word	0x20001dbc

0800a5c4 <CDC_Transmit_FS>:
 800a5c4:	b510      	push	{r4, lr}
 800a5c6:	4c09      	ldr	r4, [pc, #36]	@ (800a5ec <CDC_Transmit_FS+0x28>)
 800a5c8:	f8d4 32bc 	ldr.w	r3, [r4, #700]	@ 0x2bc
 800a5cc:	f8d3 3214 	ldr.w	r3, [r3, #532]	@ 0x214
 800a5d0:	460a      	mov	r2, r1
 800a5d2:	b943      	cbnz	r3, 800a5e6 <CDC_Transmit_FS+0x22>
 800a5d4:	4601      	mov	r1, r0
 800a5d6:	4620      	mov	r0, r4
 800a5d8:	f7ff fad3 	bl	8009b82 <USBD_CDC_SetTxBuffer>
 800a5dc:	4620      	mov	r0, r4
 800a5de:	e8bd 4010 	ldmia.w	sp!, {r4, lr}
 800a5e2:	f7ff bae8 	b.w	8009bb6 <USBD_CDC_TransmitPacket>
 800a5e6:	2001      	movs	r0, #1
 800a5e8:	bd10      	pop	{r4, pc}
 800a5ea:	bf00      	nop
 800a5ec:	200012dc 	.word	0x200012dc

0800a5f0 <CDC_Attach_Rx>:
 800a5f0:	4b01      	ldr	r3, [pc, #4]	@ (800a5f8 <CDC_Attach_Rx+0x8>)
 800a5f2:	6018      	str	r0, [r3, #0]
 800a5f4:	4770      	bx	lr
 800a5f6:	bf00      	nop
 800a5f8:	200015b8 	.word	0x200015b8

0800a5fc <USBD_FS_DeviceDescriptor>:
 800a5fc:	2312      	movs	r3, #18
 800a5fe:	4801      	ldr	r0, [pc, #4]	@ (800a604 <USBD_FS_DeviceDescriptor+0x8>)
 800a600:	800b      	strh	r3, [r1, #0]
 800a602:	4770      	bx	lr
 800a604:	20000130 	.word	0x20000130

0800a608 <USBD_FS_LangIDStrDescriptor>:
 800a608:	2304      	movs	r3, #4
 800a60a:	4801      	ldr	r0, [pc, #4]	@ (800a610 <USBD_FS_LangIDStrDescriptor+0x8>)
 800a60c:	800b      	strh	r3, [r1, #0]
 800a60e:	4770      	bx	lr
 800a610:	2000012c 	.word	0x2000012c

0800a614 <IntToUnicode>:
 800a614:	2300      	movs	r3, #0
 800a616:	b570      	push	{r4, r5, r6, lr}
 800a618:	1c4d      	adds	r5, r1, #1
 800a61a:	461e      	mov	r6, r3
 800a61c:	0f04      	lsrs	r4, r0, #28
 800a61e:	f1b0 4f20 	cmp.w	r0, #2684354560	@ 0xa0000000
 800a622:	bf34      	ite	cc
 800a624:	3430      	addcc	r4, #48	@ 0x30
 800a626:	3437      	addcs	r4, #55	@ 0x37
 800a628:	f801 4013 	strb.w	r4, [r1, r3, lsl #1]
 800a62c:	f805 6013 	strb.w	r6, [r5, r3, lsl #1]
 800a630:	3301      	adds	r3, #1
 800a632:	b2dc      	uxtb	r4, r3
 800a634:	42a2      	cmp	r2, r4
 800a636:	ea4f 1000 	mov.w	r0, r0, lsl #4
 800a63a:	d8ef      	bhi.n	800a61c <IntToUnicode+0x8>
 800a63c:	bd70      	pop	{r4, r5, r6, pc}
	...

0800a640 <USBD_FS_SerialStrDescriptor>:
 800a640:	231a      	movs	r3, #26
 800a642:	b510      	push	{r4, lr}
 800a644:	800b      	strh	r3, [r1, #0]
 800a646:	4b0a      	ldr	r3, [pc, #40]	@ (800a670 <USBD_FS_SerialStrDescriptor+0x30>)
 800a648:	f8d3 0a10 	ldr.w	r0, [r3, #2576]	@ 0xa10
 800a64c:	f8d3 2a18 	ldr.w	r2, [r3, #2584]	@ 0xa18
 800a650:	1880      	adds	r0, r0, r2
 800a652:	d00a      	beq.n	800a66a <USBD_FS_SerialStrDescriptor+0x2a>
 800a654:	f8d3 4a14 	ldr.w	r4, [r3, #2580]	@ 0xa14
 800a658:	4906      	ldr	r1, [pc, #24]	@ (800a674 <USBD_FS_SerialStrDescriptor+0x34>)
 800a65a:	2208      	movs	r2, #8
 800a65c:	f7ff ffda 	bl	800a614 <IntToUnicode>
 800a660:	2204      	movs	r2, #4
 800a662:	3110      	adds	r1, #16
 800a664:	4620      	mov	r0, r4
 800a666:	f7ff ffd5 	bl	800a614 <IntToUnicode>
 800a66a:	4803      	ldr	r0, [pc, #12]	@ (800a678 <USBD_FS_SerialStrDescriptor+0x38>)
 800a66c:	bd10      	pop	{r4, pc}
 800a66e:	bf00      	nop
 800a670:	1fff7000 	.word	0x1fff7000
 800a674:	20000112 	.word	0x20000112
 800a678:	20000110 	.word	0x20000110

0800a67c <USBD_FS_ManufacturerStrDescriptor>:
 800a67c:	b510      	push	{r4, lr}
 800a67e:	4c04      	ldr	r4, [pc, #16]	@ (800a690 <USBD_FS_ManufacturerStrDescriptor+0x14>)
 800a680:	4804      	ldr	r0, [pc, #16]	@ (800a694 <USBD_FS_ManufacturerStrDescriptor+0x18>)
 800a682:	460a      	mov	r2, r1
 800a684:	4621      	mov	r1, r4
 800a686:	f7ff fec2 	bl	800a40e <USBD_GetString>
 800a68a:	4620      	mov	r0, r4
 800a68c:	bd10      	pop	{r4, pc}
 800a68e:	bf00      	nop
 800a690:	200025bc 	.word	0x200025bc
 800a694:	0800bc1c 	.word	0x0800bc1c

0800a698 <USBD_FS_ProductStrDescriptor>:
 800a698:	b510      	push	{r4, lr}
 800a69a:	4c04      	ldr	r4, [pc, #16]	@ (800a6ac <USBD_FS_ProductStrDescriptor+0x14>)
 800a69c:	4804      	ldr	r0, [pc, #16]	@ (800a6b0 <USBD_FS_ProductStrDescriptor+0x18>)
 800a69e:	460a      	mov	r2, r1
 800a6a0:	4621      	mov	r1, r4
 800a6a2:	f7ff feb4 	bl	800a40e <USBD_GetString>
 800a6a6:	4620      	mov	r0, r4
 800a6a8:	bd10      	pop	{r4, pc}
 800a6aa:	bf00      	nop
 800a6ac:	200025bc 	.word	0x200025bc
 800a6b0:	0800bc2f 	.word	0x0800bc2f

0800a6b4 <USBD_FS_ConfigStrDescriptor>:
 800a6b4:	b510      	push	{r4, lr}
 800a6b6:	4c04      	ldr	r4, [pc, #16]	@ (800a6c8 <USBD_FS_ConfigStrDescriptor+0x14>)
 800a6b8:	4804      	ldr	r0, [pc, #16]	@ (800a6cc <USBD_FS_ConfigStrDescriptor+0x18>)
 800a6ba:	460a      	mov	r2, r1
 800a6bc:	4621      	mov	r1, r4
 800a6be:	f7ff fea6 	bl	800a40e <USBD_GetString>
 800a6c2:	4620      	mov	r0, r4
 800a6c4:	bd10      	pop	{r4, pc}
 800a6c6:	bf00      	nop
 800a6c8:	200025bc 	.word	0x200025bc
 800a6cc:	0800bc45 	.word	0x0800bc45

0800a6d0 <USBD_FS_InterfaceStrDescriptor>:
 800a6d0:	b510      	push	{r4, lr}
 800a6d2:	4c04      	ldr	r4, [pc, #16]	@ (800a6e4 <USBD_FS_InterfaceStrDescriptor+0x14>)
 800a6d4:	4804      	ldr	r0, [pc, #16]	@ (800a6e8 <USBD_FS_InterfaceStrDescriptor+0x18>)
 800a6d6:	460a      	mov	r2, r1
 800a6d8:	4621      	mov	r1, r4
 800a6da:	f7ff fe98 	bl	800a40e <USBD_GetString>
 800a6de:	4620      	mov	r0, r4
 800a6e0:	bd10      	pop	{r4, pc}
 800a6e2:	bf00      	nop
 800a6e4:	200025bc 	.word	0x200025bc
 800a6e8:	0800bc50 	.word	0x0800bc50

0800a6ec <HAL_PCD_MspInit>:
 800a6ec:	b530      	push	{r4, r5, lr}
 800a6ee:	4604      	mov	r4, r0
 800a6f0:	b089      	sub	sp, #36	@ 0x24
 800a6f2:	2214      	movs	r2, #20
 800a6f4:	2100      	movs	r1, #0
 800a6f6:	a803      	add	r0, sp, #12
 800a6f8:	f000 f9e2 	bl	800aac0 <memset>
 800a6fc:	6823      	ldr	r3, [r4, #0]
 800a6fe:	f1b3 4fa0 	cmp.w	r3, #1342177280	@ 0x50000000
 800a702:	d12e      	bne.n	800a762 <HAL_PCD_MspInit+0x76>
 800a704:	4c18      	ldr	r4, [pc, #96]	@ (800a768 <HAL_PCD_MspInit+0x7c>)
 800a706:	4819      	ldr	r0, [pc, #100]	@ (800a76c <HAL_PCD_MspInit+0x80>)
 800a708:	2500      	movs	r5, #0
 800a70a:	9501      	str	r5, [sp, #4]
 800a70c:	6b23      	ldr	r3, [r4, #48]	@ 0x30
 800a70e:	f043 0301 	orr.w	r3, r3, #1
 800a712:	6323      	str	r3, [r4, #48]	@ 0x30
 800a714:	6b23      	ldr	r3, [r4, #48]	@ 0x30
 800a716:	f003 0301 	and.w	r3, r3, #1
 800a71a:	9301      	str	r3, [sp, #4]
 800a71c:	f44f 52c0 	mov.w	r2, #6144	@ 0x1800
 800a720:	9b01      	ldr	r3, [sp, #4]
 800a722:	2302      	movs	r3, #2
 800a724:	e9cd 2303 	strd	r2, r3, [sp, #12]
 800a728:	2103      	movs	r1, #3
 800a72a:	230a      	movs	r3, #10
 800a72c:	e9cd 1306 	strd	r1, r3, [sp, #24]
 800a730:	a903      	add	r1, sp, #12
 800a732:	f7fa fe05 	bl	8005340 <HAL_GPIO_Init>
 800a736:	6b63      	ldr	r3, [r4, #52]	@ 0x34
 800a738:	f043 0380 	orr.w	r3, r3, #128	@ 0x80
 800a73c:	6363      	str	r3, [r4, #52]	@ 0x34
 800a73e:	9502      	str	r5, [sp, #8]
 800a740:	6c63      	ldr	r3, [r4, #68]	@ 0x44
 800a742:	f443 4380 	orr.w	r3, r3, #16384	@ 0x4000
 800a746:	6463      	str	r3, [r4, #68]	@ 0x44
 800a748:	6c63      	ldr	r3, [r4, #68]	@ 0x44
 800a74a:	f403 4380 	and.w	r3, r3, #16384	@ 0x4000
 800a74e:	9302      	str	r3, [sp, #8]
 800a750:	2043      	movs	r0, #67	@ 0x43
 800a752:	462a      	mov	r2, r5
 800a754:	4629      	mov	r1, r5
 800a756:	9b02      	ldr	r3, [sp, #8]
 800a758:	f7fa fbbc 	bl	8004ed4 <HAL_NVIC_SetPriority>
 800a75c:	2043      	movs	r0, #67	@ 0x43
 800a75e:	f7fa fbeb 	bl	8004f38 <HAL_NVIC_EnableIRQ>
 800a762:	b009      	add	sp, #36	@ 0x24
 800a764:	bd30      	pop	{r4, r5, pc}
 800a766:	bf00      	nop
 800a768:	40023800 	.word	0x40023800
 800a76c:	40020000 	.word	0x40020000

0800a770 <HAL_PCD_SetupStageCallback>:
 800a770:	f200 419c 	addw	r1, r0, #1180	@ 0x49c
 800a774:	f8d0 04e0 	ldr.w	r0, [r0, #1248]	@ 0x4e0
 800a778:	f7ff ba8c 	b.w	8009c94 <USBD_LL_SetupStage>

0800a77c <HAL_PCD_DataOutStageCallback>:
 800a77c:	2324      	movs	r3, #36	@ 0x24
 800a77e:	fb03 0301 	mla	r3, r3, r1, r0
 800a782:	f8d0 04e0 	ldr.w	r0, [r0, #1248]	@ 0x4e0
 800a786:	f8d3 2260 	ldr.w	r2, [r3, #608]	@ 0x260
 800a78a:	f7ff bab3 	b.w	8009cf4 <USBD_LL_DataOutStage>

0800a78e <HAL_PCD_DataInStageCallback>:
 800a78e:	2324      	movs	r3, #36	@ 0x24
 800a790:	fb03 0301 	mla	r3, r3, r1, r0
 800a794:	f8d0 04e0 	ldr.w	r0, [r0, #1248]	@ 0x4e0
 800a798:	6a1a      	ldr	r2, [r3, #32]
 800a79a:	f7ff bae5 	b.w	8009d68 <USBD_LL_DataInStage>

0800a79e <HAL_PCD_SOFCallback>:
 800a79e:	f8d0 04e0 	ldr.w	r0, [r0, #1248]	@ 0x4e0
 800a7a2:	f7ff bb81 	b.w	8009ea8 <USBD_LL_SOF>

0800a7a6 <HAL_PCD_ResetCallback>:
 800a7a6:	b510      	push	{r4, lr}
 800a7a8:	79c3      	ldrb	r3, [r0, #7]
 800a7aa:	2b02      	cmp	r3, #2
 800a7ac:	4604      	mov	r4, r0
 800a7ae:	d001      	beq.n	800a7b4 <HAL_PCD_ResetCallback+0xe>
 800a7b0:	f7f9 fa20 	bl	8003bf4 <Error_Handler>
 800a7b4:	f8d4 04e0 	ldr.w	r0, [r4, #1248]	@ 0x4e0
 800a7b8:	2101      	movs	r1, #1
 800a7ba:	f7ff fb59 	bl	8009e70 <USBD_LL_SetSpeed>
 800a7be:	f8d4 04e0 	ldr.w	r0, [r4, #1248]	@ 0x4e0
 800a7c2:	e8bd 4010 	ldmia.w	sp!, {r4, lr}
 800a7c6:	f7ff bb23 	b.w	8009e10 <USBD_LL_Reset>
	...

0800a7cc <HAL_PCD_SuspendCallback>:
 800a7cc:	b510      	push	{r4, lr}
 800a7ce:	4604      	mov	r4, r0
 800a7d0:	f8d0 04e0 	ldr.w	r0, [r0, #1248]	@ 0x4e0
 800a7d4:	f7ff fb4f 	bl	8009e76 <USBD_LL_Suspend>
 800a7d8:	6822      	ldr	r2, [r4, #0]
 800a7da:	f8d2 3e00 	ldr.w	r3, [r2, #3584]	@ 0xe00
 800a7de:	f043 0301 	orr.w	r3, r3, #1
 800a7e2:	f8c2 3e00 	str.w	r3, [r2, #3584]	@ 0xe00
 800a7e6:	7ae3      	ldrb	r3, [r4, #11]
 800a7e8:	b123      	cbz	r3, 800a7f4 <HAL_PCD_SuspendCallback+0x28>
 800a7ea:	4a03      	ldr	r2, [pc, #12]	@ (800a7f8 <HAL_PCD_SuspendCallback+0x2c>)
 800a7ec:	6913      	ldr	r3, [r2, #16]
 800a7ee:	f043 0306 	orr.w	r3, r3, #6
 800a7f2:	6113      	str	r3, [r2, #16]
 800a7f4:	bd10      	pop	{r4, pc}
 800a7f6:	bf00      	nop
 800a7f8:	e000ed00 	.word	0xe000ed00

0800a7fc <HAL_PCD_ResumeCallback>:
 800a7fc:	f8d0 04e0 	ldr.w	r0, [r0, #1248]	@ 0x4e0
 800a800:	f7ff bb47 	b.w	8009e92 <USBD_LL_Resume>

0800a804 <HAL_PCD_ISOOUTIncompleteCallback>:
 800a804:	f8d0 04e0 	ldr.w	r0, [r0, #1248]	@ 0x4e0
 800a808:	f7ff bb6e 	b.w	8009ee8 <USBD_LL_IsoOUTIncomplete>

0800a80c <HAL_PCD_ISOINIncompleteCallback>:
 800a80c:	f8d0 04e0 	ldr.w	r0, [r0, #1248]	@ 0x4e0
 800a810:	f7ff bb57 	b.w	8009ec2 <USBD_LL_IsoINIncomplete>

0800a814 <HAL_PCD_ConnectCallback>:
 800a814:	f8d0 04e0 	ldr.w	r0, [r0, #1248]	@ 0x4e0
 800a818:	f7ff bb79 	b.w	8009f0e <USBD_LL_DevConnected>

0800a81c <HAL_PCD_DisconnectCallback>:
 800a81c:	f8d0 04e0 	ldr.w	r0, [r0, #1248]	@ 0x4e0
 800a820:	f7ff bb77 	b.w	8009f12 <USBD_LL_DevDisconnected>

0800a824 <USBD_LL_Init>:
 800a824:	b508      	push	{r3, lr}
 800a826:	7802      	ldrb	r2, [r0, #0]
 800a828:	4603      	mov	r3, r0
 800a82a:	bb22      	cbnz	r2, 800a876 <USBD_LL_Init+0x52>
 800a82c:	4813      	ldr	r0, [pc, #76]	@ (800a87c <USBD_LL_Init+0x58>)
 800a82e:	f8c0 34e0 	str.w	r3, [r0, #1248]	@ 0x4e0
 800a832:	f8c3 02c8 	str.w	r0, [r3, #712]	@ 0x2c8
 800a836:	f04f 43a0 	mov.w	r3, #1342177280	@ 0x50000000
 800a83a:	6003      	str	r3, [r0, #0]
 800a83c:	2304      	movs	r3, #4
 800a83e:	7103      	strb	r3, [r0, #4]
 800a840:	f44f 7300 	mov.w	r3, #512	@ 0x200
 800a844:	80c3      	strh	r3, [r0, #6]
 800a846:	2302      	movs	r3, #2
 800a848:	7243      	strb	r3, [r0, #9]
 800a84a:	8142      	strh	r2, [r0, #10]
 800a84c:	7302      	strb	r2, [r0, #12]
 800a84e:	81c2      	strh	r2, [r0, #14]
 800a850:	f7fc fbf8 	bl	8007044 <HAL_PCD_Init>
 800a854:	b108      	cbz	r0, 800a85a <USBD_LL_Init+0x36>
 800a856:	f7f9 f9cd 	bl	8003bf4 <Error_Handler>
 800a85a:	2180      	movs	r1, #128	@ 0x80
 800a85c:	4807      	ldr	r0, [pc, #28]	@ (800a87c <USBD_LL_Init+0x58>)
 800a85e:	f7fd f91e 	bl	8007a9e <HAL_PCDEx_SetRxFiFo>
 800a862:	2240      	movs	r2, #64	@ 0x40
 800a864:	2100      	movs	r1, #0
 800a866:	4805      	ldr	r0, [pc, #20]	@ (800a87c <USBD_LL_Init+0x58>)
 800a868:	f7fd f8fa 	bl	8007a60 <HAL_PCDEx_SetTxFiFo>
 800a86c:	4803      	ldr	r0, [pc, #12]	@ (800a87c <USBD_LL_Init+0x58>)
 800a86e:	2280      	movs	r2, #128	@ 0x80
 800a870:	2101      	movs	r1, #1
 800a872:	f7fd f8f5 	bl	8007a60 <HAL_PCDEx_SetTxFiFo>
 800a876:	2000      	movs	r0, #0
 800a878:	bd08      	pop	{r3, pc}
 800a87a:	bf00      	nop
 800a87c:	200029dc 	.word	0x200029dc

0800a880 <USBD_LL_IsStallEP>:
 800a880:	f011 0f80 	tst.w	r1, #128	@ 0x80
 800a884:	f8d0 32c8 	ldr.w	r3, [r0, #712]	@ 0x2c8
 800a888:	f04f 0224 	mov.w	r2, #36	@ 0x24
 800a88c:	bf1b      	ittet	ne
 800a88e:	f001 017f 	andne.w	r1, r1, #127	@ 0x7f
 800a892:	fb02 3301 	mlane	r3, r2, r1, r3
 800a896:	fb02 3301 	mlaeq	r3, r2, r1, r3
 800a89a:	7d98      	ldrbne	r0, [r3, #22]
 800a89c:	bf08      	it	eq
 800a89e:	f893 0256 	ldrbeq.w	r0, [r3, #598]	@ 0x256
 800a8a2:	4770      	bx	lr

0800a8a4 <USBD_LL_GetRxDataSize>:
 800a8a4:	f8d0 02c8 	ldr.w	r0, [r0, #712]	@ 0x2c8
 800a8a8:	f7fc bcf2 	b.w	8007290 <HAL_PCD_EP_GetRxCount>

0800a8ac <USBD_static_malloc>:
 800a8ac:	4800      	ldr	r0, [pc, #0]	@ (800a8b0 <USBD_static_malloc+0x4>)
 800a8ae:	4770      	bx	lr
 800a8b0:	200027bc 	.word	0x200027bc

0800a8b4 <USBD_static_free>:
 800a8b4:	4770      	bx	lr

0800a8b6 <USBD_Get_USB_Status>:
 800a8b6:	b118      	cbz	r0, 800a8c0 <USBD_Get_USB_Status+0xa>
 800a8b8:	2802      	cmp	r0, #2
 800a8ba:	bf0c      	ite	eq
 800a8bc:	2001      	moveq	r0, #1
 800a8be:	2003      	movne	r0, #3
 800a8c0:	4770      	bx	lr

0800a8c2 <USBD_LL_Start>:
 800a8c2:	b508      	push	{r3, lr}
 800a8c4:	f8d0 02c8 	ldr.w	r0, [r0, #712]	@ 0x2c8
 800a8c8:	f7fc fc2b 	bl	8007122 <HAL_PCD_Start>
 800a8cc:	e8bd 4008 	ldmia.w	sp!, {r3, lr}
 800a8d0:	f7ff bff1 	b.w	800a8b6 <USBD_Get_USB_Status>

0800a8d4 <USBD_LL_OpenEP>:
 800a8d4:	b510      	push	{r4, lr}
 800a8d6:	4614      	mov	r4, r2
 800a8d8:	f8d0 02c8 	ldr.w	r0, [r0, #712]	@ 0x2c8
 800a8dc:	461a      	mov	r2, r3
 800a8de:	4623      	mov	r3, r4
 800a8e0:	f7fc fc51 	bl	8007186 <HAL_PCD_EP_Open>
 800a8e4:	e8bd 4010 	ldmia.w	sp!, {r4, lr}
 800a8e8:	f7ff bfe5 	b.w	800a8b6 <USBD_Get_USB_Status>

0800a8ec <USBD_LL_CloseEP>:
 800a8ec:	b508      	push	{r3, lr}
 800a8ee:	f8d0 02c8 	ldr.w	r0, [r0, #712]	@ 0x2c8
 800a8f2:	f7fc fc81 	bl	80071f8 <HAL_PCD_EP_Close>
 800a8f6:	e8bd 4008 	ldmia.w	sp!, {r3, lr}
 800a8fa:	f7ff bfdc 	b.w	800a8b6 <USBD_Get_USB_Status>

0800a8fe <USBD_LL_StallEP>:
 800a8fe:	b508      	push	{r3, lr}
 800a900:	f8d0 02c8 	ldr.w	r0, [r0, #712]	@ 0x2c8
 800a904:	f7fc fce7 	bl	80072d6 <HAL_PCD_EP_SetStall>
 800a908:	e8bd 4008 	ldmia.w	sp!, {r3, lr}
 800a90c:	f7ff bfd3 	b.w	800a8b6 <USBD_Get_USB_Status>

0800a910 <USBD_LL_ClearStallEP>:
 800a910:	b508      	push	{r3, lr}
 800a912:	f8d0 02c8 	ldr.w	r0, [r0, #712]	@ 0x2c8
 800a916:	f7fc fd15 	bl	8007344 <HAL_PCD_EP_ClrStall>
 800a91a:	e8bd 4008 	ldmia.w	sp!, {r3, lr}
 800a91e:	f7ff bfca 	b.w	800a8b6 <USBD_Get_USB_Status>

0800a922 <USBD_LL_SetUSBAddress>:
 800a922:	b508      	push	{r3, lr}
 800a924:	f8d0 02c8 	ldr.w	r0, [r0, #712]	@ 0x2c8
 800a928:	f7fc fc1a 	bl	8007160 <HAL_PCD_SetAddress>
 800a92c:	e8bd 4008 	ldmia.w	sp!, {r3, lr}
 800a930:	f7ff bfc1 	b.w	800a8b6 <USBD_Get_USB_Status>

0800a934 <USBD_LL_Transmit>:
 800a934:	b508      	push	{r3, lr}
 800a936:	f8d0 02c8 	ldr.w	r0, [r0, #712]	@ 0x2c8
 800a93a:	f7fc fcb1 	bl	80072a0 <HAL_PCD_EP_Transmit>
 800a93e:	e8bd 4008 	ldmia.w	sp!, {r3, lr}
 800a942:	f7ff bfb8 	b.w	800a8b6 <USBD_Get_USB_Status>

0800a946 <USBD_LL_PrepareReceive>:
 800a946:	b508      	push	{r3, lr}
 800a948:	f8d0 02c8 	ldr.w	r0, [r0, #712]	@ 0x2c8
 800a94c:	f7fc fc82 	bl	8007254 <HAL_PCD_EP_Receive>
 800a950:	e8bd 4008 	ldmia.w	sp!, {r3, lr}
 800a954:	f7ff bfaf 	b.w	800a8b6 <USBD_Get_USB_Status>

0800a958 <__itoa>:
 800a958:	1e93      	subs	r3, r2, #2
 800a95a:	2b22      	cmp	r3, #34	@ 0x22
 800a95c:	b510      	push	{r4, lr}
 800a95e:	460c      	mov	r4, r1
 800a960:	d904      	bls.n	800a96c <__itoa+0x14>
 800a962:	2300      	movs	r3, #0
 800a964:	700b      	strb	r3, [r1, #0]
 800a966:	461c      	mov	r4, r3
 800a968:	4620      	mov	r0, r4
 800a96a:	bd10      	pop	{r4, pc}
 800a96c:	2a0a      	cmp	r2, #10
 800a96e:	d109      	bne.n	800a984 <__itoa+0x2c>
 800a970:	2800      	cmp	r0, #0
 800a972:	da07      	bge.n	800a984 <__itoa+0x2c>
 800a974:	232d      	movs	r3, #45	@ 0x2d
 800a976:	700b      	strb	r3, [r1, #0]
 800a978:	4240      	negs	r0, r0
 800a97a:	2101      	movs	r1, #1
 800a97c:	4421      	add	r1, r4
 800a97e:	f000 f805 	bl	800a98c <__utoa>
 800a982:	e7f1      	b.n	800a968 <__itoa+0x10>
 800a984:	2100      	movs	r1, #0
 800a986:	e7f9      	b.n	800a97c <__itoa+0x24>

0800a988 <itoa>:
 800a988:	f7ff bfe6 	b.w	800a958 <__itoa>

0800a98c <__utoa>:
 800a98c:	b5f0      	push	{r4, r5, r6, r7, lr}
 800a98e:	4c1f      	ldr	r4, [pc, #124]	@ (800aa0c <__utoa+0x80>)
 800a990:	b08b      	sub	sp, #44	@ 0x2c
 800a992:	4605      	mov	r5, r0
 800a994:	460b      	mov	r3, r1
 800a996:	466e      	mov	r6, sp
 800a998:	f104 0c20 	add.w	ip, r4, #32
 800a99c:	6820      	ldr	r0, [r4, #0]
 800a99e:	6861      	ldr	r1, [r4, #4]
 800a9a0:	4637      	mov	r7, r6
 800a9a2:	c703      	stmia	r7!, {r0, r1}
 800a9a4:	3408      	adds	r4, #8
 800a9a6:	4564      	cmp	r4, ip
 800a9a8:	463e      	mov	r6, r7
 800a9aa:	d1f7      	bne.n	800a99c <__utoa+0x10>
 800a9ac:	7921      	ldrb	r1, [r4, #4]
 800a9ae:	7139      	strb	r1, [r7, #4]
 800a9b0:	1e91      	subs	r1, r2, #2
 800a9b2:	6820      	ldr	r0, [r4, #0]
 800a9b4:	6038      	str	r0, [r7, #0]
 800a9b6:	2922      	cmp	r1, #34	@ 0x22
 800a9b8:	f04f 0100 	mov.w	r1, #0
 800a9bc:	d904      	bls.n	800a9c8 <__utoa+0x3c>
 800a9be:	7019      	strb	r1, [r3, #0]
 800a9c0:	460b      	mov	r3, r1
 800a9c2:	4618      	mov	r0, r3
 800a9c4:	b00b      	add	sp, #44	@ 0x2c
 800a9c6:	bdf0      	pop	{r4, r5, r6, r7, pc}
 800a9c8:	1e58      	subs	r0, r3, #1
 800a9ca:	4684      	mov	ip, r0
 800a9cc:	fbb5 f7f2 	udiv	r7, r5, r2
 800a9d0:	fb02 5617 	mls	r6, r2, r7, r5
 800a9d4:	3628      	adds	r6, #40	@ 0x28
 800a9d6:	446e      	add	r6, sp
 800a9d8:	460c      	mov	r4, r1
 800a9da:	f816 6c28 	ldrb.w	r6, [r6, #-40]
 800a9de:	f80c 6f01 	strb.w	r6, [ip, #1]!
 800a9e2:	462e      	mov	r6, r5
 800a9e4:	42b2      	cmp	r2, r6
 800a9e6:	f101 0101 	add.w	r1, r1, #1
 800a9ea:	463d      	mov	r5, r7
 800a9ec:	d9ee      	bls.n	800a9cc <__utoa+0x40>
 800a9ee:	2200      	movs	r2, #0
 800a9f0:	545a      	strb	r2, [r3, r1]
 800a9f2:	1919      	adds	r1, r3, r4
 800a9f4:	1aa5      	subs	r5, r4, r2
 800a9f6:	42aa      	cmp	r2, r5
 800a9f8:	dae3      	bge.n	800a9c2 <__utoa+0x36>
 800a9fa:	f810 5f01 	ldrb.w	r5, [r0, #1]!
 800a9fe:	780e      	ldrb	r6, [r1, #0]
 800aa00:	7006      	strb	r6, [r0, #0]
 800aa02:	3201      	adds	r2, #1
 800aa04:	f801 5901 	strb.w	r5, [r1], #-1
 800aa08:	e7f4      	b.n	800a9f4 <__utoa+0x68>
 800aa0a:	bf00      	nop
 800aa0c:	0800bc5e 	.word	0x0800bc5e

0800aa10 <sniprintf>:
 800aa10:	b40c      	push	{r2, r3}
 800aa12:	b530      	push	{r4, r5, lr}
 800aa14:	4b18      	ldr	r3, [pc, #96]	@ (800aa78 <sniprintf+0x68>)
 800aa16:	1e0c      	subs	r4, r1, #0
 800aa18:	681d      	ldr	r5, [r3, #0]
 800aa1a:	b09d      	sub	sp, #116	@ 0x74
 800aa1c:	da08      	bge.n	800aa30 <sniprintf+0x20>
 800aa1e:	238b      	movs	r3, #139	@ 0x8b
 800aa20:	602b      	str	r3, [r5, #0]
 800aa22:	f04f 30ff 	mov.w	r0, #4294967295
 800aa26:	b01d      	add	sp, #116	@ 0x74
 800aa28:	e8bd 4030 	ldmia.w	sp!, {r4, r5, lr}
 800aa2c:	b002      	add	sp, #8
 800aa2e:	4770      	bx	lr
 800aa30:	f44f 7302 	mov.w	r3, #520	@ 0x208
 800aa34:	f8ad 3014 	strh.w	r3, [sp, #20]
 800aa38:	f04f 0300 	mov.w	r3, #0
 800aa3c:	931b      	str	r3, [sp, #108]	@ 0x6c
 800aa3e:	bf14      	ite	ne
 800aa40:	f104 33ff 	addne.w	r3, r4, #4294967295
 800aa44:	4623      	moveq	r3, r4
 800aa46:	9304      	str	r3, [sp, #16]
 800aa48:	9307      	str	r3, [sp, #28]
 800aa4a:	f64f 73ff 	movw	r3, #65535	@ 0xffff
 800aa4e:	9002      	str	r0, [sp, #8]
 800aa50:	9006      	str	r0, [sp, #24]
 800aa52:	f8ad 3016 	strh.w	r3, [sp, #22]
 800aa56:	9a20      	ldr	r2, [sp, #128]	@ 0x80
 800aa58:	ab21      	add	r3, sp, #132	@ 0x84
 800aa5a:	a902      	add	r1, sp, #8
 800aa5c:	4628      	mov	r0, r5
 800aa5e:	9301      	str	r3, [sp, #4]
 800aa60:	f000 f9cc 	bl	800adfc <_svfiprintf_r>
 800aa64:	1c43      	adds	r3, r0, #1
 800aa66:	bfbc      	itt	lt
 800aa68:	238b      	movlt	r3, #139	@ 0x8b
 800aa6a:	602b      	strlt	r3, [r5, #0]
 800aa6c:	2c00      	cmp	r4, #0
 800aa6e:	d0da      	beq.n	800aa26 <sniprintf+0x16>
 800aa70:	9b02      	ldr	r3, [sp, #8]
 800aa72:	2200      	movs	r2, #0
 800aa74:	701a      	strb	r2, [r3, #0]
 800aa76:	e7d6      	b.n	800aa26 <sniprintf+0x16>
 800aa78:	20000160 	.word	0x20000160

0800aa7c <siprintf>:
 800aa7c:	b40e      	push	{r1, r2, r3}
 800aa7e:	b510      	push	{r4, lr}
 800aa80:	b09d      	sub	sp, #116	@ 0x74
 800aa82:	ab1f      	add	r3, sp, #124	@ 0x7c
 800aa84:	9002      	str	r0, [sp, #8]
 800aa86:	9006      	str	r0, [sp, #24]
 800aa88:	f06f 4100 	mvn.w	r1, #2147483648	@ 0x80000000
 800aa8c:	480a      	ldr	r0, [pc, #40]	@ (800aab8 <siprintf+0x3c>)
 800aa8e:	9107      	str	r1, [sp, #28]
 800aa90:	9104      	str	r1, [sp, #16]
 800aa92:	490a      	ldr	r1, [pc, #40]	@ (800aabc <siprintf+0x40>)
 800aa94:	f853 2b04 	ldr.w	r2, [r3], #4
 800aa98:	9105      	str	r1, [sp, #20]
 800aa9a:	2400      	movs	r4, #0
 800aa9c:	a902      	add	r1, sp, #8
 800aa9e:	6800      	ldr	r0, [r0, #0]
 800aaa0:	9301      	str	r3, [sp, #4]
 800aaa2:	941b      	str	r4, [sp, #108]	@ 0x6c
 800aaa4:	f000 f9aa 	bl	800adfc <_svfiprintf_r>
 800aaa8:	9b02      	ldr	r3, [sp, #8]
 800aaaa:	701c      	strb	r4, [r3, #0]
 800aaac:	b01d      	add	sp, #116	@ 0x74
 800aaae:	e8bd 4010 	ldmia.w	sp!, {r4, lr}
 800aab2:	b003      	add	sp, #12
 800aab4:	4770      	bx	lr
 800aab6:	bf00      	nop
 800aab8:	20000160 	.word	0x20000160
 800aabc:	ffff0208 	.word	0xffff0208

0800aac0 <memset>:
 800aac0:	4402      	add	r2, r0
 800aac2:	4603      	mov	r3, r0
 800aac4:	4293      	cmp	r3, r2
 800aac6:	d100      	bne.n	800aaca <memset+0xa>
 800aac8:	4770      	bx	lr
 800aaca:	f803 1b01 	strb.w	r1, [r3], #1
 800aace:	e7f9      	b.n	800aac4 <memset+0x4>

0800aad0 <__errno>:
 800aad0:	4b01      	ldr	r3, [pc, #4]	@ (800aad8 <__errno+0x8>)
 800aad2:	6818      	ldr	r0, [r3, #0]
 800aad4:	4770      	bx	lr
 800aad6:	bf00      	nop
 800aad8:	20000160 	.word	0x20000160

0800aadc <__libc_init_array>:
 800aadc:	b570      	push	{r4, r5, r6, lr}
 800aade:	4d0d      	ldr	r5, [pc, #52]	@ (800ab14 <__libc_init_array+0x38>)
 800aae0:	4c0d      	ldr	r4, [pc, #52]	@ (800ab18 <__libc_init_array+0x3c>)
 800aae2:	1b64      	subs	r4, r4, r5
 800aae4:	10a4      	asrs	r4, r4, #2
 800aae6:	2600      	movs	r6, #0
 800aae8:	42a6      	cmp	r6, r4
 800aaea:	d109      	bne.n	800ab00 <__libc_init_array+0x24>
 800aaec:	4d0b      	ldr	r5, [pc, #44]	@ (800ab1c <__libc_init_array+0x40>)
 800aaee:	4c0c      	ldr	r4, [pc, #48]	@ (800ab20 <__libc_init_array+0x44>)
 800aaf0:	f000 fdea 	bl	800b6c8 <_init>
 800aaf4:	1b64      	subs	r4, r4, r5
 800aaf6:	10a4      	asrs	r4, r4, #2
 800aaf8:	2600      	movs	r6, #0
 800aafa:	42a6      	cmp	r6, r4
 800aafc:	d105      	bne.n	800ab0a <__libc_init_array+0x2e>
 800aafe:	bd70      	pop	{r4, r5, r6, pc}
 800ab00:	f855 3b04 	ldr.w	r3, [r5], #4
 800ab04:	4798      	blx	r3
 800ab06:	3601      	adds	r6, #1
 800ab08:	e7ee      	b.n	800aae8 <__libc_init_array+0xc>
 800ab0a:	f855 3b04 	ldr.w	r3, [r5], #4
 800ab0e:	4798      	blx	r3
 800ab10:	3601      	adds	r6, #1
 800ab12:	e7f2      	b.n	800aafa <__libc_init_array+0x1e>
 800ab14:	0800cb00 	.word	0x0800cb00
 800ab18:	0800cb00 	.word	0x0800cb00
 800ab1c:	0800cb00 	.word	0x0800cb00
 800ab20:	0800cb04 	.word	0x0800cb04

0800ab24 <__retarget_lock_acquire_recursive>:
 800ab24:	4770      	bx	lr

0800ab26 <__retarget_lock_release_recursive>:
 800ab26:	4770      	bx	lr

0800ab28 <strcpy>:
 800ab28:	4603      	mov	r3, r0
 800ab2a:	f811 2b01 	ldrb.w	r2, [r1], #1
 800ab2e:	f803 2b01 	strb.w	r2, [r3], #1
 800ab32:	2a00      	cmp	r2, #0
 800ab34:	d1f9      	bne.n	800ab2a <strcpy+0x2>
 800ab36:	4770      	bx	lr

0800ab38 <memcpy>:
 800ab38:	440a      	add	r2, r1
 800ab3a:	4291      	cmp	r1, r2
 800ab3c:	f100 33ff 	add.w	r3, r0, #4294967295
 800ab40:	d100      	bne.n	800ab44 <memcpy+0xc>
 800ab42:	4770      	bx	lr
 800ab44:	b510      	push	{r4, lr}
 800ab46:	f811 4b01 	ldrb.w	r4, [r1], #1
 800ab4a:	f803 4f01 	strb.w	r4, [r3, #1]!
 800ab4e:	4291      	cmp	r1, r2
 800ab50:	d1f9      	bne.n	800ab46 <memcpy+0xe>
 800ab52:	bd10      	pop	{r4, pc}

0800ab54 <_free_r>:
 800ab54:	b538      	push	{r3, r4, r5, lr}
 800ab56:	4605      	mov	r5, r0
 800ab58:	2900      	cmp	r1, #0
 800ab5a:	d041      	beq.n	800abe0 <_free_r+0x8c>
 800ab5c:	f851 3c04 	ldr.w	r3, [r1, #-4]
 800ab60:	1f0c      	subs	r4, r1, #4
 800ab62:	2b00      	cmp	r3, #0
 800ab64:	bfb8      	it	lt
 800ab66:	18e4      	addlt	r4, r4, r3
 800ab68:	f000 f8e0 	bl	800ad2c <__malloc_lock>
 800ab6c:	4a1d      	ldr	r2, [pc, #116]	@ (800abe4 <_free_r+0x90>)
 800ab6e:	6813      	ldr	r3, [r2, #0]
 800ab70:	b933      	cbnz	r3, 800ab80 <_free_r+0x2c>
 800ab72:	6063      	str	r3, [r4, #4]
 800ab74:	6014      	str	r4, [r2, #0]
 800ab76:	4628      	mov	r0, r5
 800ab78:	e8bd 4038 	ldmia.w	sp!, {r3, r4, r5, lr}
 800ab7c:	f000 b8dc 	b.w	800ad38 <__malloc_unlock>
 800ab80:	42a3      	cmp	r3, r4
 800ab82:	d908      	bls.n	800ab96 <_free_r+0x42>
 800ab84:	6820      	ldr	r0, [r4, #0]
 800ab86:	1821      	adds	r1, r4, r0
 800ab88:	428b      	cmp	r3, r1
 800ab8a:	bf01      	itttt	eq
 800ab8c:	6819      	ldreq	r1, [r3, #0]
 800ab8e:	685b      	ldreq	r3, [r3, #4]
 800ab90:	1809      	addeq	r1, r1, r0
 800ab92:	6021      	streq	r1, [r4, #0]
 800ab94:	e7ed      	b.n	800ab72 <_free_r+0x1e>
 800ab96:	461a      	mov	r2, r3
 800ab98:	685b      	ldr	r3, [r3, #4]
 800ab9a:	b10b      	cbz	r3, 800aba0 <_free_r+0x4c>
 800ab9c:	42a3      	cmp	r3, r4
 800ab9e:	d9fa      	bls.n	800ab96 <_free_r+0x42>
 800aba0:	6811      	ldr	r1, [r2, #0]
 800aba2:	1850      	adds	r0, r2, r1
 800aba4:	42a0      	cmp	r0, r4
 800aba6:	d10b      	bne.n	800abc0 <_free_r+0x6c>
 800aba8:	6820      	ldr	r0, [r4, #0]
 800abaa:	4401      	add	r1, r0
 800abac:	1850      	adds	r0, r2, r1
 800abae:	4283      	cmp	r3, r0
 800abb0:	6011      	str	r1, [r2, #0]
 800abb2:	d1e0      	bne.n	800ab76 <_free_r+0x22>
 800abb4:	6818      	ldr	r0, [r3, #0]
 800abb6:	685b      	ldr	r3, [r3, #4]
 800abb8:	6053      	str	r3, [r2, #4]
 800abba:	4408      	add	r0, r1
 800abbc:	6010      	str	r0, [r2, #0]
 800abbe:	e7da      	b.n	800ab76 <_free_r+0x22>
 800abc0:	d902      	bls.n	800abc8 <_free_r+0x74>
 800abc2:	230c      	movs	r3, #12
 800abc4:	602b      	str	r3, [r5, #0]
 800abc6:	e7d6      	b.n	800ab76 <_free_r+0x22>
 800abc8:	6820      	ldr	r0, [r4, #0]
 800abca:	1821      	adds	r1, r4, r0
 800abcc:	428b      	cmp	r3, r1
 800abce:	bf04      	itt	eq
 800abd0:	6819      	ldreq	r1, [r3, #0]
 800abd2:	685b      	ldreq	r3, [r3, #4]
 800abd4:	6063      	str	r3, [r4, #4]
 800abd6:	bf04      	itt	eq
 800abd8:	1809      	addeq	r1, r1, r0
 800abda:	6021      	streq	r1, [r4, #0]
 800abdc:	6054      	str	r4, [r2, #4]
 800abde:	e7ca      	b.n	800ab76 <_free_r+0x22>
 800abe0:	bd38      	pop	{r3, r4, r5, pc}
 800abe2:	bf00      	nop
 800abe4:	20003004 	.word	0x20003004

0800abe8 <sbrk_aligned>:
 800abe8:	b570      	push	{r4, r5, r6, lr}
 800abea:	4e0f      	ldr	r6, [pc, #60]	@ (800ac28 <sbrk_aligned+0x40>)
 800abec:	460c      	mov	r4, r1
 800abee:	6831      	ldr	r1, [r6, #0]
 800abf0:	4605      	mov	r5, r0
 800abf2:	b911      	cbnz	r1, 800abfa <sbrk_aligned+0x12>
 800abf4:	f000 fba4 	bl	800b340 <_sbrk_r>
 800abf8:	6030      	str	r0, [r6, #0]
 800abfa:	4621      	mov	r1, r4
 800abfc:	4628      	mov	r0, r5
 800abfe:	f000 fb9f 	bl	800b340 <_sbrk_r>
 800ac02:	1c43      	adds	r3, r0, #1
 800ac04:	d103      	bne.n	800ac0e <sbrk_aligned+0x26>
 800ac06:	f04f 34ff 	mov.w	r4, #4294967295
 800ac0a:	4620      	mov	r0, r4
 800ac0c:	bd70      	pop	{r4, r5, r6, pc}
 800ac0e:	1cc4      	adds	r4, r0, #3
 800ac10:	f024 0403 	bic.w	r4, r4, #3
 800ac14:	42a0      	cmp	r0, r4
 800ac16:	d0f8      	beq.n	800ac0a <sbrk_aligned+0x22>
 800ac18:	1a21      	subs	r1, r4, r0
 800ac1a:	4628      	mov	r0, r5
 800ac1c:	f000 fb90 	bl	800b340 <_sbrk_r>
 800ac20:	3001      	adds	r0, #1
 800ac22:	d1f2      	bne.n	800ac0a <sbrk_aligned+0x22>
 800ac24:	e7ef      	b.n	800ac06 <sbrk_aligned+0x1e>
 800ac26:	bf00      	nop
 800ac28:	20003000 	.word	0x20003000

0800ac2c <_malloc_r>:
 800ac2c:	e92d 43f8 	stmdb	sp!, {r3, r4, r5, r6, r7, r8, r9, lr}
 800ac30:	1ccd      	adds	r5, r1, #3
 800ac32:	f025 0503 	bic.w	r5, r5, #3
 800ac36:	3508      	adds	r5, #8
 800ac38:	2d0c      	cmp	r5, #12
 800ac3a:	bf38      	it	cc
 800ac3c:	250c      	movcc	r5, #12
 800ac3e:	2d00      	cmp	r5, #0
 800ac40:	4606      	mov	r6, r0
 800ac42:	db01      	blt.n	800ac48 <_malloc_r+0x1c>
 800ac44:	42a9      	cmp	r1, r5
 800ac46:	d904      	bls.n	800ac52 <_malloc_r+0x26>
 800ac48:	230c      	movs	r3, #12
 800ac4a:	6033      	str	r3, [r6, #0]
 800ac4c:	2000      	movs	r0, #0
 800ac4e:	e8bd 83f8 	ldmia.w	sp!, {r3, r4, r5, r6, r7, r8, r9, pc}
 800ac52:	f8df 80d4 	ldr.w	r8, [pc, #212]	@ 800ad28 <_malloc_r+0xfc>
 800ac56:	f000 f869 	bl	800ad2c <__malloc_lock>
 800ac5a:	f8d8 3000 	ldr.w	r3, [r8]
 800ac5e:	461c      	mov	r4, r3
 800ac60:	bb44      	cbnz	r4, 800acb4 <_malloc_r+0x88>
 800ac62:	4629      	mov	r1, r5
 800ac64:	4630      	mov	r0, r6
 800ac66:	f7ff ffbf 	bl	800abe8 <sbrk_aligned>
 800ac6a:	1c43      	adds	r3, r0, #1
 800ac6c:	4604      	mov	r4, r0
 800ac6e:	d158      	bne.n	800ad22 <_malloc_r+0xf6>
 800ac70:	f8d8 4000 	ldr.w	r4, [r8]
 800ac74:	4627      	mov	r7, r4
 800ac76:	2f00      	cmp	r7, #0
 800ac78:	d143      	bne.n	800ad02 <_malloc_r+0xd6>
 800ac7a:	2c00      	cmp	r4, #0
 800ac7c:	d04b      	beq.n	800ad16 <_malloc_r+0xea>
 800ac7e:	6823      	ldr	r3, [r4, #0]
 800ac80:	4639      	mov	r1, r7
 800ac82:	4630      	mov	r0, r6
 800ac84:	eb04 0903 	add.w	r9, r4, r3
 800ac88:	f000 fb5a 	bl	800b340 <_sbrk_r>
 800ac8c:	4581      	cmp	r9, r0
 800ac8e:	d142      	bne.n	800ad16 <_malloc_r+0xea>
 800ac90:	6821      	ldr	r1, [r4, #0]
 800ac92:	1a6d      	subs	r5, r5, r1
 800ac94:	4629      	mov	r1, r5
 800ac96:	4630      	mov	r0, r6
 800ac98:	f7ff ffa6 	bl	800abe8 <sbrk_aligned>
 800ac9c:	3001      	adds	r0, #1
 800ac9e:	d03a      	beq.n	800ad16 <_malloc_r+0xea>
 800aca0:	6823      	ldr	r3, [r4, #0]
 800aca2:	442b      	add	r3, r5
 800aca4:	6023      	str	r3, [r4, #0]
 800aca6:	f8d8 3000 	ldr.w	r3, [r8]
 800acaa:	685a      	ldr	r2, [r3, #4]
 800acac:	bb62      	cbnz	r2, 800ad08 <_malloc_r+0xdc>
 800acae:	f8c8 7000 	str.w	r7, [r8]
 800acb2:	e00f      	b.n	800acd4 <_malloc_r+0xa8>
 800acb4:	6822      	ldr	r2, [r4, #0]
 800acb6:	1b52      	subs	r2, r2, r5
 800acb8:	d420      	bmi.n	800acfc <_malloc_r+0xd0>
 800acba:	2a0b      	cmp	r2, #11
 800acbc:	d917      	bls.n	800acee <_malloc_r+0xc2>
 800acbe:	1961      	adds	r1, r4, r5
 800acc0:	42a3      	cmp	r3, r4
 800acc2:	6025      	str	r5, [r4, #0]
 800acc4:	bf18      	it	ne
 800acc6:	6059      	strne	r1, [r3, #4]
 800acc8:	6863      	ldr	r3, [r4, #4]
 800acca:	bf08      	it	eq
 800accc:	f8c8 1000 	streq.w	r1, [r8]
 800acd0:	5162      	str	r2, [r4, r5]
 800acd2:	604b      	str	r3, [r1, #4]
 800acd4:	4630      	mov	r0, r6
 800acd6:	f000 f82f 	bl	800ad38 <__malloc_unlock>
 800acda:	f104 000b 	add.w	r0, r4, #11
 800acde:	1d23      	adds	r3, r4, #4
 800ace0:	f020 0007 	bic.w	r0, r0, #7
 800ace4:	1ac2      	subs	r2, r0, r3
 800ace6:	bf1c      	itt	ne
 800ace8:	1a1b      	subne	r3, r3, r0
 800acea:	50a3      	strne	r3, [r4, r2]
 800acec:	e7af      	b.n	800ac4e <_malloc_r+0x22>
 800acee:	6862      	ldr	r2, [r4, #4]
 800acf0:	42a3      	cmp	r3, r4
 800acf2:	bf0c      	ite	eq
 800acf4:	f8c8 2000 	streq.w	r2, [r8]
 800acf8:	605a      	strne	r2, [r3, #4]
 800acfa:	e7eb      	b.n	800acd4 <_malloc_r+0xa8>
 800acfc:	4623      	mov	r3, r4
 800acfe:	6864      	ldr	r4, [r4, #4]
 800ad00:	e7ae      	b.n	800ac60 <_malloc_r+0x34>
 800ad02:	463c      	mov	r4, r7
 800ad04:	687f      	ldr	r7, [r7, #4]
 800ad06:	e7b6      	b.n	800ac76 <_malloc_r+0x4a>
 800ad08:	461a      	mov	r2, r3
 800ad0a:	685b      	ldr	r3, [r3, #4]
 800ad0c:	42a3      	cmp	r3, r4
 800ad0e:	d1fb      	bne.n	800ad08 <_malloc_r+0xdc>
 800ad10:	2300      	movs	r3, #0
 800ad12:	6053      	str	r3, [r2, #4]
 800ad14:	e7de      	b.n	800acd4 <_malloc_r+0xa8>
 800ad16:	230c      	movs	r3, #12
 800ad18:	6033      	str	r3, [r6, #0]
 800ad1a:	4630      	mov	r0, r6
 800ad1c:	f000 f80c 	bl	800ad38 <__malloc_unlock>
 800ad20:	e794      	b.n	800ac4c <_malloc_r+0x20>
 800ad22:	6005      	str	r5, [r0, #0]
 800ad24:	e7d6      	b.n	800acd4 <_malloc_r+0xa8>
 800ad26:	bf00      	nop
 800ad28:	20003004 	.word	0x20003004

0800ad2c <__malloc_lock>:
 800ad2c:	4801      	ldr	r0, [pc, #4]	@ (800ad34 <__malloc_lock+0x8>)
 800ad2e:	f7ff bef9 	b.w	800ab24 <__retarget_lock_acquire_recursive>
 800ad32:	bf00      	nop
 800ad34:	20002ffc 	.word	0x20002ffc

0800ad38 <__malloc_unlock>:
 800ad38:	4801      	ldr	r0, [pc, #4]	@ (800ad40 <__malloc_unlock+0x8>)
 800ad3a:	f7ff bef4 	b.w	800ab26 <__retarget_lock_release_recursive>
 800ad3e:	bf00      	nop
 800ad40:	20002ffc 	.word	0x20002ffc

0800ad44 <__ssputs_r>:
 800ad44:	e92d 47f0 	stmdb	sp!, {r4, r5, r6, r7, r8, r9, sl, lr}
 800ad48:	688e      	ldr	r6, [r1, #8]
 800ad4a:	461f      	mov	r7, r3
 800ad4c:	42be      	cmp	r6, r7
 800ad4e:	680b      	ldr	r3, [r1, #0]
 800ad50:	4682      	mov	sl, r0
 800ad52:	460c      	mov	r4, r1
 800ad54:	4690      	mov	r8, r2
 800ad56:	d82d      	bhi.n	800adb4 <__ssputs_r+0x70>
 800ad58:	f9b1 200c 	ldrsh.w	r2, [r1, #12]
 800ad5c:	f412 6f90 	tst.w	r2, #1152	@ 0x480
 800ad60:	d026      	beq.n	800adb0 <__ssputs_r+0x6c>
 800ad62:	6965      	ldr	r5, [r4, #20]
 800ad64:	6909      	ldr	r1, [r1, #16]
 800ad66:	eb05 0545 	add.w	r5, r5, r5, lsl #1
 800ad6a:	eba3 0901 	sub.w	r9, r3, r1
 800ad6e:	eb05 75d5 	add.w	r5, r5, r5, lsr #31
 800ad72:	1c7b      	adds	r3, r7, #1
 800ad74:	444b      	add	r3, r9
 800ad76:	106d      	asrs	r5, r5, #1
 800ad78:	429d      	cmp	r5, r3
 800ad7a:	bf38      	it	cc
 800ad7c:	461d      	movcc	r5, r3
 800ad7e:	0553      	lsls	r3, r2, #21
 800ad80:	d527      	bpl.n	800add2 <__ssputs_r+0x8e>
 800ad82:	4629      	mov	r1, r5
 800ad84:	f7ff ff52 	bl	800ac2c <_malloc_r>
 800ad88:	4606      	mov	r6, r0
 800ad8a:	b360      	cbz	r0, 800ade6 <__ssputs_r+0xa2>
 800ad8c:	6921      	ldr	r1, [r4, #16]
 800ad8e:	464a      	mov	r2, r9
 800ad90:	f7ff fed2 	bl	800ab38 <memcpy>
 800ad94:	89a3      	ldrh	r3, [r4, #12]
 800ad96:	f423 6390 	bic.w	r3, r3, #1152	@ 0x480
 800ad9a:	f043 0380 	orr.w	r3, r3, #128	@ 0x80
 800ad9e:	81a3      	strh	r3, [r4, #12]
 800ada0:	6126      	str	r6, [r4, #16]
 800ada2:	6165      	str	r5, [r4, #20]
 800ada4:	444e      	add	r6, r9
 800ada6:	eba5 0509 	sub.w	r5, r5, r9
 800adaa:	6026      	str	r6, [r4, #0]
 800adac:	60a5      	str	r5, [r4, #8]
 800adae:	463e      	mov	r6, r7
 800adb0:	42be      	cmp	r6, r7
 800adb2:	d900      	bls.n	800adb6 <__ssputs_r+0x72>
 800adb4:	463e      	mov	r6, r7
 800adb6:	6820      	ldr	r0, [r4, #0]
 800adb8:	4632      	mov	r2, r6
 800adba:	4641      	mov	r1, r8
 800adbc:	f000 faa6 	bl	800b30c <memmove>
 800adc0:	68a3      	ldr	r3, [r4, #8]
 800adc2:	1b9b      	subs	r3, r3, r6
 800adc4:	60a3      	str	r3, [r4, #8]
 800adc6:	6823      	ldr	r3, [r4, #0]
 800adc8:	4433      	add	r3, r6
 800adca:	6023      	str	r3, [r4, #0]
 800adcc:	2000      	movs	r0, #0
 800adce:	e8bd 87f0 	ldmia.w	sp!, {r4, r5, r6, r7, r8, r9, sl, pc}
 800add2:	462a      	mov	r2, r5
 800add4:	f000 fac4 	bl	800b360 <_realloc_r>
 800add8:	4606      	mov	r6, r0
 800adda:	2800      	cmp	r0, #0
 800addc:	d1e0      	bne.n	800ada0 <__ssputs_r+0x5c>
 800adde:	6921      	ldr	r1, [r4, #16]
 800ade0:	4650      	mov	r0, sl
 800ade2:	f7ff feb7 	bl	800ab54 <_free_r>
 800ade6:	230c      	movs	r3, #12
 800ade8:	f8ca 3000 	str.w	r3, [sl]
 800adec:	89a3      	ldrh	r3, [r4, #12]
 800adee:	f043 0340 	orr.w	r3, r3, #64	@ 0x40
 800adf2:	81a3      	strh	r3, [r4, #12]
 800adf4:	f04f 30ff 	mov.w	r0, #4294967295
 800adf8:	e7e9      	b.n	800adce <__ssputs_r+0x8a>
	...

0800adfc <_svfiprintf_r>:
 800adfc:	e92d 4ff0 	stmdb	sp!, {r4, r5, r6, r7, r8, r9, sl, fp, lr}
 800ae00:	4698      	mov	r8, r3
 800ae02:	898b      	ldrh	r3, [r1, #12]
 800ae04:	061b      	lsls	r3, r3, #24
 800ae06:	b09d      	sub	sp, #116	@ 0x74
 800ae08:	4607      	mov	r7, r0
 800ae0a:	460d      	mov	r5, r1
 800ae0c:	4614      	mov	r4, r2
 800ae0e:	d510      	bpl.n	800ae32 <_svfiprintf_r+0x36>
 800ae10:	690b      	ldr	r3, [r1, #16]
 800ae12:	b973      	cbnz	r3, 800ae32 <_svfiprintf_r+0x36>
 800ae14:	2140      	movs	r1, #64	@ 0x40
 800ae16:	f7ff ff09 	bl	800ac2c <_malloc_r>
 800ae1a:	6028      	str	r0, [r5, #0]
 800ae1c:	6128      	str	r0, [r5, #16]
 800ae1e:	b930      	cbnz	r0, 800ae2e <_svfiprintf_r+0x32>
 800ae20:	230c      	movs	r3, #12
 800ae22:	603b      	str	r3, [r7, #0]
 800ae24:	f04f 30ff 	mov.w	r0, #4294967295
 800ae28:	b01d      	add	sp, #116	@ 0x74
 800ae2a:	e8bd 8ff0 	ldmia.w	sp!, {r4, r5, r6, r7, r8, r9, sl, fp, pc}
 800ae2e:	2340      	movs	r3, #64	@ 0x40
 800ae30:	616b      	str	r3, [r5, #20]
 800ae32:	2300      	movs	r3, #0
 800ae34:	9309      	str	r3, [sp, #36]	@ 0x24
 800ae36:	2320      	movs	r3, #32
 800ae38:	f88d 3029 	strb.w	r3, [sp, #41]	@ 0x29
 800ae3c:	f8cd 800c 	str.w	r8, [sp, #12]
 800ae40:	2330      	movs	r3, #48	@ 0x30
 800ae42:	f8df 819c 	ldr.w	r8, [pc, #412]	@ 800afe0 <_svfiprintf_r+0x1e4>
 800ae46:	f88d 302a 	strb.w	r3, [sp, #42]	@ 0x2a
 800ae4a:	f04f 0901 	mov.w	r9, #1
 800ae4e:	4623      	mov	r3, r4
 800ae50:	469a      	mov	sl, r3
 800ae52:	f813 2b01 	ldrb.w	r2, [r3], #1
 800ae56:	b10a      	cbz	r2, 800ae5c <_svfiprintf_r+0x60>
 800ae58:	2a25      	cmp	r2, #37	@ 0x25
 800ae5a:	d1f9      	bne.n	800ae50 <_svfiprintf_r+0x54>
 800ae5c:	ebba 0b04 	subs.w	fp, sl, r4
 800ae60:	d00b      	beq.n	800ae7a <_svfiprintf_r+0x7e>
 800ae62:	465b      	mov	r3, fp
 800ae64:	4622      	mov	r2, r4
 800ae66:	4629      	mov	r1, r5
 800ae68:	4638      	mov	r0, r7
 800ae6a:	f7ff ff6b 	bl	800ad44 <__ssputs_r>
 800ae6e:	3001      	adds	r0, #1
 800ae70:	f000 80a7 	beq.w	800afc2 <_svfiprintf_r+0x1c6>
 800ae74:	9a09      	ldr	r2, [sp, #36]	@ 0x24
 800ae76:	445a      	add	r2, fp
 800ae78:	9209      	str	r2, [sp, #36]	@ 0x24
 800ae7a:	f89a 3000 	ldrb.w	r3, [sl]
 800ae7e:	2b00      	cmp	r3, #0
 800ae80:	f000 809f 	beq.w	800afc2 <_svfiprintf_r+0x1c6>
 800ae84:	2300      	movs	r3, #0
 800ae86:	f04f 32ff 	mov.w	r2, #4294967295
 800ae8a:	e9cd 2305 	strd	r2, r3, [sp, #20]
 800ae8e:	f10a 0a01 	add.w	sl, sl, #1
 800ae92:	9304      	str	r3, [sp, #16]
 800ae94:	9307      	str	r3, [sp, #28]
 800ae96:	f88d 3053 	strb.w	r3, [sp, #83]	@ 0x53
 800ae9a:	931a      	str	r3, [sp, #104]	@ 0x68
 800ae9c:	4654      	mov	r4, sl
 800ae9e:	2205      	movs	r2, #5
 800aea0:	f814 1b01 	ldrb.w	r1, [r4], #1
 800aea4:	484e      	ldr	r0, [pc, #312]	@ (800afe0 <_svfiprintf_r+0x1e4>)
 800aea6:	f7f5 f9b3 	bl	8000210 <memchr>
 800aeaa:	9a04      	ldr	r2, [sp, #16]
 800aeac:	b9d8      	cbnz	r0, 800aee6 <_svfiprintf_r+0xea>
 800aeae:	06d0      	lsls	r0, r2, #27
 800aeb0:	bf44      	itt	mi
 800aeb2:	2320      	movmi	r3, #32
 800aeb4:	f88d 3053 	strbmi.w	r3, [sp, #83]	@ 0x53
 800aeb8:	0711      	lsls	r1, r2, #28
 800aeba:	bf44      	itt	mi
 800aebc:	232b      	movmi	r3, #43	@ 0x2b
 800aebe:	f88d 3053 	strbmi.w	r3, [sp, #83]	@ 0x53
 800aec2:	f89a 3000 	ldrb.w	r3, [sl]
 800aec6:	2b2a      	cmp	r3, #42	@ 0x2a
 800aec8:	d015      	beq.n	800aef6 <_svfiprintf_r+0xfa>
 800aeca:	9a07      	ldr	r2, [sp, #28]
 800aecc:	4654      	mov	r4, sl
 800aece:	2000      	movs	r0, #0
 800aed0:	f04f 0c0a 	mov.w	ip, #10
 800aed4:	4621      	mov	r1, r4
 800aed6:	f811 3b01 	ldrb.w	r3, [r1], #1
 800aeda:	3b30      	subs	r3, #48	@ 0x30
 800aedc:	2b09      	cmp	r3, #9
 800aede:	d94b      	bls.n	800af78 <_svfiprintf_r+0x17c>
 800aee0:	b1b0      	cbz	r0, 800af10 <_svfiprintf_r+0x114>
 800aee2:	9207      	str	r2, [sp, #28]
 800aee4:	e014      	b.n	800af10 <_svfiprintf_r+0x114>
 800aee6:	eba0 0308 	sub.w	r3, r0, r8
 800aeea:	fa09 f303 	lsl.w	r3, r9, r3
 800aeee:	4313      	orrs	r3, r2
 800aef0:	9304      	str	r3, [sp, #16]
 800aef2:	46a2      	mov	sl, r4
 800aef4:	e7d2      	b.n	800ae9c <_svfiprintf_r+0xa0>
 800aef6:	9b03      	ldr	r3, [sp, #12]
 800aef8:	1d19      	adds	r1, r3, #4
 800aefa:	681b      	ldr	r3, [r3, #0]
 800aefc:	9103      	str	r1, [sp, #12]
 800aefe:	2b00      	cmp	r3, #0
 800af00:	bfbb      	ittet	lt
 800af02:	425b      	neglt	r3, r3
 800af04:	f042 0202 	orrlt.w	r2, r2, #2
 800af08:	9307      	strge	r3, [sp, #28]
 800af0a:	9307      	strlt	r3, [sp, #28]
 800af0c:	bfb8      	it	lt
 800af0e:	9204      	strlt	r2, [sp, #16]
 800af10:	7823      	ldrb	r3, [r4, #0]
 800af12:	2b2e      	cmp	r3, #46	@ 0x2e
 800af14:	d10a      	bne.n	800af2c <_svfiprintf_r+0x130>
 800af16:	7863      	ldrb	r3, [r4, #1]
 800af18:	2b2a      	cmp	r3, #42	@ 0x2a
 800af1a:	d132      	bne.n	800af82 <_svfiprintf_r+0x186>
 800af1c:	9b03      	ldr	r3, [sp, #12]
 800af1e:	1d1a      	adds	r2, r3, #4
 800af20:	681b      	ldr	r3, [r3, #0]
 800af22:	9203      	str	r2, [sp, #12]
 800af24:	ea43 73e3 	orr.w	r3, r3, r3, asr #31
 800af28:	3402      	adds	r4, #2
 800af2a:	9305      	str	r3, [sp, #20]
 800af2c:	f8df a0c0 	ldr.w	sl, [pc, #192]	@ 800aff0 <_svfiprintf_r+0x1f4>
 800af30:	7821      	ldrb	r1, [r4, #0]
 800af32:	2203      	movs	r2, #3
 800af34:	4650      	mov	r0, sl
 800af36:	f7f5 f96b 	bl	8000210 <memchr>
 800af3a:	b138      	cbz	r0, 800af4c <_svfiprintf_r+0x150>
 800af3c:	9b04      	ldr	r3, [sp, #16]
 800af3e:	eba0 000a 	sub.w	r0, r0, sl
 800af42:	2240      	movs	r2, #64	@ 0x40
 800af44:	4082      	lsls	r2, r0
 800af46:	4313      	orrs	r3, r2
 800af48:	3401      	adds	r4, #1
 800af4a:	9304      	str	r3, [sp, #16]
 800af4c:	f814 1b01 	ldrb.w	r1, [r4], #1
 800af50:	4824      	ldr	r0, [pc, #144]	@ (800afe4 <_svfiprintf_r+0x1e8>)
 800af52:	f88d 1028 	strb.w	r1, [sp, #40]	@ 0x28
 800af56:	2206      	movs	r2, #6
 800af58:	f7f5 f95a 	bl	8000210 <memchr>
 800af5c:	2800      	cmp	r0, #0
 800af5e:	d036      	beq.n	800afce <_svfiprintf_r+0x1d2>
 800af60:	4b21      	ldr	r3, [pc, #132]	@ (800afe8 <_svfiprintf_r+0x1ec>)
 800af62:	bb1b      	cbnz	r3, 800afac <_svfiprintf_r+0x1b0>
 800af64:	9b03      	ldr	r3, [sp, #12]
 800af66:	3307      	adds	r3, #7
 800af68:	f023 0307 	bic.w	r3, r3, #7
 800af6c:	3308      	adds	r3, #8
 800af6e:	9303      	str	r3, [sp, #12]
 800af70:	9b09      	ldr	r3, [sp, #36]	@ 0x24
 800af72:	4433      	add	r3, r6
 800af74:	9309      	str	r3, [sp, #36]	@ 0x24
 800af76:	e76a      	b.n	800ae4e <_svfiprintf_r+0x52>
 800af78:	fb0c 3202 	mla	r2, ip, r2, r3
 800af7c:	460c      	mov	r4, r1
 800af7e:	2001      	movs	r0, #1
 800af80:	e7a8      	b.n	800aed4 <_svfiprintf_r+0xd8>
 800af82:	2300      	movs	r3, #0
 800af84:	3401      	adds	r4, #1
 800af86:	9305      	str	r3, [sp, #20]
 800af88:	4619      	mov	r1, r3
 800af8a:	f04f 0c0a 	mov.w	ip, #10
 800af8e:	4620      	mov	r0, r4
 800af90:	f810 2b01 	ldrb.w	r2, [r0], #1
 800af94:	3a30      	subs	r2, #48	@ 0x30
 800af96:	2a09      	cmp	r2, #9
 800af98:	d903      	bls.n	800afa2 <_svfiprintf_r+0x1a6>
 800af9a:	2b00      	cmp	r3, #0
 800af9c:	d0c6      	beq.n	800af2c <_svfiprintf_r+0x130>
 800af9e:	9105      	str	r1, [sp, #20]
 800afa0:	e7c4      	b.n	800af2c <_svfiprintf_r+0x130>
 800afa2:	fb0c 2101 	mla	r1, ip, r1, r2
 800afa6:	4604      	mov	r4, r0
 800afa8:	2301      	movs	r3, #1
 800afaa:	e7f0      	b.n	800af8e <_svfiprintf_r+0x192>
 800afac:	ab03      	add	r3, sp, #12
 800afae:	9300      	str	r3, [sp, #0]
 800afb0:	462a      	mov	r2, r5
 800afb2:	4b0e      	ldr	r3, [pc, #56]	@ (800afec <_svfiprintf_r+0x1f0>)
 800afb4:	a904      	add	r1, sp, #16
 800afb6:	4638      	mov	r0, r7
 800afb8:	f3af 8000 	nop.w
 800afbc:	1c42      	adds	r2, r0, #1
 800afbe:	4606      	mov	r6, r0
 800afc0:	d1d6      	bne.n	800af70 <_svfiprintf_r+0x174>
 800afc2:	89ab      	ldrh	r3, [r5, #12]
 800afc4:	065b      	lsls	r3, r3, #25
 800afc6:	f53f af2d 	bmi.w	800ae24 <_svfiprintf_r+0x28>
 800afca:	9809      	ldr	r0, [sp, #36]	@ 0x24
 800afcc:	e72c      	b.n	800ae28 <_svfiprintf_r+0x2c>
 800afce:	ab03      	add	r3, sp, #12
 800afd0:	9300      	str	r3, [sp, #0]
 800afd2:	462a      	mov	r2, r5
 800afd4:	4b05      	ldr	r3, [pc, #20]	@ (800afec <_svfiprintf_r+0x1f0>)
 800afd6:	a904      	add	r1, sp, #16
 800afd8:	4638      	mov	r0, r7
 800afda:	f000 f879 	bl	800b0d0 <_printf_i>
 800afde:	e7ed      	b.n	800afbc <_svfiprintf_r+0x1c0>
 800afe0:	0800bc83 	.word	0x0800bc83
 800afe4:	0800bc8d 	.word	0x0800bc8d
 800afe8:	00000000 	.word	0x00000000
 800afec:	0800ad45 	.word	0x0800ad45
 800aff0:	0800bc89 	.word	0x0800bc89

0800aff4 <_printf_common>:
 800aff4:	e92d 47f0 	stmdb	sp!, {r4, r5, r6, r7, r8, r9, sl, lr}
 800aff8:	4616      	mov	r6, r2
 800affa:	4698      	mov	r8, r3
 800affc:	688a      	ldr	r2, [r1, #8]
 800affe:	690b      	ldr	r3, [r1, #16]
 800b000:	f8dd 9020 	ldr.w	r9, [sp, #32]
 800b004:	4293      	cmp	r3, r2
 800b006:	bfb8      	it	lt
 800b008:	4613      	movlt	r3, r2
 800b00a:	6033      	str	r3, [r6, #0]
 800b00c:	f891 2043 	ldrb.w	r2, [r1, #67]	@ 0x43
 800b010:	4607      	mov	r7, r0
 800b012:	460c      	mov	r4, r1
 800b014:	b10a      	cbz	r2, 800b01a <_printf_common+0x26>
 800b016:	3301      	adds	r3, #1
 800b018:	6033      	str	r3, [r6, #0]
 800b01a:	6823      	ldr	r3, [r4, #0]
 800b01c:	0699      	lsls	r1, r3, #26
 800b01e:	bf42      	ittt	mi
 800b020:	6833      	ldrmi	r3, [r6, #0]
 800b022:	3302      	addmi	r3, #2
 800b024:	6033      	strmi	r3, [r6, #0]
 800b026:	6825      	ldr	r5, [r4, #0]
 800b028:	f015 0506 	ands.w	r5, r5, #6
 800b02c:	d106      	bne.n	800b03c <_printf_common+0x48>
 800b02e:	f104 0a19 	add.w	sl, r4, #25
 800b032:	68e3      	ldr	r3, [r4, #12]
 800b034:	6832      	ldr	r2, [r6, #0]
 800b036:	1a9b      	subs	r3, r3, r2
 800b038:	42ab      	cmp	r3, r5
 800b03a:	dc26      	bgt.n	800b08a <_printf_common+0x96>
 800b03c:	f894 3043 	ldrb.w	r3, [r4, #67]	@ 0x43
 800b040:	6822      	ldr	r2, [r4, #0]
 800b042:	3b00      	subs	r3, #0
 800b044:	bf18      	it	ne
 800b046:	2301      	movne	r3, #1
 800b048:	0692      	lsls	r2, r2, #26
 800b04a:	d42b      	bmi.n	800b0a4 <_printf_common+0xb0>
 800b04c:	f104 0243 	add.w	r2, r4, #67	@ 0x43
 800b050:	4641      	mov	r1, r8
 800b052:	4638      	mov	r0, r7
 800b054:	47c8      	blx	r9
 800b056:	3001      	adds	r0, #1
 800b058:	d01e      	beq.n	800b098 <_printf_common+0xa4>
 800b05a:	6823      	ldr	r3, [r4, #0]
 800b05c:	6922      	ldr	r2, [r4, #16]
 800b05e:	f003 0306 	and.w	r3, r3, #6
 800b062:	2b04      	cmp	r3, #4
 800b064:	bf02      	ittt	eq
 800b066:	68e5      	ldreq	r5, [r4, #12]
 800b068:	6833      	ldreq	r3, [r6, #0]
 800b06a:	1aed      	subeq	r5, r5, r3
 800b06c:	68a3      	ldr	r3, [r4, #8]
 800b06e:	bf0c      	ite	eq
 800b070:	ea25 75e5 	biceq.w	r5, r5, r5, asr #31
 800b074:	2500      	movne	r5, #0
 800b076:	4293      	cmp	r3, r2
 800b078:	bfc4      	itt	gt
 800b07a:	1a9b      	subgt	r3, r3, r2
 800b07c:	18ed      	addgt	r5, r5, r3
 800b07e:	2600      	movs	r6, #0
 800b080:	341a      	adds	r4, #26
 800b082:	42b5      	cmp	r5, r6
 800b084:	d11a      	bne.n	800b0bc <_printf_common+0xc8>
 800b086:	2000      	movs	r0, #0
 800b088:	e008      	b.n	800b09c <_printf_common+0xa8>
 800b08a:	2301      	movs	r3, #1
 800b08c:	4652      	mov	r2, sl
 800b08e:	4641      	mov	r1, r8
 800b090:	4638      	mov	r0, r7
 800b092:	47c8      	blx	r9
 800b094:	3001      	adds	r0, #1
 800b096:	d103      	bne.n	800b0a0 <_printf_common+0xac>
 800b098:	f04f 30ff 	mov.w	r0, #4294967295
 800b09c:	e8bd 87f0 	ldmia.w	sp!, {r4, r5, r6, r7, r8, r9, sl, pc}
 800b0a0:	3501      	adds	r5, #1
 800b0a2:	e7c6      	b.n	800b032 <_printf_common+0x3e>
 800b0a4:	18e1      	adds	r1, r4, r3
 800b0a6:	1c5a      	adds	r2, r3, #1
 800b0a8:	2030      	movs	r0, #48	@ 0x30
 800b0aa:	f881 0043 	strb.w	r0, [r1, #67]	@ 0x43
 800b0ae:	4422      	add	r2, r4
 800b0b0:	f894 1045 	ldrb.w	r1, [r4, #69]	@ 0x45
 800b0b4:	f882 1043 	strb.w	r1, [r2, #67]	@ 0x43
 800b0b8:	3302      	adds	r3, #2
 800b0ba:	e7c7      	b.n	800b04c <_printf_common+0x58>
 800b0bc:	2301      	movs	r3, #1
 800b0be:	4622      	mov	r2, r4
 800b0c0:	4641      	mov	r1, r8
 800b0c2:	4638      	mov	r0, r7
 800b0c4:	47c8      	blx	r9
 800b0c6:	3001      	adds	r0, #1
 800b0c8:	d0e6      	beq.n	800b098 <_printf_common+0xa4>
 800b0ca:	3601      	adds	r6, #1
 800b0cc:	e7d9      	b.n	800b082 <_printf_common+0x8e>
	...

0800b0d0 <_printf_i>:
 800b0d0:	e92d 47ff 	stmdb	sp!, {r0, r1, r2, r3, r4, r5, r6, r7, r8, r9, sl, lr}
 800b0d4:	7e0f      	ldrb	r7, [r1, #24]
 800b0d6:	9e0c      	ldr	r6, [sp, #48]	@ 0x30
 800b0d8:	2f78      	cmp	r7, #120	@ 0x78
 800b0da:	4691      	mov	r9, r2
 800b0dc:	4680      	mov	r8, r0
 800b0de:	460c      	mov	r4, r1
 800b0e0:	469a      	mov	sl, r3
 800b0e2:	f101 0243 	add.w	r2, r1, #67	@ 0x43
 800b0e6:	d807      	bhi.n	800b0f8 <_printf_i+0x28>
 800b0e8:	2f62      	cmp	r7, #98	@ 0x62
 800b0ea:	d80a      	bhi.n	800b102 <_printf_i+0x32>
 800b0ec:	2f00      	cmp	r7, #0
 800b0ee:	f000 80d1 	beq.w	800b294 <_printf_i+0x1c4>
 800b0f2:	2f58      	cmp	r7, #88	@ 0x58
 800b0f4:	f000 80b8 	beq.w	800b268 <_printf_i+0x198>
 800b0f8:	f104 0642 	add.w	r6, r4, #66	@ 0x42
 800b0fc:	f884 7042 	strb.w	r7, [r4, #66]	@ 0x42
 800b100:	e03a      	b.n	800b178 <_printf_i+0xa8>
 800b102:	f1a7 0363 	sub.w	r3, r7, #99	@ 0x63
 800b106:	2b15      	cmp	r3, #21
 800b108:	d8f6      	bhi.n	800b0f8 <_printf_i+0x28>
 800b10a:	a101      	add	r1, pc, #4	@ (adr r1, 800b110 <_printf_i+0x40>)
 800b10c:	f851 f023 	ldr.w	pc, [r1, r3, lsl #2]
 800b110:	0800b169 	.word	0x0800b169
 800b114:	0800b17d 	.word	0x0800b17d
 800b118:	0800b0f9 	.word	0x0800b0f9
 800b11c:	0800b0f9 	.word	0x0800b0f9
 800b120:	0800b0f9 	.word	0x0800b0f9
 800b124:	0800b0f9 	.word	0x0800b0f9
 800b128:	0800b17d 	.word	0x0800b17d
 800b12c:	0800b0f9 	.word	0x0800b0f9
 800b130:	0800b0f9 	.word	0x0800b0f9
 800b134:	0800b0f9 	.word	0x0800b0f9
 800b138:	0800b0f9 	.word	0x0800b0f9
 800b13c:	0800b27b 	.word	0x0800b27b
 800b140:	0800b1a7 	.word	0x0800b1a7
 800b144:	0800b235 	.word	0x0800b235
 800b148:	0800b0f9 	.word	0x0800b0f9
 800b14c:	0800b0f9 	.word	0x0800b0f9
 800b150:	0800b29d 	.word	0x0800b29d
 800b154:	0800b0f9 	.word	0x0800b0f9
 800b158:	0800b1a7 	.word	0x0800b1a7
 800b15c:	0800b0f9 	.word	0x0800b0f9
 800b160:	0800b0f9 	.word	0x0800b0f9
 800b164:	0800b23d 	.word	0x0800b23d
 800b168:	6833      	ldr	r3, [r6, #0]
 800b16a:	1d1a      	adds	r2, r3, #4
 800b16c:	681b      	ldr	r3, [r3, #0]
 800b16e:	6032      	str	r2, [r6, #0]
 800b170:	f104 0642 	add.w	r6, r4, #66	@ 0x42
 800b174:	f884 3042 	strb.w	r3, [r4, #66]	@ 0x42
 800b178:	2301      	movs	r3, #1
 800b17a:	e09c      	b.n	800b2b6 <_printf_i+0x1e6>
 800b17c:	6833      	ldr	r3, [r6, #0]
 800b17e:	6820      	ldr	r0, [r4, #0]
 800b180:	1d19      	adds	r1, r3, #4
 800b182:	6031      	str	r1, [r6, #0]
 800b184:	0606      	lsls	r6, r0, #24
 800b186:	d501      	bpl.n	800b18c <_printf_i+0xbc>
 800b188:	681d      	ldr	r5, [r3, #0]
 800b18a:	e003      	b.n	800b194 <_printf_i+0xc4>
 800b18c:	0645      	lsls	r5, r0, #25
 800b18e:	d5fb      	bpl.n	800b188 <_printf_i+0xb8>
 800b190:	f9b3 5000 	ldrsh.w	r5, [r3]
 800b194:	2d00      	cmp	r5, #0
 800b196:	da03      	bge.n	800b1a0 <_printf_i+0xd0>
 800b198:	232d      	movs	r3, #45	@ 0x2d
 800b19a:	426d      	negs	r5, r5
 800b19c:	f884 3043 	strb.w	r3, [r4, #67]	@ 0x43
 800b1a0:	4858      	ldr	r0, [pc, #352]	@ (800b304 <_printf_i+0x234>)
 800b1a2:	230a      	movs	r3, #10
 800b1a4:	e011      	b.n	800b1ca <_printf_i+0xfa>
 800b1a6:	6821      	ldr	r1, [r4, #0]
 800b1a8:	6833      	ldr	r3, [r6, #0]
 800b1aa:	0608      	lsls	r0, r1, #24
 800b1ac:	f853 5b04 	ldr.w	r5, [r3], #4
 800b1b0:	d402      	bmi.n	800b1b8 <_printf_i+0xe8>
 800b1b2:	0649      	lsls	r1, r1, #25
 800b1b4:	bf48      	it	mi
 800b1b6:	b2ad      	uxthmi	r5, r5
 800b1b8:	2f6f      	cmp	r7, #111	@ 0x6f
 800b1ba:	4852      	ldr	r0, [pc, #328]	@ (800b304 <_printf_i+0x234>)
 800b1bc:	6033      	str	r3, [r6, #0]
 800b1be:	bf14      	ite	ne
 800b1c0:	230a      	movne	r3, #10
 800b1c2:	2308      	moveq	r3, #8
 800b1c4:	2100      	movs	r1, #0
 800b1c6:	f884 1043 	strb.w	r1, [r4, #67]	@ 0x43
 800b1ca:	6866      	ldr	r6, [r4, #4]
 800b1cc:	60a6      	str	r6, [r4, #8]
 800b1ce:	2e00      	cmp	r6, #0
 800b1d0:	db05      	blt.n	800b1de <_printf_i+0x10e>
 800b1d2:	6821      	ldr	r1, [r4, #0]
 800b1d4:	432e      	orrs	r6, r5
 800b1d6:	f021 0104 	bic.w	r1, r1, #4
 800b1da:	6021      	str	r1, [r4, #0]
 800b1dc:	d04b      	beq.n	800b276 <_printf_i+0x1a6>
 800b1de:	4616      	mov	r6, r2
 800b1e0:	fbb5 f1f3 	udiv	r1, r5, r3
 800b1e4:	fb03 5711 	mls	r7, r3, r1, r5
 800b1e8:	5dc7      	ldrb	r7, [r0, r7]
 800b1ea:	f806 7d01 	strb.w	r7, [r6, #-1]!
 800b1ee:	462f      	mov	r7, r5
 800b1f0:	42bb      	cmp	r3, r7
 800b1f2:	460d      	mov	r5, r1
 800b1f4:	d9f4      	bls.n	800b1e0 <_printf_i+0x110>
 800b1f6:	2b08      	cmp	r3, #8
 800b1f8:	d10b      	bne.n	800b212 <_printf_i+0x142>
 800b1fa:	6823      	ldr	r3, [r4, #0]
 800b1fc:	07df      	lsls	r7, r3, #31
 800b1fe:	d508      	bpl.n	800b212 <_printf_i+0x142>
 800b200:	6923      	ldr	r3, [r4, #16]
 800b202:	6861      	ldr	r1, [r4, #4]
 800b204:	4299      	cmp	r1, r3
 800b206:	bfde      	ittt	le
 800b208:	2330      	movle	r3, #48	@ 0x30
 800b20a:	f806 3c01 	strble.w	r3, [r6, #-1]
 800b20e:	f106 36ff 	addle.w	r6, r6, #4294967295
 800b212:	1b92      	subs	r2, r2, r6
 800b214:	6122      	str	r2, [r4, #16]
 800b216:	f8cd a000 	str.w	sl, [sp]
 800b21a:	464b      	mov	r3, r9
 800b21c:	aa03      	add	r2, sp, #12
 800b21e:	4621      	mov	r1, r4
 800b220:	4640      	mov	r0, r8
 800b222:	f7ff fee7 	bl	800aff4 <_printf_common>
 800b226:	3001      	adds	r0, #1
 800b228:	d14a      	bne.n	800b2c0 <_printf_i+0x1f0>
 800b22a:	f04f 30ff 	mov.w	r0, #4294967295
 800b22e:	b004      	add	sp, #16
 800b230:	e8bd 87f0 	ldmia.w	sp!, {r4, r5, r6, r7, r8, r9, sl, pc}
 800b234:	6823      	ldr	r3, [r4, #0]
 800b236:	f043 0320 	orr.w	r3, r3, #32
 800b23a:	6023      	str	r3, [r4, #0]
 800b23c:	4832      	ldr	r0, [pc, #200]	@ (800b308 <_printf_i+0x238>)
 800b23e:	2778      	movs	r7, #120	@ 0x78
 800b240:	f884 7045 	strb.w	r7, [r4, #69]	@ 0x45
 800b244:	6823      	ldr	r3, [r4, #0]
 800b246:	6831      	ldr	r1, [r6, #0]
 800b248:	061f      	lsls	r7, r3, #24
 800b24a:	f851 5b04 	ldr.w	r5, [r1], #4
 800b24e:	d402      	bmi.n	800b256 <_printf_i+0x186>
 800b250:	065f      	lsls	r7, r3, #25
 800b252:	bf48      	it	mi
 800b254:	b2ad      	uxthmi	r5, r5
 800b256:	6031      	str	r1, [r6, #0]
 800b258:	07d9      	lsls	r1, r3, #31
 800b25a:	bf44      	itt	mi
 800b25c:	f043 0320 	orrmi.w	r3, r3, #32
 800b260:	6023      	strmi	r3, [r4, #0]
 800b262:	b11d      	cbz	r5, 800b26c <_printf_i+0x19c>
 800b264:	2310      	movs	r3, #16
 800b266:	e7ad      	b.n	800b1c4 <_printf_i+0xf4>
 800b268:	4826      	ldr	r0, [pc, #152]	@ (800b304 <_printf_i+0x234>)
 800b26a:	e7e9      	b.n	800b240 <_printf_i+0x170>
 800b26c:	6823      	ldr	r3, [r4, #0]
 800b26e:	f023 0320 	bic.w	r3, r3, #32
 800b272:	6023      	str	r3, [r4, #0]
 800b274:	e7f6      	b.n	800b264 <_printf_i+0x194>
 800b276:	4616      	mov	r6, r2
 800b278:	e7bd      	b.n	800b1f6 <_printf_i+0x126>
 800b27a:	6833      	ldr	r3, [r6, #0]
 800b27c:	6825      	ldr	r5, [r4, #0]
 800b27e:	6961      	ldr	r1, [r4, #20]
 800b280:	1d18      	adds	r0, r3, #4
 800b282:	6030      	str	r0, [r6, #0]
 800b284:	062e      	lsls	r6, r5, #24
 800b286:	681b      	ldr	r3, [r3, #0]
 800b288:	d501      	bpl.n	800b28e <_printf_i+0x1be>
 800b28a:	6019      	str	r1, [r3, #0]
 800b28c:	e002      	b.n	800b294 <_printf_i+0x1c4>
 800b28e:	0668      	lsls	r0, r5, #25
 800b290:	d5fb      	bpl.n	800b28a <_printf_i+0x1ba>
 800b292:	8019      	strh	r1, [r3, #0]
 800b294:	2300      	movs	r3, #0
 800b296:	6123      	str	r3, [r4, #16]
 800b298:	4616      	mov	r6, r2
 800b29a:	e7bc      	b.n	800b216 <_printf_i+0x146>
 800b29c:	6833      	ldr	r3, [r6, #0]
 800b29e:	1d1a      	adds	r2, r3, #4
 800b2a0:	6032      	str	r2, [r6, #0]
 800b2a2:	681e      	ldr	r6, [r3, #0]
 800b2a4:	6862      	ldr	r2, [r4, #4]
 800b2a6:	2100      	movs	r1, #0
 800b2a8:	4630      	mov	r0, r6
 800b2aa:	f7f4 ffb1 	bl	8000210 <memchr>
 800b2ae:	b108      	cbz	r0, 800b2b4 <_printf_i+0x1e4>
 800b2b0:	1b80      	subs	r0, r0, r6
 800b2b2:	6060      	str	r0, [r4, #4]
 800b2b4:	6863      	ldr	r3, [r4, #4]
 800b2b6:	6123      	str	r3, [r4, #16]
 800b2b8:	2300      	movs	r3, #0
 800b2ba:	f884 3043 	strb.w	r3, [r4, #67]	@ 0x43
 800b2be:	e7aa      	b.n	800b216 <_printf_i+0x146>
 800b2c0:	6923      	ldr	r3, [r4, #16]
 800b2c2:	4632      	mov	r2, r6
 800b2c4:	4649      	mov	r1, r9
 800b2c6:	4640      	mov	r0, r8
 800b2c8:	47d0      	blx	sl
 800b2ca:	3001      	adds	r0, #1
 800b2cc:	d0ad      	beq.n	800b22a <_printf_i+0x15a>
 800b2ce:	6823      	ldr	r3, [r4, #0]
 800b2d0:	079b      	lsls	r3, r3, #30
 800b2d2:	d413      	bmi.n	800b2fc <_printf_i+0x22c>
 800b2d4:	68e0      	ldr	r0, [r4, #12]
 800b2d6:	9b03      	ldr	r3, [sp, #12]
 800b2d8:	4298      	cmp	r0, r3
 800b2da:	bfb8      	it	lt
 800b2dc:	4618      	movlt	r0, r3
 800b2de:	e7a6      	b.n	800b22e <_printf_i+0x15e>
 800b2e0:	2301      	movs	r3, #1
 800b2e2:	4632      	mov	r2, r6
 800b2e4:	4649      	mov	r1, r9
 800b2e6:	4640      	mov	r0, r8
 800b2e8:	47d0      	blx	sl
 800b2ea:	3001      	adds	r0, #1
 800b2ec:	d09d      	beq.n	800b22a <_printf_i+0x15a>
 800b2ee:	3501      	adds	r5, #1
 800b2f0:	68e3      	ldr	r3, [r4, #12]
 800b2f2:	9903      	ldr	r1, [sp, #12]
 800b2f4:	1a5b      	subs	r3, r3, r1
 800b2f6:	42ab      	cmp	r3, r5
 800b2f8:	dcf2      	bgt.n	800b2e0 <_printf_i+0x210>
 800b2fa:	e7eb      	b.n	800b2d4 <_printf_i+0x204>
 800b2fc:	2500      	movs	r5, #0
 800b2fe:	f104 0619 	add.w	r6, r4, #25
 800b302:	e7f5      	b.n	800b2f0 <_printf_i+0x220>
 800b304:	0800bc94 	.word	0x0800bc94
 800b308:	0800bca5 	.word	0x0800bca5

0800b30c <memmove>:
 800b30c:	4288      	cmp	r0, r1
 800b30e:	b510      	push	{r4, lr}
 800b310:	eb01 0402 	add.w	r4, r1, r2
 800b314:	d902      	bls.n	800b31c <memmove+0x10>
 800b316:	4284      	cmp	r4, r0
 800b318:	4623      	mov	r3, r4
 800b31a:	d807      	bhi.n	800b32c <memmove+0x20>
 800b31c:	1e43      	subs	r3, r0, #1
 800b31e:	42a1      	cmp	r1, r4
 800b320:	d008      	beq.n	800b334 <memmove+0x28>
 800b322:	f811 2b01 	ldrb.w	r2, [r1], #1
 800b326:	f803 2f01 	strb.w	r2, [r3, #1]!
 800b32a:	e7f8      	b.n	800b31e <memmove+0x12>
 800b32c:	4402      	add	r2, r0
 800b32e:	4601      	mov	r1, r0
 800b330:	428a      	cmp	r2, r1
 800b332:	d100      	bne.n	800b336 <memmove+0x2a>
 800b334:	bd10      	pop	{r4, pc}
 800b336:	f813 4d01 	ldrb.w	r4, [r3, #-1]!
 800b33a:	f802 4d01 	strb.w	r4, [r2, #-1]!
 800b33e:	e7f7      	b.n	800b330 <memmove+0x24>

0800b340 <_sbrk_r>:
 800b340:	b538      	push	{r3, r4, r5, lr}
 800b342:	4d06      	ldr	r5, [pc, #24]	@ (800b35c <_sbrk_r+0x1c>)
 800b344:	2300      	movs	r3, #0
 800b346:	4604      	mov	r4, r0
 800b348:	4608      	mov	r0, r1
 800b34a:	602b      	str	r3, [r5, #0]
 800b34c:	f7f9 fa4c 	bl	80047e8 <_sbrk>
 800b350:	1c43      	adds	r3, r0, #1
 800b352:	d102      	bne.n	800b35a <_sbrk_r+0x1a>
 800b354:	682b      	ldr	r3, [r5, #0]
 800b356:	b103      	cbz	r3, 800b35a <_sbrk_r+0x1a>
 800b358:	6023      	str	r3, [r4, #0]
 800b35a:	bd38      	pop	{r3, r4, r5, pc}
 800b35c:	20002ff8 	.word	0x20002ff8

0800b360 <_realloc_r>:
 800b360:	e92d 41f0 	stmdb	sp!, {r4, r5, r6, r7, r8, lr}
 800b364:	4607      	mov	r7, r0
 800b366:	4614      	mov	r4, r2
 800b368:	460d      	mov	r5, r1
 800b36a:	b921      	cbnz	r1, 800b376 <_realloc_r+0x16>
 800b36c:	e8bd 41f0 	ldmia.w	sp!, {r4, r5, r6, r7, r8, lr}
 800b370:	4611      	mov	r1, r2
 800b372:	f7ff bc5b 	b.w	800ac2c <_malloc_r>
 800b376:	b92a      	cbnz	r2, 800b384 <_realloc_r+0x24>
 800b378:	f7ff fbec 	bl	800ab54 <_free_r>
 800b37c:	4625      	mov	r5, r4
 800b37e:	4628      	mov	r0, r5
 800b380:	e8bd 81f0 	ldmia.w	sp!, {r4, r5, r6, r7, r8, pc}
 800b384:	f000 f81a 	bl	800b3bc <_malloc_usable_size_r>
 800b388:	4284      	cmp	r4, r0
 800b38a:	4606      	mov	r6, r0
 800b38c:	d802      	bhi.n	800b394 <_realloc_r+0x34>
 800b38e:	ebb4 0f50 	cmp.w	r4, r0, lsr #1
 800b392:	d8f4      	bhi.n	800b37e <_realloc_r+0x1e>
 800b394:	4621      	mov	r1, r4
 800b396:	4638      	mov	r0, r7
 800b398:	f7ff fc48 	bl	800ac2c <_malloc_r>
 800b39c:	4680      	mov	r8, r0
 800b39e:	b908      	cbnz	r0, 800b3a4 <_realloc_r+0x44>
 800b3a0:	4645      	mov	r5, r8
 800b3a2:	e7ec      	b.n	800b37e <_realloc_r+0x1e>
 800b3a4:	42b4      	cmp	r4, r6
 800b3a6:	4622      	mov	r2, r4
 800b3a8:	4629      	mov	r1, r5
 800b3aa:	bf28      	it	cs
 800b3ac:	4632      	movcs	r2, r6
 800b3ae:	f7ff fbc3 	bl	800ab38 <memcpy>
 800b3b2:	4629      	mov	r1, r5
 800b3b4:	4638      	mov	r0, r7
 800b3b6:	f7ff fbcd 	bl	800ab54 <_free_r>
 800b3ba:	e7f1      	b.n	800b3a0 <_realloc_r+0x40>

0800b3bc <_malloc_usable_size_r>:
 800b3bc:	f851 3c04 	ldr.w	r3, [r1, #-4]
 800b3c0:	1f18      	subs	r0, r3, #4
 800b3c2:	2b00      	cmp	r3, #0
 800b3c4:	bfbc      	itt	lt
 800b3c6:	580b      	ldrlt	r3, [r1, r0]
 800b3c8:	18c0      	addlt	r0, r0, r3
 800b3ca:	4770      	bx	lr

0800b3cc <atan2f>:
 800b3cc:	f000 b800 	b.w	800b3d0 <__ieee754_atan2f>

0800b3d0 <__ieee754_atan2f>:
 800b3d0:	ee10 2a90 	vmov	r2, s1
 800b3d4:	f022 4100 	bic.w	r1, r2, #2147483648	@ 0x80000000
 800b3d8:	f1b1 4fff 	cmp.w	r1, #2139095040	@ 0x7f800000
 800b3dc:	b510      	push	{r4, lr}
 800b3de:	eef0 7a40 	vmov.f32	s15, s0
 800b3e2:	d806      	bhi.n	800b3f2 <__ieee754_atan2f+0x22>
 800b3e4:	ee10 0a10 	vmov	r0, s0
 800b3e8:	f020 4300 	bic.w	r3, r0, #2147483648	@ 0x80000000
 800b3ec:	f1b3 4fff 	cmp.w	r3, #2139095040	@ 0x7f800000
 800b3f0:	d904      	bls.n	800b3fc <__ieee754_atan2f+0x2c>
 800b3f2:	ee77 7aa0 	vadd.f32	s15, s15, s1
 800b3f6:	eeb0 0a67 	vmov.f32	s0, s15
 800b3fa:	bd10      	pop	{r4, pc}
 800b3fc:	f1b2 5f7e 	cmp.w	r2, #1065353216	@ 0x3f800000
 800b400:	d103      	bne.n	800b40a <__ieee754_atan2f+0x3a>
 800b402:	e8bd 4010 	ldmia.w	sp!, {r4, lr}
 800b406:	f000 b883 	b.w	800b510 <atanf>
 800b40a:	1794      	asrs	r4, r2, #30
 800b40c:	f004 0402 	and.w	r4, r4, #2
 800b410:	ea44 74d0 	orr.w	r4, r4, r0, lsr #31
 800b414:	b943      	cbnz	r3, 800b428 <__ieee754_atan2f+0x58>
 800b416:	2c02      	cmp	r4, #2
 800b418:	d05e      	beq.n	800b4d8 <__ieee754_atan2f+0x108>
 800b41a:	ed9f 7a34 	vldr	s14, [pc, #208]	@ 800b4ec <__ieee754_atan2f+0x11c>
 800b41e:	2c03      	cmp	r4, #3
 800b420:	bf08      	it	eq
 800b422:	eef0 7a47 	vmoveq.f32	s15, s14
 800b426:	e7e6      	b.n	800b3f6 <__ieee754_atan2f+0x26>
 800b428:	b941      	cbnz	r1, 800b43c <__ieee754_atan2f+0x6c>
 800b42a:	eddf 7a31 	vldr	s15, [pc, #196]	@ 800b4f0 <__ieee754_atan2f+0x120>
 800b42e:	ed9f 7a31 	vldr	s14, [pc, #196]	@ 800b4f4 <__ieee754_atan2f+0x124>
 800b432:	2800      	cmp	r0, #0
 800b434:	bfa8      	it	ge
 800b436:	eef0 7a47 	vmovge.f32	s15, s14
 800b43a:	e7dc      	b.n	800b3f6 <__ieee754_atan2f+0x26>
 800b43c:	f1b1 4fff 	cmp.w	r1, #2139095040	@ 0x7f800000
 800b440:	d110      	bne.n	800b464 <__ieee754_atan2f+0x94>
 800b442:	f1b3 4fff 	cmp.w	r3, #2139095040	@ 0x7f800000
 800b446:	f104 34ff 	add.w	r4, r4, #4294967295
 800b44a:	d107      	bne.n	800b45c <__ieee754_atan2f+0x8c>
 800b44c:	2c02      	cmp	r4, #2
 800b44e:	d846      	bhi.n	800b4de <__ieee754_atan2f+0x10e>
 800b450:	4b29      	ldr	r3, [pc, #164]	@ (800b4f8 <__ieee754_atan2f+0x128>)
 800b452:	eb03 0384 	add.w	r3, r3, r4, lsl #2
 800b456:	edd3 7a00 	vldr	s15, [r3]
 800b45a:	e7cc      	b.n	800b3f6 <__ieee754_atan2f+0x26>
 800b45c:	2c02      	cmp	r4, #2
 800b45e:	d841      	bhi.n	800b4e4 <__ieee754_atan2f+0x114>
 800b460:	4b26      	ldr	r3, [pc, #152]	@ (800b4fc <__ieee754_atan2f+0x12c>)
 800b462:	e7f6      	b.n	800b452 <__ieee754_atan2f+0x82>
 800b464:	f1b3 4fff 	cmp.w	r3, #2139095040	@ 0x7f800000
 800b468:	d0df      	beq.n	800b42a <__ieee754_atan2f+0x5a>
 800b46a:	1a5b      	subs	r3, r3, r1
 800b46c:	f1b3 5ff4 	cmp.w	r3, #511705088	@ 0x1e800000
 800b470:	ea4f 51e3 	mov.w	r1, r3, asr #23
 800b474:	da1a      	bge.n	800b4ac <__ieee754_atan2f+0xdc>
 800b476:	2a00      	cmp	r2, #0
 800b478:	da01      	bge.n	800b47e <__ieee754_atan2f+0xae>
 800b47a:	313c      	adds	r1, #60	@ 0x3c
 800b47c:	db19      	blt.n	800b4b2 <__ieee754_atan2f+0xe2>
 800b47e:	ee87 0aa0 	vdiv.f32	s0, s15, s1
 800b482:	f000 f919 	bl	800b6b8 <fabsf>
 800b486:	f000 f843 	bl	800b510 <atanf>
 800b48a:	eef0 7a40 	vmov.f32	s15, s0
 800b48e:	2c01      	cmp	r4, #1
 800b490:	d012      	beq.n	800b4b8 <__ieee754_atan2f+0xe8>
 800b492:	2c02      	cmp	r4, #2
 800b494:	d017      	beq.n	800b4c6 <__ieee754_atan2f+0xf6>
 800b496:	2c00      	cmp	r4, #0
 800b498:	d0ad      	beq.n	800b3f6 <__ieee754_atan2f+0x26>
 800b49a:	ed9f 7a19 	vldr	s14, [pc, #100]	@ 800b500 <__ieee754_atan2f+0x130>
 800b49e:	ee77 7a87 	vadd.f32	s15, s15, s14
 800b4a2:	ed9f 7a18 	vldr	s14, [pc, #96]	@ 800b504 <__ieee754_atan2f+0x134>
 800b4a6:	ee77 7ac7 	vsub.f32	s15, s15, s14
 800b4aa:	e7a4      	b.n	800b3f6 <__ieee754_atan2f+0x26>
 800b4ac:	eddf 7a11 	vldr	s15, [pc, #68]	@ 800b4f4 <__ieee754_atan2f+0x124>
 800b4b0:	e7ed      	b.n	800b48e <__ieee754_atan2f+0xbe>
 800b4b2:	eddf 7a15 	vldr	s15, [pc, #84]	@ 800b508 <__ieee754_atan2f+0x138>
 800b4b6:	e7ea      	b.n	800b48e <__ieee754_atan2f+0xbe>
 800b4b8:	ee17 3a90 	vmov	r3, s15
 800b4bc:	f103 4300 	add.w	r3, r3, #2147483648	@ 0x80000000
 800b4c0:	ee07 3a90 	vmov	s15, r3
 800b4c4:	e797      	b.n	800b3f6 <__ieee754_atan2f+0x26>
 800b4c6:	ed9f 7a0e 	vldr	s14, [pc, #56]	@ 800b500 <__ieee754_atan2f+0x130>
 800b4ca:	ee77 7a87 	vadd.f32	s15, s15, s14
 800b4ce:	ed9f 7a0d 	vldr	s14, [pc, #52]	@ 800b504 <__ieee754_atan2f+0x134>
 800b4d2:	ee77 7a67 	vsub.f32	s15, s14, s15
 800b4d6:	e78e      	b.n	800b3f6 <__ieee754_atan2f+0x26>
 800b4d8:	eddf 7a0a 	vldr	s15, [pc, #40]	@ 800b504 <__ieee754_atan2f+0x134>
 800b4dc:	e78b      	b.n	800b3f6 <__ieee754_atan2f+0x26>
 800b4de:	eddf 7a0b 	vldr	s15, [pc, #44]	@ 800b50c <__ieee754_atan2f+0x13c>
 800b4e2:	e788      	b.n	800b3f6 <__ieee754_atan2f+0x26>
 800b4e4:	eddf 7a08 	vldr	s15, [pc, #32]	@ 800b508 <__ieee754_atan2f+0x138>
 800b4e8:	e785      	b.n	800b3f6 <__ieee754_atan2f+0x26>
 800b4ea:	bf00      	nop
 800b4ec:	c0490fdb 	.word	0xc0490fdb
 800b4f0:	bfc90fdb 	.word	0xbfc90fdb
 800b4f4:	3fc90fdb 	.word	0x3fc90fdb
 800b4f8:	0800cacc 	.word	0x0800cacc
 800b4fc:	0800cac0 	.word	0x0800cac0
 800b500:	33bbbd2e 	.word	0x33bbbd2e
 800b504:	40490fdb 	.word	0x40490fdb
 800b508:	00000000 	.word	0x00000000
 800b50c:	3f490fdb 	.word	0x3f490fdb

0800b510 <atanf>:
 800b510:	b538      	push	{r3, r4, r5, lr}
 800b512:	ee10 5a10 	vmov	r5, s0
 800b516:	f025 4400 	bic.w	r4, r5, #2147483648	@ 0x80000000
 800b51a:	f1b4 4fa1 	cmp.w	r4, #1350565888	@ 0x50800000
 800b51e:	eef0 7a40 	vmov.f32	s15, s0
 800b522:	d310      	bcc.n	800b546 <atanf+0x36>
 800b524:	f1b4 4fff 	cmp.w	r4, #2139095040	@ 0x7f800000
 800b528:	d904      	bls.n	800b534 <atanf+0x24>
 800b52a:	ee70 7a00 	vadd.f32	s15, s0, s0
 800b52e:	eeb0 0a67 	vmov.f32	s0, s15
 800b532:	bd38      	pop	{r3, r4, r5, pc}
 800b534:	eddf 7a4d 	vldr	s15, [pc, #308]	@ 800b66c <atanf+0x15c>
 800b538:	ed9f 7a4d 	vldr	s14, [pc, #308]	@ 800b670 <atanf+0x160>
 800b53c:	2d00      	cmp	r5, #0
 800b53e:	bfc8      	it	gt
 800b540:	eef0 7a47 	vmovgt.f32	s15, s14
 800b544:	e7f3      	b.n	800b52e <atanf+0x1e>
 800b546:	4b4b      	ldr	r3, [pc, #300]	@ (800b674 <atanf+0x164>)
 800b548:	429c      	cmp	r4, r3
 800b54a:	d810      	bhi.n	800b56e <atanf+0x5e>
 800b54c:	f1b4 5f44 	cmp.w	r4, #822083584	@ 0x31000000
 800b550:	d20a      	bcs.n	800b568 <atanf+0x58>
 800b552:	ed9f 7a49 	vldr	s14, [pc, #292]	@ 800b678 <atanf+0x168>
 800b556:	ee30 7a07 	vadd.f32	s14, s0, s14
 800b55a:	eef7 6a00 	vmov.f32	s13, #112	@ 0x3f800000  1.0
 800b55e:	eeb4 7ae6 	vcmpe.f32	s14, s13
 800b562:	eef1 fa10 	vmrs	APSR_nzcv, fpscr
 800b566:	dce2      	bgt.n	800b52e <atanf+0x1e>
 800b568:	f04f 33ff 	mov.w	r3, #4294967295
 800b56c:	e013      	b.n	800b596 <atanf+0x86>
 800b56e:	f000 f8a3 	bl	800b6b8 <fabsf>
 800b572:	4b42      	ldr	r3, [pc, #264]	@ (800b67c <atanf+0x16c>)
 800b574:	429c      	cmp	r4, r3
 800b576:	d84f      	bhi.n	800b618 <atanf+0x108>
 800b578:	f5a3 03d0 	sub.w	r3, r3, #6815744	@ 0x680000
 800b57c:	429c      	cmp	r4, r3
 800b57e:	d841      	bhi.n	800b604 <atanf+0xf4>
 800b580:	eef0 7a00 	vmov.f32	s15, #0	@ 0x40000000  2.0
 800b584:	eebf 7a00 	vmov.f32	s14, #240	@ 0xbf800000 -1.0
 800b588:	eea0 7a27 	vfma.f32	s14, s0, s15
 800b58c:	2300      	movs	r3, #0
 800b58e:	ee30 0a27 	vadd.f32	s0, s0, s15
 800b592:	eec7 7a00 	vdiv.f32	s15, s14, s0
 800b596:	1c5a      	adds	r2, r3, #1
 800b598:	ee27 6aa7 	vmul.f32	s12, s15, s15
 800b59c:	ed9f 7a38 	vldr	s14, [pc, #224]	@ 800b680 <atanf+0x170>
 800b5a0:	eddf 5a38 	vldr	s11, [pc, #224]	@ 800b684 <atanf+0x174>
 800b5a4:	ed9f 5a38 	vldr	s10, [pc, #224]	@ 800b688 <atanf+0x178>
 800b5a8:	ee66 6a06 	vmul.f32	s13, s12, s12
 800b5ac:	eee6 5a87 	vfma.f32	s11, s13, s14
 800b5b0:	ed9f 7a36 	vldr	s14, [pc, #216]	@ 800b68c <atanf+0x17c>
 800b5b4:	eea5 7aa6 	vfma.f32	s14, s11, s13
 800b5b8:	eddf 5a35 	vldr	s11, [pc, #212]	@ 800b690 <atanf+0x180>
 800b5bc:	eee7 5a26 	vfma.f32	s11, s14, s13
 800b5c0:	ed9f 7a34 	vldr	s14, [pc, #208]	@ 800b694 <atanf+0x184>
 800b5c4:	eea5 7aa6 	vfma.f32	s14, s11, s13
 800b5c8:	eddf 5a33 	vldr	s11, [pc, #204]	@ 800b698 <atanf+0x188>
 800b5cc:	eee7 5a26 	vfma.f32	s11, s14, s13
 800b5d0:	ed9f 7a32 	vldr	s14, [pc, #200]	@ 800b69c <atanf+0x18c>
 800b5d4:	eea6 5a87 	vfma.f32	s10, s13, s14
 800b5d8:	ed9f 7a31 	vldr	s14, [pc, #196]	@ 800b6a0 <atanf+0x190>
 800b5dc:	eea5 7a26 	vfma.f32	s14, s10, s13
 800b5e0:	ed9f 5a30 	vldr	s10, [pc, #192]	@ 800b6a4 <atanf+0x194>
 800b5e4:	eea7 5a26 	vfma.f32	s10, s14, s13
 800b5e8:	ed9f 7a2f 	vldr	s14, [pc, #188]	@ 800b6a8 <atanf+0x198>
 800b5ec:	eea5 7a26 	vfma.f32	s14, s10, s13
 800b5f0:	ee27 7a26 	vmul.f32	s14, s14, s13
 800b5f4:	eea5 7a86 	vfma.f32	s14, s11, s12
 800b5f8:	ee27 7a87 	vmul.f32	s14, s15, s14
 800b5fc:	d121      	bne.n	800b642 <atanf+0x132>
 800b5fe:	ee77 7ac7 	vsub.f32	s15, s15, s14
 800b602:	e794      	b.n	800b52e <atanf+0x1e>
 800b604:	eef7 7a00 	vmov.f32	s15, #112	@ 0x3f800000  1.0
 800b608:	ee30 7a67 	vsub.f32	s14, s0, s15
 800b60c:	ee30 0a27 	vadd.f32	s0, s0, s15
 800b610:	2301      	movs	r3, #1
 800b612:	eec7 7a00 	vdiv.f32	s15, s14, s0
 800b616:	e7be      	b.n	800b596 <atanf+0x86>
 800b618:	4b24      	ldr	r3, [pc, #144]	@ (800b6ac <atanf+0x19c>)
 800b61a:	429c      	cmp	r4, r3
 800b61c:	d80b      	bhi.n	800b636 <atanf+0x126>
 800b61e:	eef7 7a08 	vmov.f32	s15, #120	@ 0x3fc00000  1.5
 800b622:	eeb7 7a00 	vmov.f32	s14, #112	@ 0x3f800000  1.0
 800b626:	eea0 7a27 	vfma.f32	s14, s0, s15
 800b62a:	2302      	movs	r3, #2
 800b62c:	ee70 6a67 	vsub.f32	s13, s0, s15
 800b630:	eec6 7a87 	vdiv.f32	s15, s13, s14
 800b634:	e7af      	b.n	800b596 <atanf+0x86>
 800b636:	eebf 7a00 	vmov.f32	s14, #240	@ 0xbf800000 -1.0
 800b63a:	eec7 7a00 	vdiv.f32	s15, s14, s0
 800b63e:	2303      	movs	r3, #3
 800b640:	e7a9      	b.n	800b596 <atanf+0x86>
 800b642:	4a1b      	ldr	r2, [pc, #108]	@ (800b6b0 <atanf+0x1a0>)
 800b644:	491b      	ldr	r1, [pc, #108]	@ (800b6b4 <atanf+0x1a4>)
 800b646:	eb02 0283 	add.w	r2, r2, r3, lsl #2
 800b64a:	eb01 0383 	add.w	r3, r1, r3, lsl #2
 800b64e:	edd3 6a00 	vldr	s13, [r3]
 800b652:	ee37 7a66 	vsub.f32	s14, s14, s13
 800b656:	2d00      	cmp	r5, #0
 800b658:	ee37 7a67 	vsub.f32	s14, s14, s15
 800b65c:	edd2 7a00 	vldr	s15, [r2]
 800b660:	ee77 7ac7 	vsub.f32	s15, s15, s14
 800b664:	bfb8      	it	lt
 800b666:	eef1 7a67 	vneglt.f32	s15, s15
 800b66a:	e760      	b.n	800b52e <atanf+0x1e>
 800b66c:	bfc90fdb 	.word	0xbfc90fdb
 800b670:	3fc90fdb 	.word	0x3fc90fdb
 800b674:	3edfffff 	.word	0x3edfffff
 800b678:	7149f2ca 	.word	0x7149f2ca
 800b67c:	3f97ffff 	.word	0x3f97ffff
 800b680:	3c8569d7 	.word	0x3c8569d7
 800b684:	3d4bda59 	.word	0x3d4bda59
 800b688:	bd6ef16b 	.word	0xbd6ef16b
 800b68c:	3d886b35 	.word	0x3d886b35
 800b690:	3dba2e6e 	.word	0x3dba2e6e
 800b694:	3e124925 	.word	0x3e124925
 800b698:	3eaaaaab 	.word	0x3eaaaaab
 800b69c:	bd15a221 	.word	0xbd15a221
 800b6a0:	bd9d8795 	.word	0xbd9d8795
 800b6a4:	bde38e38 	.word	0xbde38e38
 800b6a8:	be4ccccd 	.word	0xbe4ccccd
 800b6ac:	401bffff 	.word	0x401bffff
 800b6b0:	0800cae8 	.word	0x0800cae8
 800b6b4:	0800cad8 	.word	0x0800cad8

0800b6b8 <fabsf>:
 800b6b8:	ee10 3a10 	vmov	r3, s0
 800b6bc:	f023 4300 	bic.w	r3, r3, #2147483648	@ 0x80000000
 800b6c0:	ee00 3a10 	vmov	s0, r3
 800b6c4:	4770      	bx	lr
	...

0800b6c8 <_init>:
 800b6c8:	b5f8      	push	{r3, r4, r5, r6, r7, lr}
 800b6ca:	bf00      	nop
 800b6cc:	bcf8      	pop	{r3, r4, r5, r6, r7}
 800b6ce:	bc08      	pop	{r3}
 800b6d0:	469e      	mov	lr, r3
 800b6d2:	4770      	bx	lr

0800b6d4 <_fini>:
 800b6d4:	b5f8      	push	{r3, r4, r5, r6, r7, lr}
 800b6d6:	bf00      	nop
 800b6d8:	bcf8      	pop	{r3, r4, r5, r6, r7}
 800b6da:	bc08      	pop	{r3}
 800b6dc:	469e      	mov	lr, r3
 800b6de:	4770      	bx	lr
